ARM GAS  C:\Users\HPz420\AppData\Local\Temp\cc03uF4X.s 			page 1


   1              		.syntax unified
   2              		.cpu cortex-m3
   3              		.fpu softvfp
   4              		.eabi_attribute 20, 1
   5              		.eabi_attribute 21, 1
   6              		.eabi_attribute 23, 3
   7              		.eabi_attribute 24, 1
   8              		.eabi_attribute 25, 1
   9              		.eabi_attribute 26, 1
  10              		.eabi_attribute 30, 6
  11              		.eabi_attribute 34, 1
  12              		.eabi_attribute 18, 4
  13              		.thumb
  14              		.syntax unified
  15              		.file	"cyfitter_cfg.c"
  16              		.text
  17              	.Ltext0:
  18              		.cfi_sections	.debug_frame
  19              		.section	.text.CYMEMZERO,"ax",%progbits
  20              		.align	2
  21              		.thumb
  22              		.thumb_func
  23              		.type	CYMEMZERO, %function
  24              	CYMEMZERO:
  25              	.LFB0:
  26              		.file 1 "Generated_Source\\PSoC5\\cyfitter_cfg.c"
   1:Generated_Source\PSoC5/cyfitter_cfg.c **** 
   2:Generated_Source\PSoC5/cyfitter_cfg.c **** /*******************************************************************************
   3:Generated_Source\PSoC5/cyfitter_cfg.c **** * File Name: cyfitter_cfg.c
   4:Generated_Source\PSoC5/cyfitter_cfg.c **** * 
   5:Generated_Source\PSoC5/cyfitter_cfg.c **** * PSoC Creator  4.4
   6:Generated_Source\PSoC5/cyfitter_cfg.c **** *
   7:Generated_Source\PSoC5/cyfitter_cfg.c **** * Description:
   8:Generated_Source\PSoC5/cyfitter_cfg.c **** * This file contains device initialization code.
   9:Generated_Source\PSoC5/cyfitter_cfg.c **** * Except for the user defined sections in CyClockStartupError(), this file should not be modified.
  10:Generated_Source\PSoC5/cyfitter_cfg.c **** * This file is automatically generated by PSoC Creator.
  11:Generated_Source\PSoC5/cyfitter_cfg.c **** *
  12:Generated_Source\PSoC5/cyfitter_cfg.c **** ********************************************************************************
  13:Generated_Source\PSoC5/cyfitter_cfg.c **** * Copyright (c) 2007-2020 Cypress Semiconductor.  All rights reserved.
  14:Generated_Source\PSoC5/cyfitter_cfg.c **** * You may use this file only in accordance with the license, terms, conditions, 
  15:Generated_Source\PSoC5/cyfitter_cfg.c **** * disclaimers, and limitations in the end user license agreement accompanying 
  16:Generated_Source\PSoC5/cyfitter_cfg.c **** * the software package with which this file was provided.
  17:Generated_Source\PSoC5/cyfitter_cfg.c **** ********************************************************************************/
  18:Generated_Source\PSoC5/cyfitter_cfg.c **** 
  19:Generated_Source\PSoC5/cyfitter_cfg.c **** #include <string.h>
  20:Generated_Source\PSoC5/cyfitter_cfg.c **** #include "cytypes.h"
  21:Generated_Source\PSoC5/cyfitter_cfg.c **** #include "cydevice_trm.h"
  22:Generated_Source\PSoC5/cyfitter_cfg.c **** #include "cyfitter.h"
  23:Generated_Source\PSoC5/cyfitter_cfg.c **** #include "CyLib.h"
  24:Generated_Source\PSoC5/cyfitter_cfg.c **** #include "cyfitter_cfg.h"
  25:Generated_Source\PSoC5/cyfitter_cfg.c **** #include "cyapicallbacks.h"
  26:Generated_Source\PSoC5/cyfitter_cfg.c **** 
  27:Generated_Source\PSoC5/cyfitter_cfg.c **** #define CY_NEED_CYCLOCKSTARTUPERROR 1
  28:Generated_Source\PSoC5/cyfitter_cfg.c **** 
  29:Generated_Source\PSoC5/cyfitter_cfg.c **** 
  30:Generated_Source\PSoC5/cyfitter_cfg.c **** #if defined(__GNUC__) || defined(__ARMCC_VERSION)
  31:Generated_Source\PSoC5/cyfitter_cfg.c ****     #define CYPACKED 
ARM GAS  C:\Users\HPz420\AppData\Local\Temp\cc03uF4X.s 			page 2


  32:Generated_Source\PSoC5/cyfitter_cfg.c ****     #define CYPACKED_ATTR __attribute__ ((packed))
  33:Generated_Source\PSoC5/cyfitter_cfg.c ****     #define CYALIGNED __attribute__ ((aligned))
  34:Generated_Source\PSoC5/cyfitter_cfg.c ****     #define CY_CFG_UNUSED __attribute__ ((unused))
  35:Generated_Source\PSoC5/cyfitter_cfg.c ****     #ifndef CY_CFG_SECTION
  36:Generated_Source\PSoC5/cyfitter_cfg.c ****         #define CY_CFG_SECTION __attribute__ ((section(".psocinit")))
  37:Generated_Source\PSoC5/cyfitter_cfg.c ****     #endif
  38:Generated_Source\PSoC5/cyfitter_cfg.c ****     
  39:Generated_Source\PSoC5/cyfitter_cfg.c ****     #if defined(__ARMCC_VERSION)
  40:Generated_Source\PSoC5/cyfitter_cfg.c ****         #define CY_CFG_MEMORY_BARRIER() __memory_changed()
  41:Generated_Source\PSoC5/cyfitter_cfg.c ****     #else
  42:Generated_Source\PSoC5/cyfitter_cfg.c ****         #define CY_CFG_MEMORY_BARRIER() __sync_synchronize()
  43:Generated_Source\PSoC5/cyfitter_cfg.c ****     #endif
  44:Generated_Source\PSoC5/cyfitter_cfg.c ****     
  45:Generated_Source\PSoC5/cyfitter_cfg.c **** #elif defined(__ICCARM__)
  46:Generated_Source\PSoC5/cyfitter_cfg.c ****     #include <intrinsics.h>
  47:Generated_Source\PSoC5/cyfitter_cfg.c **** 
  48:Generated_Source\PSoC5/cyfitter_cfg.c ****     #define CYPACKED __packed
  49:Generated_Source\PSoC5/cyfitter_cfg.c ****     #define CYPACKED_ATTR 
  50:Generated_Source\PSoC5/cyfitter_cfg.c ****     #define CYALIGNED _Pragma("data_alignment=4")
  51:Generated_Source\PSoC5/cyfitter_cfg.c ****     #define CY_CFG_UNUSED _Pragma("diag_suppress=Pe177")
  52:Generated_Source\PSoC5/cyfitter_cfg.c ****     #define CY_CFG_SECTION _Pragma("location=\".psocinit\"")
  53:Generated_Source\PSoC5/cyfitter_cfg.c ****     
  54:Generated_Source\PSoC5/cyfitter_cfg.c ****     #define CY_CFG_MEMORY_BARRIER() __DMB()
  55:Generated_Source\PSoC5/cyfitter_cfg.c ****     
  56:Generated_Source\PSoC5/cyfitter_cfg.c **** #else
  57:Generated_Source\PSoC5/cyfitter_cfg.c ****     #error Unsupported toolchain
  58:Generated_Source\PSoC5/cyfitter_cfg.c **** #endif
  59:Generated_Source\PSoC5/cyfitter_cfg.c **** 
  60:Generated_Source\PSoC5/cyfitter_cfg.c **** #ifndef CYCODE
  61:Generated_Source\PSoC5/cyfitter_cfg.c ****     #define CYCODE
  62:Generated_Source\PSoC5/cyfitter_cfg.c **** #endif
  63:Generated_Source\PSoC5/cyfitter_cfg.c **** #ifndef CYDATA
  64:Generated_Source\PSoC5/cyfitter_cfg.c ****     #define CYDATA
  65:Generated_Source\PSoC5/cyfitter_cfg.c **** #endif
  66:Generated_Source\PSoC5/cyfitter_cfg.c **** #ifndef CYFAR
  67:Generated_Source\PSoC5/cyfitter_cfg.c ****     #define CYFAR
  68:Generated_Source\PSoC5/cyfitter_cfg.c **** #endif
  69:Generated_Source\PSoC5/cyfitter_cfg.c **** #ifndef CYXDATA
  70:Generated_Source\PSoC5/cyfitter_cfg.c ****     #define CYXDATA
  71:Generated_Source\PSoC5/cyfitter_cfg.c **** #endif
  72:Generated_Source\PSoC5/cyfitter_cfg.c **** 
  73:Generated_Source\PSoC5/cyfitter_cfg.c **** 
  74:Generated_Source\PSoC5/cyfitter_cfg.c **** CY_CFG_UNUSED
  75:Generated_Source\PSoC5/cyfitter_cfg.c **** static void CYMEMZERO(void *s, size_t n);
  76:Generated_Source\PSoC5/cyfitter_cfg.c **** CY_CFG_UNUSED
  77:Generated_Source\PSoC5/cyfitter_cfg.c **** static void CYMEMZERO(void *s, size_t n)
  78:Generated_Source\PSoC5/cyfitter_cfg.c **** {
  27              		.loc 1 78 0
  28              		.cfi_startproc
  29              		@ args = 0, pretend = 0, frame = 8
  30              		@ frame_needed = 1, uses_anonymous_args = 0
  31 0000 80B5     		push	{r7, lr}
  32              		.cfi_def_cfa_offset 8
  33              		.cfi_offset 7, -8
  34              		.cfi_offset 14, -4
  35 0002 82B0     		sub	sp, sp, #8
  36              		.cfi_def_cfa_offset 16
ARM GAS  C:\Users\HPz420\AppData\Local\Temp\cc03uF4X.s 			page 3


  37 0004 00AF     		add	r7, sp, #0
  38              		.cfi_def_cfa_register 7
  39 0006 7860     		str	r0, [r7, #4]
  40 0008 3960     		str	r1, [r7]
  79:Generated_Source\PSoC5/cyfitter_cfg.c **** 	(void)memset(s, 0, n);
  41              		.loc 1 79 0
  42 000a 3A68     		ldr	r2, [r7]
  43 000c 0021     		movs	r1, #0
  44 000e 7868     		ldr	r0, [r7, #4]
  45 0010 FFF7FEFF 		bl	memset
  80:Generated_Source\PSoC5/cyfitter_cfg.c **** }
  46              		.loc 1 80 0
  47 0014 00BF     		nop
  48 0016 0837     		adds	r7, r7, #8
  49              		.cfi_def_cfa_offset 8
  50 0018 BD46     		mov	sp, r7
  51              		.cfi_def_cfa_register 13
  52              		@ sp needed
  53 001a 80BD     		pop	{r7, pc}
  54              		.cfi_endproc
  55              	.LFE0:
  56              		.size	CYMEMZERO, .-CYMEMZERO
  57              		.section	.text.CYCONFIGCPY,"ax",%progbits
  58              		.align	2
  59              		.thumb
  60              		.thumb_func
  61              		.type	CYCONFIGCPY, %function
  62              	CYCONFIGCPY:
  63              	.LFB1:
  81:Generated_Source\PSoC5/cyfitter_cfg.c **** CY_CFG_UNUSED
  82:Generated_Source\PSoC5/cyfitter_cfg.c **** static void CYCONFIGCPY(void *dest, const void *src, size_t n);
  83:Generated_Source\PSoC5/cyfitter_cfg.c **** CY_CFG_UNUSED
  84:Generated_Source\PSoC5/cyfitter_cfg.c **** static void CYCONFIGCPY(void *dest, const void *src, size_t n)
  85:Generated_Source\PSoC5/cyfitter_cfg.c **** {
  64              		.loc 1 85 0
  65              		.cfi_startproc
  66              		@ args = 0, pretend = 0, frame = 16
  67              		@ frame_needed = 1, uses_anonymous_args = 0
  68 0000 80B5     		push	{r7, lr}
  69              		.cfi_def_cfa_offset 8
  70              		.cfi_offset 7, -8
  71              		.cfi_offset 14, -4
  72 0002 84B0     		sub	sp, sp, #16
  73              		.cfi_def_cfa_offset 24
  74 0004 00AF     		add	r7, sp, #0
  75              		.cfi_def_cfa_register 7
  76 0006 F860     		str	r0, [r7, #12]
  77 0008 B960     		str	r1, [r7, #8]
  78 000a 7A60     		str	r2, [r7, #4]
  86:Generated_Source\PSoC5/cyfitter_cfg.c **** 	(void)memcpy(dest, src, n);
  79              		.loc 1 86 0
  80 000c 7A68     		ldr	r2, [r7, #4]
  81 000e B968     		ldr	r1, [r7, #8]
  82 0010 F868     		ldr	r0, [r7, #12]
  83 0012 FFF7FEFF 		bl	memcpy
  87:Generated_Source\PSoC5/cyfitter_cfg.c **** }
  84              		.loc 1 87 0
ARM GAS  C:\Users\HPz420\AppData\Local\Temp\cc03uF4X.s 			page 4


  85 0016 00BF     		nop
  86 0018 1037     		adds	r7, r7, #16
  87              		.cfi_def_cfa_offset 8
  88 001a BD46     		mov	sp, r7
  89              		.cfi_def_cfa_register 13
  90              		@ sp needed
  91 001c 80BD     		pop	{r7, pc}
  92              		.cfi_endproc
  93              	.LFE1:
  94              		.size	CYCONFIGCPY, .-CYCONFIGCPY
  95 001e 00BF     		.section	.text.CYCONFIGCPYCODE,"ax",%progbits
  96              		.align	2
  97              		.thumb
  98              		.thumb_func
  99              		.type	CYCONFIGCPYCODE, %function
 100              	CYCONFIGCPYCODE:
 101              	.LFB2:
  88:Generated_Source\PSoC5/cyfitter_cfg.c **** CY_CFG_UNUSED
  89:Generated_Source\PSoC5/cyfitter_cfg.c **** static void CYCONFIGCPYCODE(void *dest, const void *src, size_t n);
  90:Generated_Source\PSoC5/cyfitter_cfg.c **** CY_CFG_UNUSED
  91:Generated_Source\PSoC5/cyfitter_cfg.c **** static void CYCONFIGCPYCODE(void *dest, const void *src, size_t n)
  92:Generated_Source\PSoC5/cyfitter_cfg.c **** {
 102              		.loc 1 92 0
 103              		.cfi_startproc
 104              		@ args = 0, pretend = 0, frame = 16
 105              		@ frame_needed = 1, uses_anonymous_args = 0
 106 0000 80B5     		push	{r7, lr}
 107              		.cfi_def_cfa_offset 8
 108              		.cfi_offset 7, -8
 109              		.cfi_offset 14, -4
 110 0002 84B0     		sub	sp, sp, #16
 111              		.cfi_def_cfa_offset 24
 112 0004 00AF     		add	r7, sp, #0
 113              		.cfi_def_cfa_register 7
 114 0006 F860     		str	r0, [r7, #12]
 115 0008 B960     		str	r1, [r7, #8]
 116 000a 7A60     		str	r2, [r7, #4]
  93:Generated_Source\PSoC5/cyfitter_cfg.c **** 	(void)memcpy(dest, src, n);
 117              		.loc 1 93 0
 118 000c 7A68     		ldr	r2, [r7, #4]
 119 000e B968     		ldr	r1, [r7, #8]
 120 0010 F868     		ldr	r0, [r7, #12]
 121 0012 FFF7FEFF 		bl	memcpy
  94:Generated_Source\PSoC5/cyfitter_cfg.c **** }
 122              		.loc 1 94 0
 123 0016 00BF     		nop
 124 0018 1037     		adds	r7, r7, #16
 125              		.cfi_def_cfa_offset 8
 126 001a BD46     		mov	sp, r7
 127              		.cfi_def_cfa_register 13
 128              		@ sp needed
 129 001c 80BD     		pop	{r7, pc}
 130              		.cfi_endproc
 131              	.LFE2:
 132              		.size	CYCONFIGCPYCODE, .-CYCONFIGCPYCODE
 133 001e 00BF     		.section	.text.CyClockStartupError,"ax",%progbits
 134              		.align	2
ARM GAS  C:\Users\HPz420\AppData\Local\Temp\cc03uF4X.s 			page 5


 135              		.thumb
 136              		.thumb_func
 137              		.type	CyClockStartupError, %function
 138              	CyClockStartupError:
 139              	.LFB3:
  95:Generated_Source\PSoC5/cyfitter_cfg.c **** 
  96:Generated_Source\PSoC5/cyfitter_cfg.c **** 
  97:Generated_Source\PSoC5/cyfitter_cfg.c **** 
  98:Generated_Source\PSoC5/cyfitter_cfg.c **** 
  99:Generated_Source\PSoC5/cyfitter_cfg.c **** /* Clock startup error codes                                                   */
 100:Generated_Source\PSoC5/cyfitter_cfg.c **** #define CYCLOCKSTART_NO_ERROR    0u
 101:Generated_Source\PSoC5/cyfitter_cfg.c **** #define CYCLOCKSTART_XTAL_ERROR  1u
 102:Generated_Source\PSoC5/cyfitter_cfg.c **** #define CYCLOCKSTART_32KHZ_ERROR 2u
 103:Generated_Source\PSoC5/cyfitter_cfg.c **** #define CYCLOCKSTART_PLL_ERROR   3u
 104:Generated_Source\PSoC5/cyfitter_cfg.c **** #define CYCLOCKSTART_FLL_ERROR   4u
 105:Generated_Source\PSoC5/cyfitter_cfg.c **** #define CYCLOCKSTART_WCO_ERROR   5u
 106:Generated_Source\PSoC5/cyfitter_cfg.c **** 
 107:Generated_Source\PSoC5/cyfitter_cfg.c **** 
 108:Generated_Source\PSoC5/cyfitter_cfg.c **** #ifdef CY_NEED_CYCLOCKSTARTUPERROR
 109:Generated_Source\PSoC5/cyfitter_cfg.c **** /*******************************************************************************
 110:Generated_Source\PSoC5/cyfitter_cfg.c **** * Function Name: CyClockStartupError
 111:Generated_Source\PSoC5/cyfitter_cfg.c **** ********************************************************************************
 112:Generated_Source\PSoC5/cyfitter_cfg.c **** * Summary:
 113:Generated_Source\PSoC5/cyfitter_cfg.c **** *  If an error is encountered during clock configuration (crystal startup error,
 114:Generated_Source\PSoC5/cyfitter_cfg.c **** *  PLL lock error, etc.), the system will end up here.  Unless reimplemented by
 115:Generated_Source\PSoC5/cyfitter_cfg.c **** *  the customer, this function will stop in an infinite loop.
 116:Generated_Source\PSoC5/cyfitter_cfg.c **** *
 117:Generated_Source\PSoC5/cyfitter_cfg.c **** * Parameters:
 118:Generated_Source\PSoC5/cyfitter_cfg.c **** *   void
 119:Generated_Source\PSoC5/cyfitter_cfg.c **** *
 120:Generated_Source\PSoC5/cyfitter_cfg.c **** * Return:
 121:Generated_Source\PSoC5/cyfitter_cfg.c **** *   void
 122:Generated_Source\PSoC5/cyfitter_cfg.c **** *
 123:Generated_Source\PSoC5/cyfitter_cfg.c **** *******************************************************************************/
 124:Generated_Source\PSoC5/cyfitter_cfg.c **** CY_CFG_UNUSED
 125:Generated_Source\PSoC5/cyfitter_cfg.c **** static void CyClockStartupError(uint8 errorCode);
 126:Generated_Source\PSoC5/cyfitter_cfg.c **** CY_CFG_UNUSED
 127:Generated_Source\PSoC5/cyfitter_cfg.c **** static void CyClockStartupError(uint8 errorCode)
 128:Generated_Source\PSoC5/cyfitter_cfg.c **** {
 140              		.loc 1 128 0
 141              		.cfi_startproc
 142              		@ args = 0, pretend = 0, frame = 8
 143              		@ frame_needed = 1, uses_anonymous_args = 0
 144              		@ link register save eliminated.
 145 0000 80B4     		push	{r7}
 146              		.cfi_def_cfa_offset 4
 147              		.cfi_offset 7, -4
 148 0002 83B0     		sub	sp, sp, #12
 149              		.cfi_def_cfa_offset 16
 150 0004 00AF     		add	r7, sp, #0
 151              		.cfi_def_cfa_register 7
 152 0006 0346     		mov	r3, r0
 153 0008 FB71     		strb	r3, [r7, #7]
 154              	.L5:
 129:Generated_Source\PSoC5/cyfitter_cfg.c ****     /* To remove the compiler warning if errorCode not used.                */
 130:Generated_Source\PSoC5/cyfitter_cfg.c ****     errorCode = errorCode;
 131:Generated_Source\PSoC5/cyfitter_cfg.c **** 
ARM GAS  C:\Users\HPz420\AppData\Local\Temp\cc03uF4X.s 			page 6


 132:Generated_Source\PSoC5/cyfitter_cfg.c ****     /* If we have a clock startup error (bad MHz crystal, PLL lock, etc.),  */
 133:Generated_Source\PSoC5/cyfitter_cfg.c ****     /* we will end up here to allow the customer to implement something to  */
 134:Generated_Source\PSoC5/cyfitter_cfg.c ****     /* deal with the clock condition.                                       */
 135:Generated_Source\PSoC5/cyfitter_cfg.c **** 
 136:Generated_Source\PSoC5/cyfitter_cfg.c **** #ifdef CY_CFG_CLOCK_STARTUP_ERROR_CALLBACK
 137:Generated_Source\PSoC5/cyfitter_cfg.c ****     CY_CFG_Clock_Startup_ErrorCallback();
 138:Generated_Source\PSoC5/cyfitter_cfg.c **** #else
 139:Generated_Source\PSoC5/cyfitter_cfg.c ****     /*  If not using CY_CFG_CLOCK_STARTUP_ERROR_CALLBACK, place your clock startup code here. */
 140:Generated_Source\PSoC5/cyfitter_cfg.c ****     /* `#START CyClockStartupError` */
 141:Generated_Source\PSoC5/cyfitter_cfg.c **** 
 142:Generated_Source\PSoC5/cyfitter_cfg.c **** 
 143:Generated_Source\PSoC5/cyfitter_cfg.c **** 
 144:Generated_Source\PSoC5/cyfitter_cfg.c ****     /* `#END` */
 145:Generated_Source\PSoC5/cyfitter_cfg.c **** 
 146:Generated_Source\PSoC5/cyfitter_cfg.c ****     while(1) {}
 155              		.loc 1 146 0 discriminator 1
 156 000a FEE7     		b	.L5
 157              		.cfi_endproc
 158              	.LFE3:
 159              		.size	CyClockStartupError, .-CyClockStartupError
 160              		.section	.text.cfg_write_bytes32,"ax",%progbits
 161              		.align	2
 162              		.thumb
 163              		.thumb_func
 164              		.type	cfg_write_bytes32, %function
 165              	cfg_write_bytes32:
 166              	.LFB4:
 147:Generated_Source\PSoC5/cyfitter_cfg.c **** #endif /* CY_CFG_CLOCK_STARTUP_ERROR_CALLBACK */
 148:Generated_Source\PSoC5/cyfitter_cfg.c **** }
 149:Generated_Source\PSoC5/cyfitter_cfg.c **** #endif
 150:Generated_Source\PSoC5/cyfitter_cfg.c **** 
 151:Generated_Source\PSoC5/cyfitter_cfg.c **** #define CY_CFG_BASE_ADDR_COUNT 31u
 152:Generated_Source\PSoC5/cyfitter_cfg.c **** CYPACKED typedef struct
 153:Generated_Source\PSoC5/cyfitter_cfg.c **** {
 154:Generated_Source\PSoC5/cyfitter_cfg.c **** 	uint8 offset;
 155:Generated_Source\PSoC5/cyfitter_cfg.c **** 	uint8 value;
 156:Generated_Source\PSoC5/cyfitter_cfg.c **** } CYPACKED_ATTR cy_cfg_addrvalue_t;
 157:Generated_Source\PSoC5/cyfitter_cfg.c **** 
 158:Generated_Source\PSoC5/cyfitter_cfg.c **** 
 159:Generated_Source\PSoC5/cyfitter_cfg.c **** 
 160:Generated_Source\PSoC5/cyfitter_cfg.c **** /*******************************************************************************
 161:Generated_Source\PSoC5/cyfitter_cfg.c **** * Function Name: cfg_write_bytes32
 162:Generated_Source\PSoC5/cyfitter_cfg.c **** ********************************************************************************
 163:Generated_Source\PSoC5/cyfitter_cfg.c **** * Summary:
 164:Generated_Source\PSoC5/cyfitter_cfg.c **** *  This function is used for setting up the chip configuration areas that
 165:Generated_Source\PSoC5/cyfitter_cfg.c **** *  contain relatively sparse data.
 166:Generated_Source\PSoC5/cyfitter_cfg.c **** *
 167:Generated_Source\PSoC5/cyfitter_cfg.c **** * Parameters:
 168:Generated_Source\PSoC5/cyfitter_cfg.c **** *   void
 169:Generated_Source\PSoC5/cyfitter_cfg.c **** *
 170:Generated_Source\PSoC5/cyfitter_cfg.c **** * Return:
 171:Generated_Source\PSoC5/cyfitter_cfg.c **** *   void
 172:Generated_Source\PSoC5/cyfitter_cfg.c **** *
 173:Generated_Source\PSoC5/cyfitter_cfg.c **** *******************************************************************************/
 174:Generated_Source\PSoC5/cyfitter_cfg.c **** static void cfg_write_bytes32(const uint32 addr_table[], const cy_cfg_addrvalue_t data_table[]);
 175:Generated_Source\PSoC5/cyfitter_cfg.c **** static void cfg_write_bytes32(const uint32 addr_table[], const cy_cfg_addrvalue_t data_table[])
 176:Generated_Source\PSoC5/cyfitter_cfg.c **** {
ARM GAS  C:\Users\HPz420\AppData\Local\Temp\cc03uF4X.s 			page 7


 167              		.loc 1 176 0
 168              		.cfi_startproc
 169              		@ args = 0, pretend = 0, frame = 24
 170              		@ frame_needed = 1, uses_anonymous_args = 0
 171              		@ link register save eliminated.
 172 0000 80B4     		push	{r7}
 173              		.cfi_def_cfa_offset 4
 174              		.cfi_offset 7, -4
 175 0002 87B0     		sub	sp, sp, #28
 176              		.cfi_def_cfa_offset 32
 177 0004 00AF     		add	r7, sp, #0
 178              		.cfi_def_cfa_register 7
 179 0006 7860     		str	r0, [r7, #4]
 180 0008 3960     		str	r1, [r7]
 177:Generated_Source\PSoC5/cyfitter_cfg.c **** 	/* For 32-bit little-endian architectures */
 178:Generated_Source\PSoC5/cyfitter_cfg.c **** 	uint32 i, j = 0u;
 181              		.loc 1 178 0
 182 000a 0023     		movs	r3, #0
 183 000c 3B61     		str	r3, [r7, #16]
 179:Generated_Source\PSoC5/cyfitter_cfg.c **** 	for (i = 0u; i < CY_CFG_BASE_ADDR_COUNT; i++)
 184              		.loc 1 179 0
 185 000e 0023     		movs	r3, #0
 186 0010 7B61     		str	r3, [r7, #20]
 187 0012 27E0     		b	.L7
 188              	.L10:
 189              	.LBB2:
 180:Generated_Source\PSoC5/cyfitter_cfg.c **** 	{
 181:Generated_Source\PSoC5/cyfitter_cfg.c **** 		uint32 baseAddr = addr_table[i];
 190              		.loc 1 181 0
 191 0014 7B69     		ldr	r3, [r7, #20]
 192 0016 9B00     		lsls	r3, r3, #2
 193 0018 7A68     		ldr	r2, [r7, #4]
 194 001a 1344     		add	r3, r3, r2
 195 001c 1B68     		ldr	r3, [r3]
 196 001e BB60     		str	r3, [r7, #8]
 182:Generated_Source\PSoC5/cyfitter_cfg.c **** 		uint8 count = (uint8)baseAddr;
 197              		.loc 1 182 0
 198 0020 BB68     		ldr	r3, [r7, #8]
 199 0022 FB73     		strb	r3, [r7, #15]
 183:Generated_Source\PSoC5/cyfitter_cfg.c **** 		baseAddr &= 0xFFFFFF00u;
 200              		.loc 1 183 0
 201 0024 BB68     		ldr	r3, [r7, #8]
 202 0026 23F0FF03 		bic	r3, r3, #255
 203 002a BB60     		str	r3, [r7, #8]
 184:Generated_Source\PSoC5/cyfitter_cfg.c **** 		while (count != 0u)
 204              		.loc 1 184 0
 205 002c 14E0     		b	.L8
 206              	.L9:
 185:Generated_Source\PSoC5/cyfitter_cfg.c **** 		{
 186:Generated_Source\PSoC5/cyfitter_cfg.c **** 			CY_SET_REG8((void *)(baseAddr + data_table[j].offset), data_table[j].value);
 207              		.loc 1 186 0
 208 002e 3B69     		ldr	r3, [r7, #16]
 209 0030 5B00     		lsls	r3, r3, #1
 210 0032 3A68     		ldr	r2, [r7]
 211 0034 1344     		add	r3, r3, r2
 212 0036 1B78     		ldrb	r3, [r3]	@ zero_extendqisi2
 213 0038 1A46     		mov	r2, r3
ARM GAS  C:\Users\HPz420\AppData\Local\Temp\cc03uF4X.s 			page 8


 214 003a BB68     		ldr	r3, [r7, #8]
 215 003c 1344     		add	r3, r3, r2
 216 003e 1946     		mov	r1, r3
 217 0040 3B69     		ldr	r3, [r7, #16]
 218 0042 5B00     		lsls	r3, r3, #1
 219 0044 3A68     		ldr	r2, [r7]
 220 0046 1344     		add	r3, r3, r2
 221 0048 5B78     		ldrb	r3, [r3, #1]	@ zero_extendqisi2
 222 004a 0B70     		strb	r3, [r1]
 187:Generated_Source\PSoC5/cyfitter_cfg.c **** 			j++;
 223              		.loc 1 187 0
 224 004c 3B69     		ldr	r3, [r7, #16]
 225 004e 0133     		adds	r3, r3, #1
 226 0050 3B61     		str	r3, [r7, #16]
 188:Generated_Source\PSoC5/cyfitter_cfg.c **** 			count--;
 227              		.loc 1 188 0
 228 0052 FB7B     		ldrb	r3, [r7, #15]	@ zero_extendqisi2
 229 0054 013B     		subs	r3, r3, #1
 230 0056 FB73     		strb	r3, [r7, #15]
 231              	.L8:
 184:Generated_Source\PSoC5/cyfitter_cfg.c **** 		{
 232              		.loc 1 184 0
 233 0058 FB7B     		ldrb	r3, [r7, #15]	@ zero_extendqisi2
 234 005a 002B     		cmp	r3, #0
 235 005c E7D1     		bne	.L9
 236              	.LBE2:
 179:Generated_Source\PSoC5/cyfitter_cfg.c **** 	{
 237              		.loc 1 179 0 discriminator 2
 238 005e 7B69     		ldr	r3, [r7, #20]
 239 0060 0133     		adds	r3, r3, #1
 240 0062 7B61     		str	r3, [r7, #20]
 241              	.L7:
 179:Generated_Source\PSoC5/cyfitter_cfg.c **** 	{
 242              		.loc 1 179 0 is_stmt 0 discriminator 1
 243 0064 7B69     		ldr	r3, [r7, #20]
 244 0066 1E2B     		cmp	r3, #30
 245 0068 D4D9     		bls	.L10
 189:Generated_Source\PSoC5/cyfitter_cfg.c **** 		}
 190:Generated_Source\PSoC5/cyfitter_cfg.c **** 	}
 191:Generated_Source\PSoC5/cyfitter_cfg.c **** }
 246              		.loc 1 191 0 is_stmt 1
 247 006a 00BF     		nop
 248 006c 1C37     		adds	r7, r7, #28
 249              		.cfi_def_cfa_offset 4
 250 006e BD46     		mov	sp, r7
 251              		.cfi_def_cfa_register 13
 252              		@ sp needed
 253 0070 80BC     		pop	{r7}
 254              		.cfi_restore 7
 255              		.cfi_def_cfa_offset 0
 256 0072 7047     		bx	lr
 257              		.cfi_endproc
 258              	.LFE4:
 259              		.size	cfg_write_bytes32, .-cfg_write_bytes32
 260              		.section	.text.ClockSetup,"ax",%progbits
 261              		.align	2
 262              		.thumb
ARM GAS  C:\Users\HPz420\AppData\Local\Temp\cc03uF4X.s 			page 9


 263              		.thumb_func
 264              		.type	ClockSetup, %function
 265              	ClockSetup:
 266              	.LFB5:
 192:Generated_Source\PSoC5/cyfitter_cfg.c **** 
 193:Generated_Source\PSoC5/cyfitter_cfg.c **** /*******************************************************************************
 194:Generated_Source\PSoC5/cyfitter_cfg.c **** * Function Name: ClockSetup
 195:Generated_Source\PSoC5/cyfitter_cfg.c **** ********************************************************************************
 196:Generated_Source\PSoC5/cyfitter_cfg.c **** *
 197:Generated_Source\PSoC5/cyfitter_cfg.c **** * Summary:
 198:Generated_Source\PSoC5/cyfitter_cfg.c **** *  Performs the initialization of all of the clocks in the device based on the
 199:Generated_Source\PSoC5/cyfitter_cfg.c **** *  settings in the Clock tab of the DWR.  This includes enabling the requested
 200:Generated_Source\PSoC5/cyfitter_cfg.c **** *  clocks and setting the necessary dividers to produce the desired frequency. 
 201:Generated_Source\PSoC5/cyfitter_cfg.c **** *
 202:Generated_Source\PSoC5/cyfitter_cfg.c **** * Parameters:
 203:Generated_Source\PSoC5/cyfitter_cfg.c **** *  void
 204:Generated_Source\PSoC5/cyfitter_cfg.c **** *
 205:Generated_Source\PSoC5/cyfitter_cfg.c **** * Return:
 206:Generated_Source\PSoC5/cyfitter_cfg.c **** *  void
 207:Generated_Source\PSoC5/cyfitter_cfg.c **** *
 208:Generated_Source\PSoC5/cyfitter_cfg.c **** *******************************************************************************/
 209:Generated_Source\PSoC5/cyfitter_cfg.c **** static void ClockSetup(void);
 210:Generated_Source\PSoC5/cyfitter_cfg.c **** static void ClockSetup(void)
 211:Generated_Source\PSoC5/cyfitter_cfg.c **** {
 267              		.loc 1 211 0
 268              		.cfi_startproc
 269              		@ args = 0, pretend = 0, frame = 8
 270              		@ frame_needed = 1, uses_anonymous_args = 0
 271 0000 80B5     		push	{r7, lr}
 272              		.cfi_def_cfa_offset 8
 273              		.cfi_offset 7, -8
 274              		.cfi_offset 14, -4
 275 0002 82B0     		sub	sp, sp, #8
 276              		.cfi_def_cfa_offset 16
 277 0004 00AF     		add	r7, sp, #0
 278              		.cfi_def_cfa_register 7
 212:Generated_Source\PSoC5/cyfitter_cfg.c **** 	/* CYDEV_CLKDIST_ACFG0_CFG0 Address: CYREG_CLKDIST_ACFG0_CFG0 Size (bytes): 4 */
 213:Generated_Source\PSoC5/cyfitter_cfg.c **** 	static const uint8 CYCODE BS_CYDEV_CLKDIST_ACFG0_CFG0_VAL[] = {
 214:Generated_Source\PSoC5/cyfitter_cfg.c **** 		0x05u, 0x00u, 0x14u, 0x01u};
 215:Generated_Source\PSoC5/cyfitter_cfg.c **** 
 216:Generated_Source\PSoC5/cyfitter_cfg.c **** 	uint32 timeout;
 217:Generated_Source\PSoC5/cyfitter_cfg.c **** 	uint8 pllLock;
 218:Generated_Source\PSoC5/cyfitter_cfg.c **** 
 219:Generated_Source\PSoC5/cyfitter_cfg.c **** 
 220:Generated_Source\PSoC5/cyfitter_cfg.c **** 	/* Configure Digital Clocks based on settings from Clock DWR */
 221:Generated_Source\PSoC5/cyfitter_cfg.c **** 	CY_SET_XTND_REG16((void CYFAR *)(CYREG_CLKDIST_DCFG0_CFG0), 0x0009u);
 279              		.loc 1 221 0
 280 0006 364B     		ldr	r3, .L16
 281 0008 0922     		movs	r2, #9
 282 000a 1A80     		strh	r2, [r3]	@ movhi
 222:Generated_Source\PSoC5/cyfitter_cfg.c **** 	CY_SET_XTND_REG8((void CYFAR *)(CYREG_CLKDIST_DCFG0_CFG0 + 0x2u), 0x18u);
 283              		.loc 1 222 0
 284 000c 354B     		ldr	r3, .L16+4
 285 000e 1822     		movs	r2, #24
 286 0010 1A70     		strb	r2, [r3]
 223:Generated_Source\PSoC5/cyfitter_cfg.c **** 	CY_SET_XTND_REG16((void CYFAR *)(CYREG_CLKDIST_DCFG1_CFG0), 0xFFFFu);
 287              		.loc 1 223 0
ARM GAS  C:\Users\HPz420\AppData\Local\Temp\cc03uF4X.s 			page 10


 288 0012 354B     		ldr	r3, .L16+8
 289 0014 4FF6FF72 		movw	r2, #65535
 290 0018 1A80     		strh	r2, [r3]	@ movhi
 224:Generated_Source\PSoC5/cyfitter_cfg.c **** 	CY_SET_XTND_REG8((void CYFAR *)(CYREG_CLKDIST_DCFG1_CFG0 + 0x2u), 0x1Bu);
 291              		.loc 1 224 0
 292 001a 344B     		ldr	r3, .L16+12
 293 001c 1B22     		movs	r2, #27
 294 001e 1A70     		strb	r2, [r3]
 225:Generated_Source\PSoC5/cyfitter_cfg.c **** 
 226:Generated_Source\PSoC5/cyfitter_cfg.c **** 	/* Configure Analog Clocks based on settings from Clock DWR */
 227:Generated_Source\PSoC5/cyfitter_cfg.c **** 	CYCONFIGCPYCODE((void CYFAR *)(CYREG_CLKDIST_ACFG0_CFG0), (const void CYCODE *)(BS_CYDEV_CLKDIST_A
 295              		.loc 1 227 0
 296 0020 0422     		movs	r2, #4
 297 0022 3349     		ldr	r1, .L16+16
 298 0024 3348     		ldr	r0, .L16+20
 299 0026 FFF7FEFF 		bl	CYCONFIGCPYCODE
 228:Generated_Source\PSoC5/cyfitter_cfg.c **** 
 229:Generated_Source\PSoC5/cyfitter_cfg.c **** 	/* Configure ILO based on settings from Clock DWR */
 230:Generated_Source\PSoC5/cyfitter_cfg.c **** 	CY_SET_XTND_REG8((void CYFAR *)(CYREG_SLOWCLK_ILO_CR0), 0x06u);
 300              		.loc 1 230 0
 301 002a 334B     		ldr	r3, .L16+24
 302 002c 0622     		movs	r2, #6
 303 002e 1A70     		strb	r2, [r3]
 231:Generated_Source\PSoC5/cyfitter_cfg.c **** 
 232:Generated_Source\PSoC5/cyfitter_cfg.c **** 	/* Configure IMO based on settings from Clock DWR */
 233:Generated_Source\PSoC5/cyfitter_cfg.c **** 	CY_SET_XTND_REG8((void CYFAR *)(CYREG_FASTCLK_IMO_CR), 0x52u);
 304              		.loc 1 233 0
 305 0030 324B     		ldr	r3, .L16+28
 306 0032 5222     		movs	r2, #82
 307 0034 1A70     		strb	r2, [r3]
 234:Generated_Source\PSoC5/cyfitter_cfg.c **** 	CY_SET_XTND_REG8((void CYFAR *)(CYREG_IMO_TR1), (CY_GET_XTND_REG8((void CYFAR *)CYREG_FLSHID_CUST_
 308              		.loc 1 234 0
 309 0036 324B     		ldr	r3, .L16+32
 310 0038 324A     		ldr	r2, .L16+36
 311 003a 1278     		ldrb	r2, [r2]
 312 003c D2B2     		uxtb	r2, r2
 313 003e 1A70     		strb	r2, [r3]
 235:Generated_Source\PSoC5/cyfitter_cfg.c **** 
 236:Generated_Source\PSoC5/cyfitter_cfg.c **** 	/* Configure PLL based on settings from Clock DWR */
 237:Generated_Source\PSoC5/cyfitter_cfg.c **** 	CY_SET_XTND_REG16((void CYFAR *)(CYREG_FASTCLK_PLL_P), 0x0818u);
 314              		.loc 1 237 0
 315 0040 314B     		ldr	r3, .L16+40
 316 0042 40F61802 		movw	r2, #2072
 317 0046 1A80     		strh	r2, [r3]	@ movhi
 238:Generated_Source\PSoC5/cyfitter_cfg.c **** 	CY_SET_XTND_REG16((void CYFAR *)(CYREG_FASTCLK_PLL_CFG0), 0x1251u);
 318              		.loc 1 238 0
 319 0048 304B     		ldr	r3, .L16+44
 320 004a 41F25122 		movw	r2, #4689
 321 004e 1A80     		strh	r2, [r3]	@ movhi
 239:Generated_Source\PSoC5/cyfitter_cfg.c **** 	/* Wait up to 250us for the PLL to lock */
 240:Generated_Source\PSoC5/cyfitter_cfg.c **** 	pllLock = 0u;
 322              		.loc 1 240 0
 323 0050 0023     		movs	r3, #0
 324 0052 FB70     		strb	r3, [r7, #3]
 241:Generated_Source\PSoC5/cyfitter_cfg.c **** 	for (timeout = 250u / 10u; (timeout > 0u) && (pllLock != 0x03u); timeout--)
 325              		.loc 1 241 0
 326 0054 1923     		movs	r3, #25
ARM GAS  C:\Users\HPz420\AppData\Local\Temp\cc03uF4X.s 			page 11


 327 0056 7B60     		str	r3, [r7, #4]
 328 0058 14E0     		b	.L12
 329              	.L14:
 242:Generated_Source\PSoC5/cyfitter_cfg.c **** 	{ 
 243:Generated_Source\PSoC5/cyfitter_cfg.c **** 		pllLock = 0x03u & ((uint8)((uint8)pllLock << 1) | ((CY_GET_XTND_REG8((void CYFAR *)CYREG_FASTCLK_
 330              		.loc 1 243 0 discriminator 4
 331 005a FB78     		ldrb	r3, [r7, #3]
 332 005c 5B00     		lsls	r3, r3, #1
 333 005e DAB2     		uxtb	r2, r3
 334 0060 2B4B     		ldr	r3, .L16+48
 335 0062 1B78     		ldrb	r3, [r3]
 336 0064 DBB2     		uxtb	r3, r3
 337 0066 03F00103 		and	r3, r3, #1
 338 006a DBB2     		uxtb	r3, r3
 339 006c 1343     		orrs	r3, r3, r2
 340 006e DBB2     		uxtb	r3, r3
 341 0070 03F00303 		and	r3, r3, #3
 342 0074 FB70     		strb	r3, [r7, #3]
 244:Generated_Source\PSoC5/cyfitter_cfg.c **** 		CyDelayCycles(10u * 48u); /* Delay 10us based on 48MHz clock */
 343              		.loc 1 244 0 discriminator 4
 344 0076 4FF4F070 		mov	r0, #480
 345 007a FFF7FEFF 		bl	CyDelayCycles
 241:Generated_Source\PSoC5/cyfitter_cfg.c **** 	for (timeout = 250u / 10u; (timeout > 0u) && (pllLock != 0x03u); timeout--)
 346              		.loc 1 241 0 discriminator 4
 347 007e 7B68     		ldr	r3, [r7, #4]
 348 0080 013B     		subs	r3, r3, #1
 349 0082 7B60     		str	r3, [r7, #4]
 350              	.L12:
 241:Generated_Source\PSoC5/cyfitter_cfg.c **** 	for (timeout = 250u / 10u; (timeout > 0u) && (pllLock != 0x03u); timeout--)
 351              		.loc 1 241 0 is_stmt 0 discriminator 1
 352 0084 7B68     		ldr	r3, [r7, #4]
 353 0086 002B     		cmp	r3, #0
 354 0088 02D0     		beq	.L13
 241:Generated_Source\PSoC5/cyfitter_cfg.c **** 	for (timeout = 250u / 10u; (timeout > 0u) && (pllLock != 0x03u); timeout--)
 355              		.loc 1 241 0 discriminator 3
 356 008a FB78     		ldrb	r3, [r7, #3]	@ zero_extendqisi2
 357 008c 032B     		cmp	r3, #3
 358 008e E4D1     		bne	.L14
 359              	.L13:
 245:Generated_Source\PSoC5/cyfitter_cfg.c **** 	}
 246:Generated_Source\PSoC5/cyfitter_cfg.c **** 	/* If we ran out of time the PLL didn't lock so go to the error function */
 247:Generated_Source\PSoC5/cyfitter_cfg.c **** 	if (timeout == 0u)
 360              		.loc 1 247 0 is_stmt 1
 361 0090 7B68     		ldr	r3, [r7, #4]
 362 0092 002B     		cmp	r3, #0
 363 0094 02D1     		bne	.L15
 248:Generated_Source\PSoC5/cyfitter_cfg.c **** 	{
 249:Generated_Source\PSoC5/cyfitter_cfg.c **** 		CyClockStartupError(CYCLOCKSTART_PLL_ERROR);
 364              		.loc 1 249 0
 365 0096 0320     		movs	r0, #3
 366 0098 FFF7FEFF 		bl	CyClockStartupError
 367              	.L15:
 250:Generated_Source\PSoC5/cyfitter_cfg.c **** 	}
 251:Generated_Source\PSoC5/cyfitter_cfg.c **** 
 252:Generated_Source\PSoC5/cyfitter_cfg.c **** 	/* Configure Bus/Master Clock based on settings from Clock DWR */
 253:Generated_Source\PSoC5/cyfitter_cfg.c **** 	CY_SET_XTND_REG16((void CYFAR *)(CYREG_CLKDIST_MSTR0), 0x0100u);
 368              		.loc 1 253 0
ARM GAS  C:\Users\HPz420\AppData\Local\Temp\cc03uF4X.s 			page 12


 369 009c 1D4B     		ldr	r3, .L16+52
 370 009e 4FF48072 		mov	r2, #256
 371 00a2 1A80     		strh	r2, [r3]	@ movhi
 254:Generated_Source\PSoC5/cyfitter_cfg.c **** 	CY_SET_XTND_REG8((void CYFAR *)(CYREG_CLKDIST_MSTR0), 0x07u);
 372              		.loc 1 254 0
 373 00a4 1B4B     		ldr	r3, .L16+52
 374 00a6 0722     		movs	r2, #7
 375 00a8 1A70     		strb	r2, [r3]
 255:Generated_Source\PSoC5/cyfitter_cfg.c **** 	CY_SET_XTND_REG8((void CYFAR *)(CYREG_CLKDIST_BCFG0), 0x00u);
 376              		.loc 1 255 0
 377 00aa 1B4B     		ldr	r3, .L16+56
 378 00ac 0022     		movs	r2, #0
 379 00ae 1A70     		strb	r2, [r3]
 256:Generated_Source\PSoC5/cyfitter_cfg.c **** 	CY_SET_XTND_REG8((void CYFAR *)(CYREG_CLKDIST_BCFG2), 0x48u);
 380              		.loc 1 256 0
 381 00b0 1A4B     		ldr	r3, .L16+60
 382 00b2 4822     		movs	r2, #72
 383 00b4 1A70     		strb	r2, [r3]
 257:Generated_Source\PSoC5/cyfitter_cfg.c **** 	CY_SET_XTND_REG8((void CYFAR *)(CYREG_CLKDIST_MSTR0), 0x00u);
 384              		.loc 1 257 0
 385 00b6 174B     		ldr	r3, .L16+52
 386 00b8 0022     		movs	r2, #0
 387 00ba 1A70     		strb	r2, [r3]
 258:Generated_Source\PSoC5/cyfitter_cfg.c **** 
 259:Generated_Source\PSoC5/cyfitter_cfg.c **** 	/* Configure USB Clock based on settings from Clock DWR */
 260:Generated_Source\PSoC5/cyfitter_cfg.c **** 	CY_SET_XTND_REG8((void CYFAR *)(CYREG_CLKDIST_UCFG), 0x00u);
 388              		.loc 1 260 0
 389 00bc 184B     		ldr	r3, .L16+64
 390 00be 0022     		movs	r2, #0
 391 00c0 1A70     		strb	r2, [r3]
 261:Generated_Source\PSoC5/cyfitter_cfg.c **** 	CY_SET_XTND_REG8((void CYFAR *)(CYREG_CLKDIST_LD), 0x02u);
 392              		.loc 1 261 0
 393 00c2 184B     		ldr	r3, .L16+68
 394 00c4 0222     		movs	r2, #2
 395 00c6 1A70     		strb	r2, [r3]
 262:Generated_Source\PSoC5/cyfitter_cfg.c **** 
 263:Generated_Source\PSoC5/cyfitter_cfg.c **** 	CY_SET_XTND_REG8((void CYFAR *)(CYREG_PM_ACT_CFG2), ((CY_GET_XTND_REG8((void CYFAR *)CYREG_PM_ACT_
 396              		.loc 1 263 0
 397 00c8 174A     		ldr	r2, .L16+72
 398 00ca 174B     		ldr	r3, .L16+72
 399 00cc 1B78     		ldrb	r3, [r3]
 400 00ce DBB2     		uxtb	r3, r3
 401 00d0 43F00303 		orr	r3, r3, #3
 402 00d4 DBB2     		uxtb	r3, r3
 403 00d6 1370     		strb	r3, [r2]
 264:Generated_Source\PSoC5/cyfitter_cfg.c **** }
 404              		.loc 1 264 0
 405 00d8 00BF     		nop
 406 00da 0837     		adds	r7, r7, #8
 407              		.cfi_def_cfa_offset 8
 408 00dc BD46     		mov	sp, r7
 409              		.cfi_def_cfa_register 13
 410              		@ sp needed
 411 00de 80BD     		pop	{r7, pc}
 412              	.L17:
 413              		.align	2
 414              	.L16:
ARM GAS  C:\Users\HPz420\AppData\Local\Temp\cc03uF4X.s 			page 13


 415 00e0 80400040 		.word	1073758336
 416 00e4 82400040 		.word	1073758338
 417 00e8 84400040 		.word	1073758340
 418 00ec 86400040 		.word	1073758342
 419 00f0 00000000 		.word	BS_CYDEV_CLKDIST_ACFG0_CFG0_VAL.5023
 420 00f4 00410040 		.word	1073758464
 421 00f8 00430040 		.word	1073758976
 422 00fc 00420040 		.word	1073758720
 423 0100 A1460040 		.word	1073759905
 424 0104 0F010049 		.word	1224737039
 425 0108 22420040 		.word	1073758754
 426 010c 20420040 		.word	1073758752
 427 0110 25420040 		.word	1073758757
 428 0114 04400040 		.word	1073758212
 429 0118 06400040 		.word	1073758214
 430 011c 08400040 		.word	1073758216
 431 0120 09400040 		.word	1073758217
 432 0124 01400040 		.word	1073758209
 433 0128 A2430040 		.word	1073759138
 434              		.cfi_endproc
 435              	.LFE5:
 436              		.size	ClockSetup, .-ClockSetup
 437              		.section	.text.AnalogSetDefault,"ax",%progbits
 438              		.align	2
 439              		.thumb
 440              		.thumb_func
 441              		.type	AnalogSetDefault, %function
 442              	AnalogSetDefault:
 443              	.LFB6:
 265:Generated_Source\PSoC5/cyfitter_cfg.c **** 
 266:Generated_Source\PSoC5/cyfitter_cfg.c **** 
 267:Generated_Source\PSoC5/cyfitter_cfg.c **** /* Analog API Functions */
 268:Generated_Source\PSoC5/cyfitter_cfg.c **** 
 269:Generated_Source\PSoC5/cyfitter_cfg.c **** 
 270:Generated_Source\PSoC5/cyfitter_cfg.c **** /*******************************************************************************
 271:Generated_Source\PSoC5/cyfitter_cfg.c **** * Function Name: AnalogSetDefault
 272:Generated_Source\PSoC5/cyfitter_cfg.c **** ********************************************************************************
 273:Generated_Source\PSoC5/cyfitter_cfg.c **** *
 274:Generated_Source\PSoC5/cyfitter_cfg.c **** * Summary:
 275:Generated_Source\PSoC5/cyfitter_cfg.c **** *  Sets up the analog portions of the chip to default values based on chip
 276:Generated_Source\PSoC5/cyfitter_cfg.c **** *  configuration options from the project.
 277:Generated_Source\PSoC5/cyfitter_cfg.c **** *
 278:Generated_Source\PSoC5/cyfitter_cfg.c **** * Parameters:
 279:Generated_Source\PSoC5/cyfitter_cfg.c **** *  void
 280:Generated_Source\PSoC5/cyfitter_cfg.c **** *
 281:Generated_Source\PSoC5/cyfitter_cfg.c **** * Return:
 282:Generated_Source\PSoC5/cyfitter_cfg.c **** *  void
 283:Generated_Source\PSoC5/cyfitter_cfg.c **** *
 284:Generated_Source\PSoC5/cyfitter_cfg.c **** *******************************************************************************/
 285:Generated_Source\PSoC5/cyfitter_cfg.c **** static void AnalogSetDefault(void);
 286:Generated_Source\PSoC5/cyfitter_cfg.c **** static void AnalogSetDefault(void)
 287:Generated_Source\PSoC5/cyfitter_cfg.c **** {
 444              		.loc 1 287 0
 445              		.cfi_startproc
 446              		@ args = 0, pretend = 0, frame = 8
 447              		@ frame_needed = 1, uses_anonymous_args = 0
 448              		@ link register save eliminated.
ARM GAS  C:\Users\HPz420\AppData\Local\Temp\cc03uF4X.s 			page 14


 449 0000 80B4     		push	{r7}
 450              		.cfi_def_cfa_offset 4
 451              		.cfi_offset 7, -4
 452 0002 83B0     		sub	sp, sp, #12
 453              		.cfi_def_cfa_offset 16
 454 0004 00AF     		add	r7, sp, #0
 455              		.cfi_def_cfa_register 7
 288:Generated_Source\PSoC5/cyfitter_cfg.c **** 	uint8 bg_xover_inl_trim = CY_GET_XTND_REG8((void CYFAR *)(CYREG_FLSHID_MFG_CFG_BG_XOVER_INL_TRIM +
 456              		.loc 1 288 0
 457 0006 0B4B     		ldr	r3, .L19
 458 0008 1B78     		ldrb	r3, [r3]
 459 000a FB71     		strb	r3, [r7, #7]
 289:Generated_Source\PSoC5/cyfitter_cfg.c **** 	CY_SET_XTND_REG8((void CYFAR *)(CYREG_BG_DFT0), (bg_xover_inl_trim & 0x07u));
 460              		.loc 1 289 0
 461 000c 0A4A     		ldr	r2, .L19+4
 462 000e FB79     		ldrb	r3, [r7, #7]
 463 0010 03F00703 		and	r3, r3, #7
 464 0014 DBB2     		uxtb	r3, r3
 465 0016 1370     		strb	r3, [r2]
 290:Generated_Source\PSoC5/cyfitter_cfg.c **** 	CY_SET_XTND_REG8((void CYFAR *)(CYREG_BG_DFT1), ((bg_xover_inl_trim >> 4) & 0x0Fu));
 466              		.loc 1 290 0
 467 0018 084A     		ldr	r2, .L19+8
 468 001a FB79     		ldrb	r3, [r7, #7]	@ zero_extendqisi2
 469 001c 1B09     		lsrs	r3, r3, #4
 470 001e DBB2     		uxtb	r3, r3
 471 0020 1370     		strb	r3, [r2]
 291:Generated_Source\PSoC5/cyfitter_cfg.c **** 	CY_SET_XTND_REG8((void CYFAR *)CYREG_PUMP_CR0, 0x44u);
 472              		.loc 1 291 0
 473 0022 074B     		ldr	r3, .L19+12
 474 0024 4422     		movs	r2, #68
 475 0026 1A70     		strb	r2, [r3]
 292:Generated_Source\PSoC5/cyfitter_cfg.c **** }
 476              		.loc 1 292 0
 477 0028 00BF     		nop
 478 002a 0C37     		adds	r7, r7, #12
 479              		.cfi_def_cfa_offset 4
 480 002c BD46     		mov	sp, r7
 481              		.cfi_def_cfa_register 13
 482              		@ sp needed
 483 002e 80BC     		pop	{r7}
 484              		.cfi_restore 7
 485              		.cfi_def_cfa_offset 0
 486 0030 7047     		bx	lr
 487              	.L20:
 488 0032 00BF     		.align	2
 489              	.L19:
 490 0034 CF010049 		.word	1224737231
 491 0038 6E580040 		.word	1073764462
 492 003c 6F580040 		.word	1073764463
 493 0040 76580040 		.word	1073764470
 494              		.cfi_endproc
 495              	.LFE6:
 496              		.size	AnalogSetDefault, .-AnalogSetDefault
 497              		.section	.text.SetAnalogRoutingPumps,"ax",%progbits
 498              		.align	2
 499              		.global	SetAnalogRoutingPumps
 500              		.thumb
ARM GAS  C:\Users\HPz420\AppData\Local\Temp\cc03uF4X.s 			page 15


 501              		.thumb_func
 502              		.type	SetAnalogRoutingPumps, %function
 503              	SetAnalogRoutingPumps:
 504              	.LFB7:
 293:Generated_Source\PSoC5/cyfitter_cfg.c **** 
 294:Generated_Source\PSoC5/cyfitter_cfg.c **** 
 295:Generated_Source\PSoC5/cyfitter_cfg.c **** /*******************************************************************************
 296:Generated_Source\PSoC5/cyfitter_cfg.c **** * Function Name: SetAnalogRoutingPumps
 297:Generated_Source\PSoC5/cyfitter_cfg.c **** ********************************************************************************
 298:Generated_Source\PSoC5/cyfitter_cfg.c **** *
 299:Generated_Source\PSoC5/cyfitter_cfg.c **** * Summary:
 300:Generated_Source\PSoC5/cyfitter_cfg.c **** * Enables or disables the analog pumps feeding analog routing switches.
 301:Generated_Source\PSoC5/cyfitter_cfg.c **** * Intended to be called at startup, based on the Vdda system configuration;
 302:Generated_Source\PSoC5/cyfitter_cfg.c **** * may be called during operation when the user informs us that the Vdda voltage
 303:Generated_Source\PSoC5/cyfitter_cfg.c **** * crossed the pump threshold.
 304:Generated_Source\PSoC5/cyfitter_cfg.c **** *
 305:Generated_Source\PSoC5/cyfitter_cfg.c **** * Parameters:
 306:Generated_Source\PSoC5/cyfitter_cfg.c **** *  enabled - 1 to enable the pumps, 0 to disable the pumps
 307:Generated_Source\PSoC5/cyfitter_cfg.c **** *
 308:Generated_Source\PSoC5/cyfitter_cfg.c **** * Return:
 309:Generated_Source\PSoC5/cyfitter_cfg.c **** *  void
 310:Generated_Source\PSoC5/cyfitter_cfg.c **** *
 311:Generated_Source\PSoC5/cyfitter_cfg.c **** *******************************************************************************/
 312:Generated_Source\PSoC5/cyfitter_cfg.c **** void SetAnalogRoutingPumps(uint8 enabled)
 313:Generated_Source\PSoC5/cyfitter_cfg.c **** {
 505              		.loc 1 313 0
 506              		.cfi_startproc
 507              		@ args = 0, pretend = 0, frame = 16
 508              		@ frame_needed = 1, uses_anonymous_args = 0
 509              		@ link register save eliminated.
 510 0000 80B4     		push	{r7}
 511              		.cfi_def_cfa_offset 4
 512              		.cfi_offset 7, -4
 513 0002 85B0     		sub	sp, sp, #20
 514              		.cfi_def_cfa_offset 24
 515 0004 00AF     		add	r7, sp, #0
 516              		.cfi_def_cfa_register 7
 517 0006 0346     		mov	r3, r0
 518 0008 FB71     		strb	r3, [r7, #7]
 314:Generated_Source\PSoC5/cyfitter_cfg.c **** 	uint8 regValue = CY_GET_XTND_REG8((void CYFAR *)CYREG_PUMP_CR0);
 519              		.loc 1 314 0
 520 000a 064B     		ldr	r3, .L24
 521 000c 1B78     		ldrb	r3, [r3]
 522 000e FB73     		strb	r3, [r7, #15]
 315:Generated_Source\PSoC5/cyfitter_cfg.c **** 	if (enabled != 0u)
 523              		.loc 1 315 0
 524 0010 FB79     		ldrb	r3, [r7, #7]	@ zero_extendqisi2
 525 0012 002B     		cmp	r3, #0
 316:Generated_Source\PSoC5/cyfitter_cfg.c **** 	{
 317:Generated_Source\PSoC5/cyfitter_cfg.c **** 		regValue |= 0x00u;
 318:Generated_Source\PSoC5/cyfitter_cfg.c **** 	}
 319:Generated_Source\PSoC5/cyfitter_cfg.c **** 	else
 320:Generated_Source\PSoC5/cyfitter_cfg.c **** 	{
 321:Generated_Source\PSoC5/cyfitter_cfg.c **** 		regValue &= (uint8)~0x00u;
 322:Generated_Source\PSoC5/cyfitter_cfg.c **** 	}
 323:Generated_Source\PSoC5/cyfitter_cfg.c **** 	CY_SET_XTND_REG8((void CYFAR *)CYREG_PUMP_CR0, regValue);
 526              		.loc 1 323 0
ARM GAS  C:\Users\HPz420\AppData\Local\Temp\cc03uF4X.s 			page 16


 527 0014 034A     		ldr	r2, .L24
 528 0016 FB7B     		ldrb	r3, [r7, #15]
 529 0018 1370     		strb	r3, [r2]
 324:Generated_Source\PSoC5/cyfitter_cfg.c **** }
 530              		.loc 1 324 0
 531 001a 00BF     		nop
 532 001c 1437     		adds	r7, r7, #20
 533              		.cfi_def_cfa_offset 4
 534 001e BD46     		mov	sp, r7
 535              		.cfi_def_cfa_register 13
 536              		@ sp needed
 537 0020 80BC     		pop	{r7}
 538              		.cfi_restore 7
 539              		.cfi_def_cfa_offset 0
 540 0022 7047     		bx	lr
 541              	.L25:
 542              		.align	2
 543              	.L24:
 544 0024 76580040 		.word	1073764470
 545              		.cfi_endproc
 546              	.LFE7:
 547              		.size	SetAnalogRoutingPumps, .-SetAnalogRoutingPumps
 548              		.section	.text.cyfitter_cfg,"ax",%progbits
 549              		.align	2
 550              		.global	cyfitter_cfg
 551              		.thumb
 552              		.thumb_func
 553              		.type	cyfitter_cfg, %function
 554              	cyfitter_cfg:
 555              	.LFB8:
 325:Generated_Source\PSoC5/cyfitter_cfg.c **** 
 326:Generated_Source\PSoC5/cyfitter_cfg.c **** 
 327:Generated_Source\PSoC5/cyfitter_cfg.c **** 
 328:Generated_Source\PSoC5/cyfitter_cfg.c **** 
 329:Generated_Source\PSoC5/cyfitter_cfg.c **** /*******************************************************************************
 330:Generated_Source\PSoC5/cyfitter_cfg.c **** * Function Name: cyfitter_cfg
 331:Generated_Source\PSoC5/cyfitter_cfg.c **** ********************************************************************************
 332:Generated_Source\PSoC5/cyfitter_cfg.c **** * Summary:
 333:Generated_Source\PSoC5/cyfitter_cfg.c **** *  This function is called by the start-up code for the selected device. It
 334:Generated_Source\PSoC5/cyfitter_cfg.c **** *  performs all of the necessary device configuration based on the design
 335:Generated_Source\PSoC5/cyfitter_cfg.c **** *  settings.  This includes settings from the Design Wide Resources (DWR) such
 336:Generated_Source\PSoC5/cyfitter_cfg.c **** *  as Clocks and Pins as well as any component configuration that is necessary.
 337:Generated_Source\PSoC5/cyfitter_cfg.c **** *
 338:Generated_Source\PSoC5/cyfitter_cfg.c **** * Parameters:
 339:Generated_Source\PSoC5/cyfitter_cfg.c **** *   void
 340:Generated_Source\PSoC5/cyfitter_cfg.c **** *
 341:Generated_Source\PSoC5/cyfitter_cfg.c **** * Return:
 342:Generated_Source\PSoC5/cyfitter_cfg.c **** *   void
 343:Generated_Source\PSoC5/cyfitter_cfg.c **** *
 344:Generated_Source\PSoC5/cyfitter_cfg.c **** *******************************************************************************/
 345:Generated_Source\PSoC5/cyfitter_cfg.c **** 
 346:Generated_Source\PSoC5/cyfitter_cfg.c **** void cyfitter_cfg(void)
 347:Generated_Source\PSoC5/cyfitter_cfg.c **** {
 556              		.loc 1 347 0
 557              		.cfi_startproc
 558              		@ args = 0, pretend = 0, frame = 8
 559              		@ frame_needed = 1, uses_anonymous_args = 0
ARM GAS  C:\Users\HPz420\AppData\Local\Temp\cc03uF4X.s 			page 17


 560 0000 80B5     		push	{r7, lr}
 561              		.cfi_def_cfa_offset 8
 562              		.cfi_offset 7, -8
 563              		.cfi_offset 14, -4
 564 0002 82B0     		sub	sp, sp, #8
 565              		.cfi_def_cfa_offset 16
 566 0004 00AF     		add	r7, sp, #0
 567              		.cfi_def_cfa_register 7
 348:Generated_Source\PSoC5/cyfitter_cfg.c **** 	/* IOPINS0_0 Address: CYREG_PRT0_DM0 Size (bytes): 8 */
 349:Generated_Source\PSoC5/cyfitter_cfg.c **** 	static const uint8 CYCODE BS_IOPINS0_0_VAL[] = {
 350:Generated_Source\PSoC5/cyfitter_cfg.c **** 		0x00u, 0x03u, 0x03u, 0x00u, 0x00u, 0x00u, 0x00u, 0x00u};
 351:Generated_Source\PSoC5/cyfitter_cfg.c **** 
 352:Generated_Source\PSoC5/cyfitter_cfg.c **** 	/* IOPINS0_7 Address: CYREG_PRT12_DR Size (bytes): 10 */
 353:Generated_Source\PSoC5/cyfitter_cfg.c **** 	static const uint8 CYCODE BS_IOPINS0_7_VAL[] = {
 354:Generated_Source\PSoC5/cyfitter_cfg.c **** 		0x33u, 0x00u, 0x00u, 0xC0u, 0xF3u, 0x00u, 0x33u, 0x00u, 0x00u, 0x00u};
 355:Generated_Source\PSoC5/cyfitter_cfg.c **** 
 356:Generated_Source\PSoC5/cyfitter_cfg.c **** 	/* IOPINS0_8 Address: CYREG_PRT15_DR Size (bytes): 10 */
 357:Generated_Source\PSoC5/cyfitter_cfg.c **** 	static const uint8 CYCODE BS_IOPINS0_8_VAL[] = {
 358:Generated_Source\PSoC5/cyfitter_cfg.c **** 		0x40u, 0x00u, 0x00u, 0x00u, 0x00u, 0x00u, 0x00u, 0x00u, 0xC0u, 0x00u};
 359:Generated_Source\PSoC5/cyfitter_cfg.c **** 
 360:Generated_Source\PSoC5/cyfitter_cfg.c **** 	/* IOPINS0_1 Address: CYREG_PRT1_DM0 Size (bytes): 8 */
 361:Generated_Source\PSoC5/cyfitter_cfg.c **** 	static const uint8 CYCODE BS_IOPINS0_1_VAL[] = {
 362:Generated_Source\PSoC5/cyfitter_cfg.c **** 		0x00u, 0xFFu, 0xFFu, 0x00u, 0x00u, 0x00u, 0x00u, 0x00u};
 363:Generated_Source\PSoC5/cyfitter_cfg.c **** 
 364:Generated_Source\PSoC5/cyfitter_cfg.c **** 	/* IOPINS0_2 Address: CYREG_PRT2_DM0 Size (bytes): 8 */
 365:Generated_Source\PSoC5/cyfitter_cfg.c **** 	static const uint8 CYCODE BS_IOPINS0_2_VAL[] = {
 366:Generated_Source\PSoC5/cyfitter_cfg.c **** 		0x00u, 0xFFu, 0xFFu, 0x00u, 0x00u, 0x00u, 0x00u, 0x00u};
 367:Generated_Source\PSoC5/cyfitter_cfg.c **** 
 368:Generated_Source\PSoC5/cyfitter_cfg.c **** 	/* IOPINS0_5 Address: CYREG_PRT5_DM0 Size (bytes): 8 */
 369:Generated_Source\PSoC5/cyfitter_cfg.c **** 	static const uint8 CYCODE BS_IOPINS0_5_VAL[] = {
 370:Generated_Source\PSoC5/cyfitter_cfg.c **** 		0x00u, 0xF1u, 0xF1u, 0x00u, 0x10u, 0x00u, 0x00u, 0x00u};
 371:Generated_Source\PSoC5/cyfitter_cfg.c **** 
 372:Generated_Source\PSoC5/cyfitter_cfg.c **** 	/* IOPINS0_6 Address: CYREG_PRT6_DM0 Size (bytes): 8 */
 373:Generated_Source\PSoC5/cyfitter_cfg.c **** 	static const uint8 CYCODE BS_IOPINS0_6_VAL[] = {
 374:Generated_Source\PSoC5/cyfitter_cfg.c **** 		0x30u, 0xC0u, 0xC0u, 0x00u, 0x00u, 0x00u, 0x00u, 0x00u};
 375:Generated_Source\PSoC5/cyfitter_cfg.c **** 
 376:Generated_Source\PSoC5/cyfitter_cfg.c **** #ifdef CYGlobalIntDisable
 377:Generated_Source\PSoC5/cyfitter_cfg.c **** 	/* Disable interrupts by default. Let user enable if/when they want. */
 378:Generated_Source\PSoC5/cyfitter_cfg.c **** 	CYGlobalIntDisable
 568              		.loc 1 378 0
 569              		.syntax unified
 570              	@ 378 "Generated_Source\PSoC5\cyfitter_cfg.c" 1
 571 0006 72B6     		CPSID   i
 572              	@ 0 "" 2
 379:Generated_Source\PSoC5/cyfitter_cfg.c **** #endif
 380:Generated_Source\PSoC5/cyfitter_cfg.c **** 
 381:Generated_Source\PSoC5/cyfitter_cfg.c **** 
 382:Generated_Source\PSoC5/cyfitter_cfg.c **** 	/* Set Flash Cycles based on max possible frequency in case a glitch occurs during ClockSetup(). *
 383:Generated_Source\PSoC5/cyfitter_cfg.c **** 	CY_SET_XTND_REG8((void CYFAR *)(CYREG_CACHE_CC_CTL), (((CYDEV_INSTRUCT_CACHE_ENABLED) != 0) ? 0x61
 573              		.loc 1 383 0
 574              		.thumb
 575              		.syntax unified
 576 0008 3D4B     		ldr	r3, .L29
 577 000a 6022     		movs	r2, #96
 578 000c 1A70     		strb	r2, [r3]
 384:Generated_Source\PSoC5/cyfitter_cfg.c **** 	/* Setup clocks based on selections from Clock DWR */
 385:Generated_Source\PSoC5/cyfitter_cfg.c **** 	ClockSetup();
ARM GAS  C:\Users\HPz420\AppData\Local\Temp\cc03uF4X.s 			page 18


 579              		.loc 1 385 0
 580 000e FFF7FEFF 		bl	ClockSetup
 386:Generated_Source\PSoC5/cyfitter_cfg.c **** 	/* Set Flash Cycles based on newly configured 64.00MHz Bus Clock. */
 387:Generated_Source\PSoC5/cyfitter_cfg.c **** 	CY_SET_XTND_REG8((void CYFAR *)(CYREG_CACHE_CC_CTL), (((CYDEV_INSTRUCT_CACHE_ENABLED) != 0) ? 0x01
 581              		.loc 1 387 0
 582 0012 3B4B     		ldr	r3, .L29
 583 0014 0022     		movs	r2, #0
 584 0016 1A70     		strb	r2, [r3]
 585              	.LBB3:
 388:Generated_Source\PSoC5/cyfitter_cfg.c **** 	{
 389:Generated_Source\PSoC5/cyfitter_cfg.c **** 		static const uint32 CYCODE cy_cfg_addr_table[] = {
 390:Generated_Source\PSoC5/cyfitter_cfg.c **** 			0x40004501u, /* Base address: 0x40004500 Count: 1 */
 391:Generated_Source\PSoC5/cyfitter_cfg.c **** 			0x40005205u, /* Base address: 0x40005200 Count: 5 */
 392:Generated_Source\PSoC5/cyfitter_cfg.c **** 			0x40006401u, /* Base address: 0x40006400 Count: 1 */
 393:Generated_Source\PSoC5/cyfitter_cfg.c **** 			0x40006502u, /* Base address: 0x40006500 Count: 2 */
 394:Generated_Source\PSoC5/cyfitter_cfg.c **** 			0x40010102u, /* Base address: 0x40010100 Count: 2 */
 395:Generated_Source\PSoC5/cyfitter_cfg.c **** 			0x40010301u, /* Base address: 0x40010300 Count: 1 */
 396:Generated_Source\PSoC5/cyfitter_cfg.c **** 			0x40010453u, /* Base address: 0x40010400 Count: 83 */
 397:Generated_Source\PSoC5/cyfitter_cfg.c **** 			0x40010533u, /* Base address: 0x40010500 Count: 51 */
 398:Generated_Source\PSoC5/cyfitter_cfg.c **** 			0x40010655u, /* Base address: 0x40010600 Count: 85 */
 399:Generated_Source\PSoC5/cyfitter_cfg.c **** 			0x40010745u, /* Base address: 0x40010700 Count: 69 */
 400:Generated_Source\PSoC5/cyfitter_cfg.c **** 			0x40010902u, /* Base address: 0x40010900 Count: 2 */
 401:Generated_Source\PSoC5/cyfitter_cfg.c **** 			0x40011460u, /* Base address: 0x40011400 Count: 96 */
 402:Generated_Source\PSoC5/cyfitter_cfg.c **** 			0x40011549u, /* Base address: 0x40011500 Count: 73 */
 403:Generated_Source\PSoC5/cyfitter_cfg.c **** 			0x4001164Bu, /* Base address: 0x40011600 Count: 75 */
 404:Generated_Source\PSoC5/cyfitter_cfg.c **** 			0x40011745u, /* Base address: 0x40011700 Count: 69 */
 405:Generated_Source\PSoC5/cyfitter_cfg.c **** 			0x40011902u, /* Base address: 0x40011900 Count: 2 */
 406:Generated_Source\PSoC5/cyfitter_cfg.c **** 			0x40011B03u, /* Base address: 0x40011B00 Count: 3 */
 407:Generated_Source\PSoC5/cyfitter_cfg.c **** 			0x40014006u, /* Base address: 0x40014000 Count: 6 */
 408:Generated_Source\PSoC5/cyfitter_cfg.c **** 			0x40014103u, /* Base address: 0x40014100 Count: 3 */
 409:Generated_Source\PSoC5/cyfitter_cfg.c **** 			0x40014207u, /* Base address: 0x40014200 Count: 7 */
 410:Generated_Source\PSoC5/cyfitter_cfg.c **** 			0x4001430Au, /* Base address: 0x40014300 Count: 10 */
 411:Generated_Source\PSoC5/cyfitter_cfg.c **** 			0x40014403u, /* Base address: 0x40014400 Count: 3 */
 412:Generated_Source\PSoC5/cyfitter_cfg.c **** 			0x40014502u, /* Base address: 0x40014500 Count: 2 */
 413:Generated_Source\PSoC5/cyfitter_cfg.c **** 			0x40014602u, /* Base address: 0x40014600 Count: 2 */
 414:Generated_Source\PSoC5/cyfitter_cfg.c **** 			0x40014709u, /* Base address: 0x40014700 Count: 9 */
 415:Generated_Source\PSoC5/cyfitter_cfg.c **** 			0x40014806u, /* Base address: 0x40014800 Count: 6 */
 416:Generated_Source\PSoC5/cyfitter_cfg.c **** 			0x4001490Cu, /* Base address: 0x40014900 Count: 12 */
 417:Generated_Source\PSoC5/cyfitter_cfg.c **** 			0x40014C0Eu, /* Base address: 0x40014C00 Count: 14 */
 418:Generated_Source\PSoC5/cyfitter_cfg.c **** 			0x40014D0Cu, /* Base address: 0x40014D00 Count: 12 */
 419:Generated_Source\PSoC5/cyfitter_cfg.c **** 			0x40015008u, /* Base address: 0x40015000 Count: 8 */
 420:Generated_Source\PSoC5/cyfitter_cfg.c **** 			0x40015102u, /* Base address: 0x40015100 Count: 2 */
 421:Generated_Source\PSoC5/cyfitter_cfg.c **** 		};
 422:Generated_Source\PSoC5/cyfitter_cfg.c **** 
 423:Generated_Source\PSoC5/cyfitter_cfg.c **** 		static const cy_cfg_addrvalue_t CYCODE cy_cfg_data_table[] = {
 424:Generated_Source\PSoC5/cyfitter_cfg.c **** 			{0x7Eu, 0x02u},
 425:Generated_Source\PSoC5/cyfitter_cfg.c **** 			{0x28u, 0x10u},
 426:Generated_Source\PSoC5/cyfitter_cfg.c **** 			{0x29u, 0x10u},
 427:Generated_Source\PSoC5/cyfitter_cfg.c **** 			{0x60u, 0x22u},
 428:Generated_Source\PSoC5/cyfitter_cfg.c **** 			{0x61u, 0x32u},
 429:Generated_Source\PSoC5/cyfitter_cfg.c **** 			{0x7Cu, 0x40u},
 430:Generated_Source\PSoC5/cyfitter_cfg.c **** 			{0x27u, 0x04u},
 431:Generated_Source\PSoC5/cyfitter_cfg.c **** 			{0x24u, 0x0Fu},
 432:Generated_Source\PSoC5/cyfitter_cfg.c **** 			{0x34u, 0x08u},
 433:Generated_Source\PSoC5/cyfitter_cfg.c **** 			{0x89u, 0x02u},
 434:Generated_Source\PSoC5/cyfitter_cfg.c **** 			{0xE6u, 0x20u},
 435:Generated_Source\PSoC5/cyfitter_cfg.c **** 			{0xA5u, 0x02u},
ARM GAS  C:\Users\HPz420\AppData\Local\Temp\cc03uF4X.s 			page 19


 436:Generated_Source\PSoC5/cyfitter_cfg.c **** 			{0x03u, 0x01u},
 437:Generated_Source\PSoC5/cyfitter_cfg.c **** 			{0x04u, 0x01u},
 438:Generated_Source\PSoC5/cyfitter_cfg.c **** 			{0x06u, 0x06u},
 439:Generated_Source\PSoC5/cyfitter_cfg.c **** 			{0x0Cu, 0x89u},
 440:Generated_Source\PSoC5/cyfitter_cfg.c **** 			{0x0Eu, 0x44u},
 441:Generated_Source\PSoC5/cyfitter_cfg.c **** 			{0x10u, 0x10u},
 442:Generated_Source\PSoC5/cyfitter_cfg.c **** 			{0x12u, 0x2Bu},
 443:Generated_Source\PSoC5/cyfitter_cfg.c **** 			{0x14u, 0x08u},
 444:Generated_Source\PSoC5/cyfitter_cfg.c **** 			{0x16u, 0x70u},
 445:Generated_Source\PSoC5/cyfitter_cfg.c **** 			{0x18u, 0x1Bu},
 446:Generated_Source\PSoC5/cyfitter_cfg.c **** 			{0x1Au, 0x20u},
 447:Generated_Source\PSoC5/cyfitter_cfg.c **** 			{0x1Cu, 0x33u},
 448:Generated_Source\PSoC5/cyfitter_cfg.c **** 			{0x1Eu, 0x08u},
 449:Generated_Source\PSoC5/cyfitter_cfg.c **** 			{0x20u, 0x38u},
 450:Generated_Source\PSoC5/cyfitter_cfg.c **** 			{0x22u, 0x03u},
 451:Generated_Source\PSoC5/cyfitter_cfg.c **** 			{0x24u, 0x38u},
 452:Generated_Source\PSoC5/cyfitter_cfg.c **** 			{0x26u, 0x03u},
 453:Generated_Source\PSoC5/cyfitter_cfg.c **** 			{0x28u, 0x80u},
 454:Generated_Source\PSoC5/cyfitter_cfg.c **** 			{0x2Au, 0x03u},
 455:Generated_Source\PSoC5/cyfitter_cfg.c **** 			{0x2Cu, 0x02u},
 456:Generated_Source\PSoC5/cyfitter_cfg.c **** 			{0x2Eu, 0x01u},
 457:Generated_Source\PSoC5/cyfitter_cfg.c **** 			{0x30u, 0x80u},
 458:Generated_Source\PSoC5/cyfitter_cfg.c **** 			{0x32u, 0x78u},
 459:Generated_Source\PSoC5/cyfitter_cfg.c **** 			{0x33u, 0x01u},
 460:Generated_Source\PSoC5/cyfitter_cfg.c **** 			{0x34u, 0x07u},
 461:Generated_Source\PSoC5/cyfitter_cfg.c **** 			{0x38u, 0x02u},
 462:Generated_Source\PSoC5/cyfitter_cfg.c **** 			{0x3Au, 0x28u},
 463:Generated_Source\PSoC5/cyfitter_cfg.c **** 			{0x54u, 0x20u},
 464:Generated_Source\PSoC5/cyfitter_cfg.c **** 			{0x56u, 0x04u},
 465:Generated_Source\PSoC5/cyfitter_cfg.c **** 			{0x58u, 0x04u},
 466:Generated_Source\PSoC5/cyfitter_cfg.c **** 			{0x59u, 0x04u},
 467:Generated_Source\PSoC5/cyfitter_cfg.c **** 			{0x5Bu, 0x04u},
 468:Generated_Source\PSoC5/cyfitter_cfg.c **** 			{0x5Fu, 0x01u},
 469:Generated_Source\PSoC5/cyfitter_cfg.c **** 			{0x80u, 0xBAu},
 470:Generated_Source\PSoC5/cyfitter_cfg.c **** 			{0x81u, 0x1Fu},
 471:Generated_Source\PSoC5/cyfitter_cfg.c **** 			{0x82u, 0x04u},
 472:Generated_Source\PSoC5/cyfitter_cfg.c **** 			{0x84u, 0x01u},
 473:Generated_Source\PSoC5/cyfitter_cfg.c **** 			{0x85u, 0x90u},
 474:Generated_Source\PSoC5/cyfitter_cfg.c **** 			{0x87u, 0x0Bu},
 475:Generated_Source\PSoC5/cyfitter_cfg.c **** 			{0x88u, 0x01u},
 476:Generated_Source\PSoC5/cyfitter_cfg.c **** 			{0x89u, 0x03u},
 477:Generated_Source\PSoC5/cyfitter_cfg.c **** 			{0x8Bu, 0x20u},
 478:Generated_Source\PSoC5/cyfitter_cfg.c **** 			{0x8Cu, 0x03u},
 479:Generated_Source\PSoC5/cyfitter_cfg.c **** 			{0x8Du, 0x42u},
 480:Generated_Source\PSoC5/cyfitter_cfg.c **** 			{0x8Fu, 0x09u},
 481:Generated_Source\PSoC5/cyfitter_cfg.c **** 			{0x90u, 0xA2u},
 482:Generated_Source\PSoC5/cyfitter_cfg.c **** 			{0x91u, 0x40u},
 483:Generated_Source\PSoC5/cyfitter_cfg.c **** 			{0x92u, 0x05u},
 484:Generated_Source\PSoC5/cyfitter_cfg.c **** 			{0x93u, 0x14u},
 485:Generated_Source\PSoC5/cyfitter_cfg.c **** 			{0x94u, 0x01u},
 486:Generated_Source\PSoC5/cyfitter_cfg.c **** 			{0x95u, 0x48u},
 487:Generated_Source\PSoC5/cyfitter_cfg.c **** 			{0x97u, 0x02u},
 488:Generated_Source\PSoC5/cyfitter_cfg.c **** 			{0x98u, 0x88u},
 489:Generated_Source\PSoC5/cyfitter_cfg.c **** 			{0x9Au, 0x07u},
 490:Generated_Source\PSoC5/cyfitter_cfg.c **** 			{0x9Bu, 0x01u},
 491:Generated_Source\PSoC5/cyfitter_cfg.c **** 			{0x9Cu, 0x7Fu},
 492:Generated_Source\PSoC5/cyfitter_cfg.c **** 			{0x9Du, 0x40u},
ARM GAS  C:\Users\HPz420\AppData\Local\Temp\cc03uF4X.s 			page 20


 493:Generated_Source\PSoC5/cyfitter_cfg.c **** 			{0x9Fu, 0x0Bu},
 494:Generated_Source\PSoC5/cyfitter_cfg.c **** 			{0xA0u, 0x40u},
 495:Generated_Source\PSoC5/cyfitter_cfg.c **** 			{0xA1u, 0x01u},
 496:Generated_Source\PSoC5/cyfitter_cfg.c **** 			{0xA2u, 0x07u},
 497:Generated_Source\PSoC5/cyfitter_cfg.c **** 			{0xA4u, 0x85u},
 498:Generated_Source\PSoC5/cyfitter_cfg.c **** 			{0xA5u, 0x4Fu},
 499:Generated_Source\PSoC5/cyfitter_cfg.c **** 			{0xA6u, 0x78u},
 500:Generated_Source\PSoC5/cyfitter_cfg.c **** 			{0xA8u, 0x03u},
 501:Generated_Source\PSoC5/cyfitter_cfg.c **** 			{0xA9u, 0x01u},
 502:Generated_Source\PSoC5/cyfitter_cfg.c **** 			{0xACu, 0x90u},
 503:Generated_Source\PSoC5/cyfitter_cfg.c **** 			{0xADu, 0x03u},
 504:Generated_Source\PSoC5/cyfitter_cfg.c **** 			{0xAEu, 0x07u},
 505:Generated_Source\PSoC5/cyfitter_cfg.c **** 			{0xB2u, 0x7Fu},
 506:Generated_Source\PSoC5/cyfitter_cfg.c **** 			{0xB3u, 0xE0u},
 507:Generated_Source\PSoC5/cyfitter_cfg.c **** 			{0xB6u, 0x80u},
 508:Generated_Source\PSoC5/cyfitter_cfg.c **** 			{0xB7u, 0x1Fu},
 509:Generated_Source\PSoC5/cyfitter_cfg.c **** 			{0xB8u, 0x80u},
 510:Generated_Source\PSoC5/cyfitter_cfg.c **** 			{0xB9u, 0x08u},
 511:Generated_Source\PSoC5/cyfitter_cfg.c **** 			{0xBEu, 0x44u},
 512:Generated_Source\PSoC5/cyfitter_cfg.c **** 			{0xBFu, 0x04u},
 513:Generated_Source\PSoC5/cyfitter_cfg.c **** 			{0xD6u, 0x08u},
 514:Generated_Source\PSoC5/cyfitter_cfg.c **** 			{0xD8u, 0x04u},
 515:Generated_Source\PSoC5/cyfitter_cfg.c **** 			{0xD9u, 0x04u},
 516:Generated_Source\PSoC5/cyfitter_cfg.c **** 			{0xDBu, 0x04u},
 517:Generated_Source\PSoC5/cyfitter_cfg.c **** 			{0xDDu, 0x90u},
 518:Generated_Source\PSoC5/cyfitter_cfg.c **** 			{0xDFu, 0x01u},
 519:Generated_Source\PSoC5/cyfitter_cfg.c **** 			{0x02u, 0x02u},
 520:Generated_Source\PSoC5/cyfitter_cfg.c **** 			{0x03u, 0x20u},
 521:Generated_Source\PSoC5/cyfitter_cfg.c **** 			{0x04u, 0x02u},
 522:Generated_Source\PSoC5/cyfitter_cfg.c **** 			{0x05u, 0x80u},
 523:Generated_Source\PSoC5/cyfitter_cfg.c **** 			{0x07u, 0x18u},
 524:Generated_Source\PSoC5/cyfitter_cfg.c **** 			{0x08u, 0x58u},
 525:Generated_Source\PSoC5/cyfitter_cfg.c **** 			{0x0Au, 0x60u},
 526:Generated_Source\PSoC5/cyfitter_cfg.c **** 			{0x0Cu, 0x18u},
 527:Generated_Source\PSoC5/cyfitter_cfg.c **** 			{0x0Eu, 0x4Au},
 528:Generated_Source\PSoC5/cyfitter_cfg.c **** 			{0x0Fu, 0x02u},
 529:Generated_Source\PSoC5/cyfitter_cfg.c **** 			{0x10u, 0x05u},
 530:Generated_Source\PSoC5/cyfitter_cfg.c **** 			{0x11u, 0x04u},
 531:Generated_Source\PSoC5/cyfitter_cfg.c **** 			{0x13u, 0x02u},
 532:Generated_Source\PSoC5/cyfitter_cfg.c **** 			{0x15u, 0x16u},
 533:Generated_Source\PSoC5/cyfitter_cfg.c **** 			{0x17u, 0x40u},
 534:Generated_Source\PSoC5/cyfitter_cfg.c **** 			{0x19u, 0x22u},
 535:Generated_Source\PSoC5/cyfitter_cfg.c **** 			{0x1Au, 0x20u},
 536:Generated_Source\PSoC5/cyfitter_cfg.c **** 			{0x1Bu, 0x20u},
 537:Generated_Source\PSoC5/cyfitter_cfg.c **** 			{0x1Du, 0x84u},
 538:Generated_Source\PSoC5/cyfitter_cfg.c **** 			{0x22u, 0x08u},
 539:Generated_Source\PSoC5/cyfitter_cfg.c **** 			{0x24u, 0x02u},
 540:Generated_Source\PSoC5/cyfitter_cfg.c **** 			{0x25u, 0x08u},
 541:Generated_Source\PSoC5/cyfitter_cfg.c **** 			{0x27u, 0x03u},
 542:Generated_Source\PSoC5/cyfitter_cfg.c **** 			{0x2Cu, 0x08u},
 543:Generated_Source\PSoC5/cyfitter_cfg.c **** 			{0x2Du, 0x84u},
 544:Generated_Source\PSoC5/cyfitter_cfg.c **** 			{0x2Fu, 0x40u},
 545:Generated_Source\PSoC5/cyfitter_cfg.c **** 			{0x34u, 0x42u},
 546:Generated_Source\PSoC5/cyfitter_cfg.c **** 			{0x36u, 0x84u},
 547:Generated_Source\PSoC5/cyfitter_cfg.c **** 			{0x37u, 0x51u},
 548:Generated_Source\PSoC5/cyfitter_cfg.c **** 			{0x3Bu, 0x01u},
 549:Generated_Source\PSoC5/cyfitter_cfg.c **** 			{0x3Cu, 0x20u},
ARM GAS  C:\Users\HPz420\AppData\Local\Temp\cc03uF4X.s 			page 21


 550:Generated_Source\PSoC5/cyfitter_cfg.c **** 			{0x3Du, 0x10u},
 551:Generated_Source\PSoC5/cyfitter_cfg.c **** 			{0x3Eu, 0x48u},
 552:Generated_Source\PSoC5/cyfitter_cfg.c **** 			{0x3Fu, 0x02u},
 553:Generated_Source\PSoC5/cyfitter_cfg.c **** 			{0x58u, 0x08u},
 554:Generated_Source\PSoC5/cyfitter_cfg.c **** 			{0x59u, 0x21u},
 555:Generated_Source\PSoC5/cyfitter_cfg.c **** 			{0x5Bu, 0x80u},
 556:Generated_Source\PSoC5/cyfitter_cfg.c **** 			{0x5Fu, 0x40u},
 557:Generated_Source\PSoC5/cyfitter_cfg.c **** 			{0x60u, 0x04u},
 558:Generated_Source\PSoC5/cyfitter_cfg.c **** 			{0x61u, 0x82u},
 559:Generated_Source\PSoC5/cyfitter_cfg.c **** 			{0x64u, 0x01u},
 560:Generated_Source\PSoC5/cyfitter_cfg.c **** 			{0x67u, 0x01u},
 561:Generated_Source\PSoC5/cyfitter_cfg.c **** 			{0xA5u, 0x02u},
 562:Generated_Source\PSoC5/cyfitter_cfg.c **** 			{0xC0u, 0xF5u},
 563:Generated_Source\PSoC5/cyfitter_cfg.c **** 			{0xC2u, 0xFFu},
 564:Generated_Source\PSoC5/cyfitter_cfg.c **** 			{0xC4u, 0xFFu},
 565:Generated_Source\PSoC5/cyfitter_cfg.c **** 			{0xCAu, 0xF0u},
 566:Generated_Source\PSoC5/cyfitter_cfg.c **** 			{0xCCu, 0xF0u},
 567:Generated_Source\PSoC5/cyfitter_cfg.c **** 			{0xCEu, 0xF1u},
 568:Generated_Source\PSoC5/cyfitter_cfg.c **** 			{0xD6u, 0x1Fu},
 569:Generated_Source\PSoC5/cyfitter_cfg.c **** 			{0xD8u, 0x1Du},
 570:Generated_Source\PSoC5/cyfitter_cfg.c **** 			{0x02u, 0x01u},
 571:Generated_Source\PSoC5/cyfitter_cfg.c **** 			{0x03u, 0x02u},
 572:Generated_Source\PSoC5/cyfitter_cfg.c **** 			{0x04u, 0xA9u},
 573:Generated_Source\PSoC5/cyfitter_cfg.c **** 			{0x05u, 0x0Du},
 574:Generated_Source\PSoC5/cyfitter_cfg.c **** 			{0x06u, 0x54u},
 575:Generated_Source\PSoC5/cyfitter_cfg.c **** 			{0x08u, 0x04u},
 576:Generated_Source\PSoC5/cyfitter_cfg.c **** 			{0x09u, 0x01u},
 577:Generated_Source\PSoC5/cyfitter_cfg.c **** 			{0x0Cu, 0x02u},
 578:Generated_Source\PSoC5/cyfitter_cfg.c **** 			{0x0Du, 0x04u},
 579:Generated_Source\PSoC5/cyfitter_cfg.c **** 			{0x0Fu, 0xE0u},
 580:Generated_Source\PSoC5/cyfitter_cfg.c **** 			{0x10u, 0xA5u},
 581:Generated_Source\PSoC5/cyfitter_cfg.c **** 			{0x11u, 0xE2u},
 582:Generated_Source\PSoC5/cyfitter_cfg.c **** 			{0x12u, 0x4Au},
 583:Generated_Source\PSoC5/cyfitter_cfg.c **** 			{0x14u, 0x1Au},
 584:Generated_Source\PSoC5/cyfitter_cfg.c **** 			{0x15u, 0x01u},
 585:Generated_Source\PSoC5/cyfitter_cfg.c **** 			{0x16u, 0x60u},
 586:Generated_Source\PSoC5/cyfitter_cfg.c **** 			{0x18u, 0x4Du},
 587:Generated_Source\PSoC5/cyfitter_cfg.c **** 			{0x19u, 0x3Du},
 588:Generated_Source\PSoC5/cyfitter_cfg.c **** 			{0x1Au, 0x92u},
 589:Generated_Source\PSoC5/cyfitter_cfg.c **** 			{0x1Bu, 0xC2u},
 590:Generated_Source\PSoC5/cyfitter_cfg.c **** 			{0x1Cu, 0xFFu},
 591:Generated_Source\PSoC5/cyfitter_cfg.c **** 			{0x1Du, 0x92u},
 592:Generated_Source\PSoC5/cyfitter_cfg.c **** 			{0x1Fu, 0x60u},
 593:Generated_Source\PSoC5/cyfitter_cfg.c **** 			{0x20u, 0xCCu},
 594:Generated_Source\PSoC5/cyfitter_cfg.c **** 			{0x21u, 0x40u},
 595:Generated_Source\PSoC5/cyfitter_cfg.c **** 			{0x22u, 0x13u},
 596:Generated_Source\PSoC5/cyfitter_cfg.c **** 			{0x23u, 0x1Du},
 597:Generated_Source\PSoC5/cyfitter_cfg.c **** 			{0x26u, 0x02u},
 598:Generated_Source\PSoC5/cyfitter_cfg.c **** 			{0x27u, 0xFFu},
 599:Generated_Source\PSoC5/cyfitter_cfg.c **** 			{0x29u, 0x5Du},
 600:Generated_Source\PSoC5/cyfitter_cfg.c **** 			{0x2Au, 0xB5u},
 601:Generated_Source\PSoC5/cyfitter_cfg.c **** 			{0x2Bu, 0xA2u},
 602:Generated_Source\PSoC5/cyfitter_cfg.c **** 			{0x2Eu, 0x04u},
 603:Generated_Source\PSoC5/cyfitter_cfg.c **** 			{0x2Fu, 0x08u},
 604:Generated_Source\PSoC5/cyfitter_cfg.c **** 			{0x33u, 0xFFu},
 605:Generated_Source\PSoC5/cyfitter_cfg.c **** 			{0x36u, 0xFFu},
 606:Generated_Source\PSoC5/cyfitter_cfg.c **** 			{0x3Eu, 0x40u},
ARM GAS  C:\Users\HPz420\AppData\Local\Temp\cc03uF4X.s 			page 22


 607:Generated_Source\PSoC5/cyfitter_cfg.c **** 			{0x3Fu, 0x04u},
 608:Generated_Source\PSoC5/cyfitter_cfg.c **** 			{0x52u, 0xF6u},
 609:Generated_Source\PSoC5/cyfitter_cfg.c **** 			{0x58u, 0x04u},
 610:Generated_Source\PSoC5/cyfitter_cfg.c **** 			{0x59u, 0x04u},
 611:Generated_Source\PSoC5/cyfitter_cfg.c **** 			{0x5Bu, 0x04u},
 612:Generated_Source\PSoC5/cyfitter_cfg.c **** 			{0x5Fu, 0x01u},
 613:Generated_Source\PSoC5/cyfitter_cfg.c **** 			{0x80u, 0x02u},
 614:Generated_Source\PSoC5/cyfitter_cfg.c **** 			{0x82u, 0x3Cu},
 615:Generated_Source\PSoC5/cyfitter_cfg.c **** 			{0x84u, 0x02u},
 616:Generated_Source\PSoC5/cyfitter_cfg.c **** 			{0x88u, 0x3Fu},
 617:Generated_Source\PSoC5/cyfitter_cfg.c **** 			{0x8Cu, 0x0Cu},
 618:Generated_Source\PSoC5/cyfitter_cfg.c **** 			{0x8Eu, 0x01u},
 619:Generated_Source\PSoC5/cyfitter_cfg.c **** 			{0x90u, 0x04u},
 620:Generated_Source\PSoC5/cyfitter_cfg.c **** 			{0x92u, 0x30u},
 621:Generated_Source\PSoC5/cyfitter_cfg.c **** 			{0x94u, 0x01u},
 622:Generated_Source\PSoC5/cyfitter_cfg.c **** 			{0x98u, 0x14u},
 623:Generated_Source\PSoC5/cyfitter_cfg.c **** 			{0x9Au, 0x20u},
 624:Generated_Source\PSoC5/cyfitter_cfg.c **** 			{0x9Cu, 0x24u},
 625:Generated_Source\PSoC5/cyfitter_cfg.c **** 			{0x9Eu, 0x10u},
 626:Generated_Source\PSoC5/cyfitter_cfg.c **** 			{0xA0u, 0x30u},
 627:Generated_Source\PSoC5/cyfitter_cfg.c **** 			{0xA2u, 0x0Cu},
 628:Generated_Source\PSoC5/cyfitter_cfg.c **** 			{0xA4u, 0x08u},
 629:Generated_Source\PSoC5/cyfitter_cfg.c **** 			{0xA8u, 0x38u},
 630:Generated_Source\PSoC5/cyfitter_cfg.c **** 			{0xAAu, 0x04u},
 631:Generated_Source\PSoC5/cyfitter_cfg.c **** 			{0xACu, 0x04u},
 632:Generated_Source\PSoC5/cyfitter_cfg.c **** 			{0xB4u, 0x3Eu},
 633:Generated_Source\PSoC5/cyfitter_cfg.c **** 			{0xB6u, 0x01u},
 634:Generated_Source\PSoC5/cyfitter_cfg.c **** 			{0xB8u, 0x20u},
 635:Generated_Source\PSoC5/cyfitter_cfg.c **** 			{0xC0u, 0x31u},
 636:Generated_Source\PSoC5/cyfitter_cfg.c **** 			{0xC4u, 0x06u},
 637:Generated_Source\PSoC5/cyfitter_cfg.c **** 			{0xC5u, 0x0Du},
 638:Generated_Source\PSoC5/cyfitter_cfg.c **** 			{0xC6u, 0xB0u},
 639:Generated_Source\PSoC5/cyfitter_cfg.c **** 			{0xC8u, 0x09u},
 640:Generated_Source\PSoC5/cyfitter_cfg.c **** 			{0xC9u, 0xFFu},
 641:Generated_Source\PSoC5/cyfitter_cfg.c **** 			{0xCAu, 0x7Fu},
 642:Generated_Source\PSoC5/cyfitter_cfg.c **** 			{0xCBu, 0xFFu},
 643:Generated_Source\PSoC5/cyfitter_cfg.c **** 			{0xCCu, 0x42u},
 644:Generated_Source\PSoC5/cyfitter_cfg.c **** 			{0xCDu, 0xA0u},
 645:Generated_Source\PSoC5/cyfitter_cfg.c **** 			{0xCEu, 0x70u},
 646:Generated_Source\PSoC5/cyfitter_cfg.c **** 			{0xD0u, 0x0Cu},
 647:Generated_Source\PSoC5/cyfitter_cfg.c **** 			{0xD8u, 0x04u},
 648:Generated_Source\PSoC5/cyfitter_cfg.c **** 			{0xDAu, 0x04u},
 649:Generated_Source\PSoC5/cyfitter_cfg.c **** 			{0xDFu, 0x01u},
 650:Generated_Source\PSoC5/cyfitter_cfg.c **** 			{0xE1u, 0x09u},
 651:Generated_Source\PSoC5/cyfitter_cfg.c **** 			{0xE2u, 0x40u},
 652:Generated_Source\PSoC5/cyfitter_cfg.c **** 			{0xE3u, 0x09u},
 653:Generated_Source\PSoC5/cyfitter_cfg.c **** 			{0xE4u, 0x30u},
 654:Generated_Source\PSoC5/cyfitter_cfg.c **** 			{0xE5u, 0x09u},
 655:Generated_Source\PSoC5/cyfitter_cfg.c **** 			{0x01u, 0x82u},
 656:Generated_Source\PSoC5/cyfitter_cfg.c **** 			{0x03u, 0x28u},
 657:Generated_Source\PSoC5/cyfitter_cfg.c **** 			{0x04u, 0x08u},
 658:Generated_Source\PSoC5/cyfitter_cfg.c **** 			{0x05u, 0x80u},
 659:Generated_Source\PSoC5/cyfitter_cfg.c **** 			{0x07u, 0x48u},
 660:Generated_Source\PSoC5/cyfitter_cfg.c **** 			{0x08u, 0x40u},
 661:Generated_Source\PSoC5/cyfitter_cfg.c **** 			{0x09u, 0x28u},
 662:Generated_Source\PSoC5/cyfitter_cfg.c **** 			{0x0Au, 0x40u},
 663:Generated_Source\PSoC5/cyfitter_cfg.c **** 			{0x0Eu, 0x6Au},
ARM GAS  C:\Users\HPz420\AppData\Local\Temp\cc03uF4X.s 			page 23


 664:Generated_Source\PSoC5/cyfitter_cfg.c **** 			{0x10u, 0x20u},
 665:Generated_Source\PSoC5/cyfitter_cfg.c **** 			{0x12u, 0x01u},
 666:Generated_Source\PSoC5/cyfitter_cfg.c **** 			{0x13u, 0x22u},
 667:Generated_Source\PSoC5/cyfitter_cfg.c **** 			{0x14u, 0x44u},
 668:Generated_Source\PSoC5/cyfitter_cfg.c **** 			{0x15u, 0x02u},
 669:Generated_Source\PSoC5/cyfitter_cfg.c **** 			{0x16u, 0x2Au},
 670:Generated_Source\PSoC5/cyfitter_cfg.c **** 			{0x19u, 0x80u},
 671:Generated_Source\PSoC5/cyfitter_cfg.c **** 			{0x1Bu, 0x20u},
 672:Generated_Source\PSoC5/cyfitter_cfg.c **** 			{0x1Fu, 0x80u},
 673:Generated_Source\PSoC5/cyfitter_cfg.c **** 			{0x24u, 0x20u},
 674:Generated_Source\PSoC5/cyfitter_cfg.c **** 			{0x2Du, 0xA1u},
 675:Generated_Source\PSoC5/cyfitter_cfg.c **** 			{0x2Eu, 0x08u},
 676:Generated_Source\PSoC5/cyfitter_cfg.c **** 			{0x36u, 0x93u},
 677:Generated_Source\PSoC5/cyfitter_cfg.c **** 			{0x37u, 0x28u},
 678:Generated_Source\PSoC5/cyfitter_cfg.c **** 			{0x3Eu, 0x62u},
 679:Generated_Source\PSoC5/cyfitter_cfg.c **** 			{0x3Fu, 0x04u},
 680:Generated_Source\PSoC5/cyfitter_cfg.c **** 			{0x41u, 0x48u},
 681:Generated_Source\PSoC5/cyfitter_cfg.c **** 			{0x48u, 0x10u},
 682:Generated_Source\PSoC5/cyfitter_cfg.c **** 			{0x4Au, 0x08u},
 683:Generated_Source\PSoC5/cyfitter_cfg.c **** 			{0x4Bu, 0x04u},
 684:Generated_Source\PSoC5/cyfitter_cfg.c **** 			{0x50u, 0x20u},
 685:Generated_Source\PSoC5/cyfitter_cfg.c **** 			{0x6Fu, 0x14u},
 686:Generated_Source\PSoC5/cyfitter_cfg.c **** 			{0x74u, 0x08u},
 687:Generated_Source\PSoC5/cyfitter_cfg.c **** 			{0x76u, 0x23u},
 688:Generated_Source\PSoC5/cyfitter_cfg.c **** 			{0x77u, 0x48u},
 689:Generated_Source\PSoC5/cyfitter_cfg.c **** 			{0x80u, 0x04u},
 690:Generated_Source\PSoC5/cyfitter_cfg.c **** 			{0x81u, 0x20u},
 691:Generated_Source\PSoC5/cyfitter_cfg.c **** 			{0x83u, 0x02u},
 692:Generated_Source\PSoC5/cyfitter_cfg.c **** 			{0x8Fu, 0x20u},
 693:Generated_Source\PSoC5/cyfitter_cfg.c **** 			{0x94u, 0x04u},
 694:Generated_Source\PSoC5/cyfitter_cfg.c **** 			{0x95u, 0x04u},
 695:Generated_Source\PSoC5/cyfitter_cfg.c **** 			{0x96u, 0x50u},
 696:Generated_Source\PSoC5/cyfitter_cfg.c **** 			{0x98u, 0x02u},
 697:Generated_Source\PSoC5/cyfitter_cfg.c **** 			{0x99u, 0x06u},
 698:Generated_Source\PSoC5/cyfitter_cfg.c **** 			{0x9Bu, 0x02u},
 699:Generated_Source\PSoC5/cyfitter_cfg.c **** 			{0x9Cu, 0x04u},
 700:Generated_Source\PSoC5/cyfitter_cfg.c **** 			{0x9Du, 0x81u},
 701:Generated_Source\PSoC5/cyfitter_cfg.c **** 			{0x9Eu, 0x08u},
 702:Generated_Source\PSoC5/cyfitter_cfg.c **** 			{0x9Fu, 0x18u},
 703:Generated_Source\PSoC5/cyfitter_cfg.c **** 			{0xA1u, 0x08u},
 704:Generated_Source\PSoC5/cyfitter_cfg.c **** 			{0xA2u, 0x08u},
 705:Generated_Source\PSoC5/cyfitter_cfg.c **** 			{0xA4u, 0x18u},
 706:Generated_Source\PSoC5/cyfitter_cfg.c **** 			{0xA6u, 0x87u},
 707:Generated_Source\PSoC5/cyfitter_cfg.c **** 			{0xADu, 0x01u},
 708:Generated_Source\PSoC5/cyfitter_cfg.c **** 			{0xAEu, 0x08u},
 709:Generated_Source\PSoC5/cyfitter_cfg.c **** 			{0xAFu, 0x48u},
 710:Generated_Source\PSoC5/cyfitter_cfg.c **** 			{0xB3u, 0x40u},
 711:Generated_Source\PSoC5/cyfitter_cfg.c **** 			{0xB6u, 0x10u},
 712:Generated_Source\PSoC5/cyfitter_cfg.c **** 			{0xB7u, 0x80u},
 713:Generated_Source\PSoC5/cyfitter_cfg.c **** 			{0xC0u, 0xFFu},
 714:Generated_Source\PSoC5/cyfitter_cfg.c **** 			{0xC2u, 0xFFu},
 715:Generated_Source\PSoC5/cyfitter_cfg.c **** 			{0xC4u, 0xFFu},
 716:Generated_Source\PSoC5/cyfitter_cfg.c **** 			{0xCAu, 0xF0u},
 717:Generated_Source\PSoC5/cyfitter_cfg.c **** 			{0xCCu, 0xF0u},
 718:Generated_Source\PSoC5/cyfitter_cfg.c **** 			{0xCEu, 0xF0u},
 719:Generated_Source\PSoC5/cyfitter_cfg.c **** 			{0xD0u, 0x0Au},
 720:Generated_Source\PSoC5/cyfitter_cfg.c **** 			{0xD2u, 0x04u},
ARM GAS  C:\Users\HPz420\AppData\Local\Temp\cc03uF4X.s 			page 24


 721:Generated_Source\PSoC5/cyfitter_cfg.c **** 			{0xE2u, 0x42u},
 722:Generated_Source\PSoC5/cyfitter_cfg.c **** 			{0xE8u, 0x20u},
 723:Generated_Source\PSoC5/cyfitter_cfg.c **** 			{0xEAu, 0x40u},
 724:Generated_Source\PSoC5/cyfitter_cfg.c **** 			{0xE2u, 0x02u},
 725:Generated_Source\PSoC5/cyfitter_cfg.c **** 			{0xEAu, 0x40u},
 726:Generated_Source\PSoC5/cyfitter_cfg.c **** 			{0x00u, 0x40u},
 727:Generated_Source\PSoC5/cyfitter_cfg.c **** 			{0x02u, 0x08u},
 728:Generated_Source\PSoC5/cyfitter_cfg.c **** 			{0x05u, 0x09u},
 729:Generated_Source\PSoC5/cyfitter_cfg.c **** 			{0x06u, 0x20u},
 730:Generated_Source\PSoC5/cyfitter_cfg.c **** 			{0x08u, 0x50u},
 731:Generated_Source\PSoC5/cyfitter_cfg.c **** 			{0x0Au, 0x01u},
 732:Generated_Source\PSoC5/cyfitter_cfg.c **** 			{0x0Cu, 0x40u},
 733:Generated_Source\PSoC5/cyfitter_cfg.c **** 			{0x0Du, 0x08u},
 734:Generated_Source\PSoC5/cyfitter_cfg.c **** 			{0x0Eu, 0x18u},
 735:Generated_Source\PSoC5/cyfitter_cfg.c **** 			{0x10u, 0x3Fu},
 736:Generated_Source\PSoC5/cyfitter_cfg.c **** 			{0x14u, 0x04u},
 737:Generated_Source\PSoC5/cyfitter_cfg.c **** 			{0x15u, 0x02u},
 738:Generated_Source\PSoC5/cyfitter_cfg.c **** 			{0x16u, 0x08u},
 739:Generated_Source\PSoC5/cyfitter_cfg.c **** 			{0x17u, 0x04u},
 740:Generated_Source\PSoC5/cyfitter_cfg.c **** 			{0x19u, 0x09u},
 741:Generated_Source\PSoC5/cyfitter_cfg.c **** 			{0x1Au, 0x40u},
 742:Generated_Source\PSoC5/cyfitter_cfg.c **** 			{0x20u, 0x50u},
 743:Generated_Source\PSoC5/cyfitter_cfg.c **** 			{0x22u, 0x02u},
 744:Generated_Source\PSoC5/cyfitter_cfg.c **** 			{0x24u, 0x40u},
 745:Generated_Source\PSoC5/cyfitter_cfg.c **** 			{0x26u, 0x14u},
 746:Generated_Source\PSoC5/cyfitter_cfg.c **** 			{0x28u, 0x80u},
 747:Generated_Source\PSoC5/cyfitter_cfg.c **** 			{0x2Cu, 0x0Fu},
 748:Generated_Source\PSoC5/cyfitter_cfg.c **** 			{0x2Du, 0x02u},
 749:Generated_Source\PSoC5/cyfitter_cfg.c **** 			{0x2Fu, 0x04u},
 750:Generated_Source\PSoC5/cyfitter_cfg.c **** 			{0x31u, 0x01u},
 751:Generated_Source\PSoC5/cyfitter_cfg.c **** 			{0x32u, 0x3Fu},
 752:Generated_Source\PSoC5/cyfitter_cfg.c **** 			{0x34u, 0xC0u},
 753:Generated_Source\PSoC5/cyfitter_cfg.c **** 			{0x35u, 0x08u},
 754:Generated_Source\PSoC5/cyfitter_cfg.c **** 			{0x37u, 0x07u},
 755:Generated_Source\PSoC5/cyfitter_cfg.c **** 			{0x38u, 0x28u},
 756:Generated_Source\PSoC5/cyfitter_cfg.c **** 			{0x39u, 0xA2u},
 757:Generated_Source\PSoC5/cyfitter_cfg.c **** 			{0x3Eu, 0x10u},
 758:Generated_Source\PSoC5/cyfitter_cfg.c **** 			{0x3Fu, 0x41u},
 759:Generated_Source\PSoC5/cyfitter_cfg.c **** 			{0x40u, 0x42u},
 760:Generated_Source\PSoC5/cyfitter_cfg.c **** 			{0x47u, 0x52u},
 761:Generated_Source\PSoC5/cyfitter_cfg.c **** 			{0x48u, 0x30u},
 762:Generated_Source\PSoC5/cyfitter_cfg.c **** 			{0x49u, 0xFFu},
 763:Generated_Source\PSoC5/cyfitter_cfg.c **** 			{0x4Au, 0xFFu},
 764:Generated_Source\PSoC5/cyfitter_cfg.c **** 			{0x4Bu, 0xFFu},
 765:Generated_Source\PSoC5/cyfitter_cfg.c **** 			{0x4Cu, 0x42u},
 766:Generated_Source\PSoC5/cyfitter_cfg.c **** 			{0x4Du, 0xA0u},
 767:Generated_Source\PSoC5/cyfitter_cfg.c **** 			{0x4Eu, 0x70u},
 768:Generated_Source\PSoC5/cyfitter_cfg.c **** 			{0x50u, 0x08u},
 769:Generated_Source\PSoC5/cyfitter_cfg.c **** 			{0x51u, 0x10u},
 770:Generated_Source\PSoC5/cyfitter_cfg.c **** 			{0x56u, 0x08u},
 771:Generated_Source\PSoC5/cyfitter_cfg.c **** 			{0x58u, 0x04u},
 772:Generated_Source\PSoC5/cyfitter_cfg.c **** 			{0x59u, 0x04u},
 773:Generated_Source\PSoC5/cyfitter_cfg.c **** 			{0x5Au, 0x04u},
 774:Generated_Source\PSoC5/cyfitter_cfg.c **** 			{0x5Bu, 0x04u},
 775:Generated_Source\PSoC5/cyfitter_cfg.c **** 			{0x5Du, 0x90u},
 776:Generated_Source\PSoC5/cyfitter_cfg.c **** 			{0x5Fu, 0x01u},
 777:Generated_Source\PSoC5/cyfitter_cfg.c **** 			{0x61u, 0x48u},
ARM GAS  C:\Users\HPz420\AppData\Local\Temp\cc03uF4X.s 			page 25


 778:Generated_Source\PSoC5/cyfitter_cfg.c **** 			{0x62u, 0x40u},
 779:Generated_Source\PSoC5/cyfitter_cfg.c **** 			{0x63u, 0x48u},
 780:Generated_Source\PSoC5/cyfitter_cfg.c **** 			{0x64u, 0x80u},
 781:Generated_Source\PSoC5/cyfitter_cfg.c **** 			{0x65u, 0x48u},
 782:Generated_Source\PSoC5/cyfitter_cfg.c **** 			{0x66u, 0x80u},
 783:Generated_Source\PSoC5/cyfitter_cfg.c **** 			{0x67u, 0x48u},
 784:Generated_Source\PSoC5/cyfitter_cfg.c **** 			{0x81u, 0x01u},
 785:Generated_Source\PSoC5/cyfitter_cfg.c **** 			{0x82u, 0xF0u},
 786:Generated_Source\PSoC5/cyfitter_cfg.c **** 			{0x83u, 0x06u},
 787:Generated_Source\PSoC5/cyfitter_cfg.c **** 			{0x86u, 0xF0u},
 788:Generated_Source\PSoC5/cyfitter_cfg.c **** 			{0x88u, 0xF0u},
 789:Generated_Source\PSoC5/cyfitter_cfg.c **** 			{0x8Cu, 0x04u},
 790:Generated_Source\PSoC5/cyfitter_cfg.c **** 			{0x8Eu, 0x81u},
 791:Generated_Source\PSoC5/cyfitter_cfg.c **** 			{0x90u, 0x01u},
 792:Generated_Source\PSoC5/cyfitter_cfg.c **** 			{0x92u, 0x0Eu},
 793:Generated_Source\PSoC5/cyfitter_cfg.c **** 			{0x94u, 0x01u},
 794:Generated_Source\PSoC5/cyfitter_cfg.c **** 			{0x95u, 0x01u},
 795:Generated_Source\PSoC5/cyfitter_cfg.c **** 			{0x96u, 0x02u},
 796:Generated_Source\PSoC5/cyfitter_cfg.c **** 			{0x97u, 0x02u},
 797:Generated_Source\PSoC5/cyfitter_cfg.c **** 			{0x98u, 0x05u},
 798:Generated_Source\PSoC5/cyfitter_cfg.c **** 			{0x9Au, 0x40u},
 799:Generated_Source\PSoC5/cyfitter_cfg.c **** 			{0x9Bu, 0x08u},
 800:Generated_Source\PSoC5/cyfitter_cfg.c **** 			{0x9Cu, 0x01u},
 801:Generated_Source\PSoC5/cyfitter_cfg.c **** 			{0x9Eu, 0x08u},
 802:Generated_Source\PSoC5/cyfitter_cfg.c **** 			{0xA0u, 0x04u},
 803:Generated_Source\PSoC5/cyfitter_cfg.c **** 			{0xA2u, 0x81u},
 804:Generated_Source\PSoC5/cyfitter_cfg.c **** 			{0xA4u, 0x05u},
 805:Generated_Source\PSoC5/cyfitter_cfg.c **** 			{0xA6u, 0x10u},
 806:Generated_Source\PSoC5/cyfitter_cfg.c **** 			{0xA8u, 0xF0u},
 807:Generated_Source\PSoC5/cyfitter_cfg.c **** 			{0xACu, 0x05u},
 808:Generated_Source\PSoC5/cyfitter_cfg.c **** 			{0xAEu, 0x20u},
 809:Generated_Source\PSoC5/cyfitter_cfg.c **** 			{0xB0u, 0x0Fu},
 810:Generated_Source\PSoC5/cyfitter_cfg.c **** 			{0xB3u, 0x03u},
 811:Generated_Source\PSoC5/cyfitter_cfg.c **** 			{0xB4u, 0xF0u},
 812:Generated_Source\PSoC5/cyfitter_cfg.c **** 			{0xB5u, 0x04u},
 813:Generated_Source\PSoC5/cyfitter_cfg.c **** 			{0xB7u, 0x08u},
 814:Generated_Source\PSoC5/cyfitter_cfg.c **** 			{0xBAu, 0x02u},
 815:Generated_Source\PSoC5/cyfitter_cfg.c **** 			{0xBEu, 0x10u},
 816:Generated_Source\PSoC5/cyfitter_cfg.c **** 			{0xD6u, 0x08u},
 817:Generated_Source\PSoC5/cyfitter_cfg.c **** 			{0xD8u, 0x04u},
 818:Generated_Source\PSoC5/cyfitter_cfg.c **** 			{0xD9u, 0x04u},
 819:Generated_Source\PSoC5/cyfitter_cfg.c **** 			{0xDBu, 0x04u},
 820:Generated_Source\PSoC5/cyfitter_cfg.c **** 			{0xDDu, 0x90u},
 821:Generated_Source\PSoC5/cyfitter_cfg.c **** 			{0xDFu, 0x01u},
 822:Generated_Source\PSoC5/cyfitter_cfg.c **** 			{0x00u, 0x08u},
 823:Generated_Source\PSoC5/cyfitter_cfg.c **** 			{0x01u, 0x02u},
 824:Generated_Source\PSoC5/cyfitter_cfg.c **** 			{0x03u, 0x05u},
 825:Generated_Source\PSoC5/cyfitter_cfg.c **** 			{0x04u, 0x82u},
 826:Generated_Source\PSoC5/cyfitter_cfg.c **** 			{0x05u, 0x08u},
 827:Generated_Source\PSoC5/cyfitter_cfg.c **** 			{0x06u, 0x80u},
 828:Generated_Source\PSoC5/cyfitter_cfg.c **** 			{0x07u, 0x08u},
 829:Generated_Source\PSoC5/cyfitter_cfg.c **** 			{0x0Au, 0x20u},
 830:Generated_Source\PSoC5/cyfitter_cfg.c **** 			{0x0Bu, 0x84u},
 831:Generated_Source\PSoC5/cyfitter_cfg.c **** 			{0x0Cu, 0x10u},
 832:Generated_Source\PSoC5/cyfitter_cfg.c **** 			{0x0Du, 0x08u},
 833:Generated_Source\PSoC5/cyfitter_cfg.c **** 			{0x0Eu, 0x4Au},
 834:Generated_Source\PSoC5/cyfitter_cfg.c **** 			{0x10u, 0x10u},
ARM GAS  C:\Users\HPz420\AppData\Local\Temp\cc03uF4X.s 			page 26


 835:Generated_Source\PSoC5/cyfitter_cfg.c **** 			{0x12u, 0x4Au},
 836:Generated_Source\PSoC5/cyfitter_cfg.c **** 			{0x14u, 0x02u},
 837:Generated_Source\PSoC5/cyfitter_cfg.c **** 			{0x15u, 0x2Au},
 838:Generated_Source\PSoC5/cyfitter_cfg.c **** 			{0x16u, 0x08u},
 839:Generated_Source\PSoC5/cyfitter_cfg.c **** 			{0x17u, 0x05u},
 840:Generated_Source\PSoC5/cyfitter_cfg.c **** 			{0x18u, 0x04u},
 841:Generated_Source\PSoC5/cyfitter_cfg.c **** 			{0x19u, 0x08u},
 842:Generated_Source\PSoC5/cyfitter_cfg.c **** 			{0x1Cu, 0x08u},
 843:Generated_Source\PSoC5/cyfitter_cfg.c **** 			{0x1Du, 0x11u},
 844:Generated_Source\PSoC5/cyfitter_cfg.c **** 			{0x1Eu, 0x40u},
 845:Generated_Source\PSoC5/cyfitter_cfg.c **** 			{0x21u, 0x52u},
 846:Generated_Source\PSoC5/cyfitter_cfg.c **** 			{0x22u, 0x10u},
 847:Generated_Source\PSoC5/cyfitter_cfg.c **** 			{0x24u, 0x02u},
 848:Generated_Source\PSoC5/cyfitter_cfg.c **** 			{0x26u, 0x28u},
 849:Generated_Source\PSoC5/cyfitter_cfg.c **** 			{0x27u, 0x08u},
 850:Generated_Source\PSoC5/cyfitter_cfg.c **** 			{0x28u, 0x02u},
 851:Generated_Source\PSoC5/cyfitter_cfg.c **** 			{0x2Au, 0x40u},
 852:Generated_Source\PSoC5/cyfitter_cfg.c **** 			{0x31u, 0x10u},
 853:Generated_Source\PSoC5/cyfitter_cfg.c **** 			{0x33u, 0x04u},
 854:Generated_Source\PSoC5/cyfitter_cfg.c **** 			{0x35u, 0x08u},
 855:Generated_Source\PSoC5/cyfitter_cfg.c **** 			{0x36u, 0x20u},
 856:Generated_Source\PSoC5/cyfitter_cfg.c **** 			{0x38u, 0x08u},
 857:Generated_Source\PSoC5/cyfitter_cfg.c **** 			{0x3Bu, 0x80u},
 858:Generated_Source\PSoC5/cyfitter_cfg.c **** 			{0x3Fu, 0x01u},
 859:Generated_Source\PSoC5/cyfitter_cfg.c **** 			{0x40u, 0x04u},
 860:Generated_Source\PSoC5/cyfitter_cfg.c **** 			{0x41u, 0x02u},
 861:Generated_Source\PSoC5/cyfitter_cfg.c **** 			{0x50u, 0x04u},
 862:Generated_Source\PSoC5/cyfitter_cfg.c **** 			{0x52u, 0x02u},
 863:Generated_Source\PSoC5/cyfitter_cfg.c **** 			{0x58u, 0x20u},
 864:Generated_Source\PSoC5/cyfitter_cfg.c **** 			{0x59u, 0x80u},
 865:Generated_Source\PSoC5/cyfitter_cfg.c **** 			{0x5Fu, 0x40u},
 866:Generated_Source\PSoC5/cyfitter_cfg.c **** 			{0x67u, 0x01u},
 867:Generated_Source\PSoC5/cyfitter_cfg.c **** 			{0x85u, 0x88u},
 868:Generated_Source\PSoC5/cyfitter_cfg.c **** 			{0x8Bu, 0x40u},
 869:Generated_Source\PSoC5/cyfitter_cfg.c **** 			{0x90u, 0x80u},
 870:Generated_Source\PSoC5/cyfitter_cfg.c **** 			{0x91u, 0x0Au},
 871:Generated_Source\PSoC5/cyfitter_cfg.c **** 			{0x93u, 0x84u},
 872:Generated_Source\PSoC5/cyfitter_cfg.c **** 			{0x95u, 0x80u},
 873:Generated_Source\PSoC5/cyfitter_cfg.c **** 			{0x98u, 0x22u},
 874:Generated_Source\PSoC5/cyfitter_cfg.c **** 			{0x99u, 0x02u},
 875:Generated_Source\PSoC5/cyfitter_cfg.c **** 			{0x9Du, 0x01u},
 876:Generated_Source\PSoC5/cyfitter_cfg.c **** 			{0x9Eu, 0x88u},
 877:Generated_Source\PSoC5/cyfitter_cfg.c **** 			{0x9Fu, 0x08u},
 878:Generated_Source\PSoC5/cyfitter_cfg.c **** 			{0xA1u, 0x08u},
 879:Generated_Source\PSoC5/cyfitter_cfg.c **** 			{0xA2u, 0x05u},
 880:Generated_Source\PSoC5/cyfitter_cfg.c **** 			{0xACu, 0x80u},
 881:Generated_Source\PSoC5/cyfitter_cfg.c **** 			{0xAEu, 0x08u},
 882:Generated_Source\PSoC5/cyfitter_cfg.c **** 			{0xC0u, 0xFFu},
 883:Generated_Source\PSoC5/cyfitter_cfg.c **** 			{0xC2u, 0xFEu},
 884:Generated_Source\PSoC5/cyfitter_cfg.c **** 			{0xC4u, 0xFFu},
 885:Generated_Source\PSoC5/cyfitter_cfg.c **** 			{0xCAu, 0x08u},
 886:Generated_Source\PSoC5/cyfitter_cfg.c **** 			{0xCCu, 0x66u},
 887:Generated_Source\PSoC5/cyfitter_cfg.c **** 			{0xCEu, 0x8Au},
 888:Generated_Source\PSoC5/cyfitter_cfg.c **** 			{0xD0u, 0x05u},
 889:Generated_Source\PSoC5/cyfitter_cfg.c **** 			{0xD6u, 0x1Cu},
 890:Generated_Source\PSoC5/cyfitter_cfg.c **** 			{0xD8u, 0x10u},
 891:Generated_Source\PSoC5/cyfitter_cfg.c **** 			{0xE0u, 0x20u},
ARM GAS  C:\Users\HPz420\AppData\Local\Temp\cc03uF4X.s 			page 27


 892:Generated_Source\PSoC5/cyfitter_cfg.c **** 			{0xE2u, 0x08u},
 893:Generated_Source\PSoC5/cyfitter_cfg.c **** 			{0xEAu, 0x01u},
 894:Generated_Source\PSoC5/cyfitter_cfg.c **** 			{0xECu, 0x80u},
 895:Generated_Source\PSoC5/cyfitter_cfg.c **** 			{0x00u, 0x01u},
 896:Generated_Source\PSoC5/cyfitter_cfg.c **** 			{0x01u, 0x01u},
 897:Generated_Source\PSoC5/cyfitter_cfg.c **** 			{0x03u, 0x06u},
 898:Generated_Source\PSoC5/cyfitter_cfg.c **** 			{0x06u, 0x02u},
 899:Generated_Source\PSoC5/cyfitter_cfg.c **** 			{0x0Au, 0x10u},
 900:Generated_Source\PSoC5/cyfitter_cfg.c **** 			{0x0Du, 0x12u},
 901:Generated_Source\PSoC5/cyfitter_cfg.c **** 			{0x0Eu, 0x04u},
 902:Generated_Source\PSoC5/cyfitter_cfg.c **** 			{0x0Fu, 0x01u},
 903:Generated_Source\PSoC5/cyfitter_cfg.c **** 			{0x16u, 0x05u},
 904:Generated_Source\PSoC5/cyfitter_cfg.c **** 			{0x17u, 0x13u},
 905:Generated_Source\PSoC5/cyfitter_cfg.c **** 			{0x18u, 0x01u},
 906:Generated_Source\PSoC5/cyfitter_cfg.c **** 			{0x1Au, 0x0Cu},
 907:Generated_Source\PSoC5/cyfitter_cfg.c **** 			{0x1Bu, 0x13u},
 908:Generated_Source\PSoC5/cyfitter_cfg.c **** 			{0x1Cu, 0x01u},
 909:Generated_Source\PSoC5/cyfitter_cfg.c **** 			{0x1Eu, 0x08u},
 910:Generated_Source\PSoC5/cyfitter_cfg.c **** 			{0x20u, 0x01u},
 911:Generated_Source\PSoC5/cyfitter_cfg.c **** 			{0x21u, 0x01u},
 912:Generated_Source\PSoC5/cyfitter_cfg.c **** 			{0x23u, 0x04u},
 913:Generated_Source\PSoC5/cyfitter_cfg.c **** 			{0x24u, 0x20u},
 914:Generated_Source\PSoC5/cyfitter_cfg.c **** 			{0x25u, 0x01u},
 915:Generated_Source\PSoC5/cyfitter_cfg.c **** 			{0x27u, 0x32u},
 916:Generated_Source\PSoC5/cyfitter_cfg.c **** 			{0x2Au, 0x04u},
 917:Generated_Source\PSoC5/cyfitter_cfg.c **** 			{0x2Cu, 0x01u},
 918:Generated_Source\PSoC5/cyfitter_cfg.c **** 			{0x2Fu, 0x1Bu},
 919:Generated_Source\PSoC5/cyfitter_cfg.c **** 			{0x31u, 0x07u},
 920:Generated_Source\PSoC5/cyfitter_cfg.c **** 			{0x32u, 0x03u},
 921:Generated_Source\PSoC5/cyfitter_cfg.c **** 			{0x33u, 0x08u},
 922:Generated_Source\PSoC5/cyfitter_cfg.c **** 			{0x34u, 0x1Cu},
 923:Generated_Source\PSoC5/cyfitter_cfg.c **** 			{0x35u, 0x10u},
 924:Generated_Source\PSoC5/cyfitter_cfg.c **** 			{0x36u, 0x20u},
 925:Generated_Source\PSoC5/cyfitter_cfg.c **** 			{0x37u, 0x20u},
 926:Generated_Source\PSoC5/cyfitter_cfg.c **** 			{0x3Au, 0x20u},
 927:Generated_Source\PSoC5/cyfitter_cfg.c **** 			{0x3Bu, 0x02u},
 928:Generated_Source\PSoC5/cyfitter_cfg.c **** 			{0x3Fu, 0x10u},
 929:Generated_Source\PSoC5/cyfitter_cfg.c **** 			{0x58u, 0x04u},
 930:Generated_Source\PSoC5/cyfitter_cfg.c **** 			{0x59u, 0x04u},
 931:Generated_Source\PSoC5/cyfitter_cfg.c **** 			{0x5Fu, 0x01u},
 932:Generated_Source\PSoC5/cyfitter_cfg.c **** 			{0x81u, 0x46u},
 933:Generated_Source\PSoC5/cyfitter_cfg.c **** 			{0x82u, 0x10u},
 934:Generated_Source\PSoC5/cyfitter_cfg.c **** 			{0x83u, 0xA9u},
 935:Generated_Source\PSoC5/cyfitter_cfg.c **** 			{0x84u, 0x46u},
 936:Generated_Source\PSoC5/cyfitter_cfg.c **** 			{0x87u, 0x01u},
 937:Generated_Source\PSoC5/cyfitter_cfg.c **** 			{0x8Au, 0x20u},
 938:Generated_Source\PSoC5/cyfitter_cfg.c **** 			{0x8Cu, 0x01u},
 939:Generated_Source\PSoC5/cyfitter_cfg.c **** 			{0x8Eu, 0x42u},
 940:Generated_Source\PSoC5/cyfitter_cfg.c **** 			{0x90u, 0x05u},
 941:Generated_Source\PSoC5/cyfitter_cfg.c **** 			{0x91u, 0xFFu},
 942:Generated_Source\PSoC5/cyfitter_cfg.c **** 			{0x92u, 0x0Au},
 943:Generated_Source\PSoC5/cyfitter_cfg.c **** 			{0x94u, 0x60u},
 944:Generated_Source\PSoC5/cyfitter_cfg.c **** 			{0x95u, 0x0Eu},
 945:Generated_Source\PSoC5/cyfitter_cfg.c **** 			{0x97u, 0x30u},
 946:Generated_Source\PSoC5/cyfitter_cfg.c **** 			{0x99u, 0x40u},
 947:Generated_Source\PSoC5/cyfitter_cfg.c **** 			{0x9Au, 0x42u},
 948:Generated_Source\PSoC5/cyfitter_cfg.c **** 			{0x9Bu, 0x13u},
ARM GAS  C:\Users\HPz420\AppData\Local\Temp\cc03uF4X.s 			page 28


 949:Generated_Source\PSoC5/cyfitter_cfg.c **** 			{0x9Cu, 0x08u},
 950:Generated_Source\PSoC5/cyfitter_cfg.c **** 			{0x9Eu, 0x05u},
 951:Generated_Source\PSoC5/cyfitter_cfg.c **** 			{0xA0u, 0x41u},
 952:Generated_Source\PSoC5/cyfitter_cfg.c **** 			{0xA1u, 0x2Au},
 953:Generated_Source\PSoC5/cyfitter_cfg.c **** 			{0xA2u, 0x04u},
 954:Generated_Source\PSoC5/cyfitter_cfg.c **** 			{0xA3u, 0x54u},
 955:Generated_Source\PSoC5/cyfitter_cfg.c **** 			{0xA4u, 0x01u},
 956:Generated_Source\PSoC5/cyfitter_cfg.c **** 			{0xA5u, 0x80u},
 957:Generated_Source\PSoC5/cyfitter_cfg.c **** 			{0xA6u, 0x02u},
 958:Generated_Source\PSoC5/cyfitter_cfg.c **** 			{0xA7u, 0x56u},
 959:Generated_Source\PSoC5/cyfitter_cfg.c **** 			{0xAAu, 0x80u},
 960:Generated_Source\PSoC5/cyfitter_cfg.c **** 			{0xACu, 0x6Fu},
 961:Generated_Source\PSoC5/cyfitter_cfg.c **** 			{0xADu, 0x33u},
 962:Generated_Source\PSoC5/cyfitter_cfg.c **** 			{0xAFu, 0x0Cu},
 963:Generated_Source\PSoC5/cyfitter_cfg.c **** 			{0xB0u, 0x1Fu},
 964:Generated_Source\PSoC5/cyfitter_cfg.c **** 			{0xB1u, 0xFFu},
 965:Generated_Source\PSoC5/cyfitter_cfg.c **** 			{0xB2u, 0x60u},
 966:Generated_Source\PSoC5/cyfitter_cfg.c **** 			{0xB4u, 0x80u},
 967:Generated_Source\PSoC5/cyfitter_cfg.c **** 			{0xD8u, 0x04u},
 968:Generated_Source\PSoC5/cyfitter_cfg.c **** 			{0xD9u, 0x04u},
 969:Generated_Source\PSoC5/cyfitter_cfg.c **** 			{0xDFu, 0x01u},
 970:Generated_Source\PSoC5/cyfitter_cfg.c **** 			{0x00u, 0x90u},
 971:Generated_Source\PSoC5/cyfitter_cfg.c **** 			{0x01u, 0x04u},
 972:Generated_Source\PSoC5/cyfitter_cfg.c **** 			{0x03u, 0x80u},
 973:Generated_Source\PSoC5/cyfitter_cfg.c **** 			{0x04u, 0x20u},
 974:Generated_Source\PSoC5/cyfitter_cfg.c **** 			{0x05u, 0x06u},
 975:Generated_Source\PSoC5/cyfitter_cfg.c **** 			{0x07u, 0x02u},
 976:Generated_Source\PSoC5/cyfitter_cfg.c **** 			{0x08u, 0x80u},
 977:Generated_Source\PSoC5/cyfitter_cfg.c **** 			{0x09u, 0x28u},
 978:Generated_Source\PSoC5/cyfitter_cfg.c **** 			{0x0Au, 0x40u},
 979:Generated_Source\PSoC5/cyfitter_cfg.c **** 			{0x0Du, 0x04u},
 980:Generated_Source\PSoC5/cyfitter_cfg.c **** 			{0x0Eu, 0x2Au},
 981:Generated_Source\PSoC5/cyfitter_cfg.c **** 			{0x12u, 0x0Au},
 982:Generated_Source\PSoC5/cyfitter_cfg.c **** 			{0x13u, 0x06u},
 983:Generated_Source\PSoC5/cyfitter_cfg.c **** 			{0x15u, 0x02u},
 984:Generated_Source\PSoC5/cyfitter_cfg.c **** 			{0x16u, 0x0Au},
 985:Generated_Source\PSoC5/cyfitter_cfg.c **** 			{0x17u, 0x04u},
 986:Generated_Source\PSoC5/cyfitter_cfg.c **** 			{0x18u, 0x90u},
 987:Generated_Source\PSoC5/cyfitter_cfg.c **** 			{0x19u, 0x02u},
 988:Generated_Source\PSoC5/cyfitter_cfg.c **** 			{0x1Au, 0x50u},
 989:Generated_Source\PSoC5/cyfitter_cfg.c **** 			{0x1Bu, 0x20u},
 990:Generated_Source\PSoC5/cyfitter_cfg.c **** 			{0x1Du, 0x20u},
 991:Generated_Source\PSoC5/cyfitter_cfg.c **** 			{0x1Eu, 0x2Au},
 992:Generated_Source\PSoC5/cyfitter_cfg.c **** 			{0x1Fu, 0x48u},
 993:Generated_Source\PSoC5/cyfitter_cfg.c **** 			{0x20u, 0x80u},
 994:Generated_Source\PSoC5/cyfitter_cfg.c **** 			{0x21u, 0x01u},
 995:Generated_Source\PSoC5/cyfitter_cfg.c **** 			{0x24u, 0x04u},
 996:Generated_Source\PSoC5/cyfitter_cfg.c **** 			{0x25u, 0x41u},
 997:Generated_Source\PSoC5/cyfitter_cfg.c **** 			{0x27u, 0x20u},
 998:Generated_Source\PSoC5/cyfitter_cfg.c **** 			{0x28u, 0x02u},
 999:Generated_Source\PSoC5/cyfitter_cfg.c **** 			{0x29u, 0x02u},
1000:Generated_Source\PSoC5/cyfitter_cfg.c **** 			{0x2Au, 0x08u},
1001:Generated_Source\PSoC5/cyfitter_cfg.c **** 			{0x2Eu, 0x80u},
1002:Generated_Source\PSoC5/cyfitter_cfg.c **** 			{0x2Fu, 0x60u},
1003:Generated_Source\PSoC5/cyfitter_cfg.c **** 			{0x31u, 0x20u},
1004:Generated_Source\PSoC5/cyfitter_cfg.c **** 			{0x32u, 0x02u},
1005:Generated_Source\PSoC5/cyfitter_cfg.c **** 			{0x33u, 0x08u},
ARM GAS  C:\Users\HPz420\AppData\Local\Temp\cc03uF4X.s 			page 29


1006:Generated_Source\PSoC5/cyfitter_cfg.c **** 			{0x37u, 0x28u},
1007:Generated_Source\PSoC5/cyfitter_cfg.c **** 			{0x39u, 0x02u},
1008:Generated_Source\PSoC5/cyfitter_cfg.c **** 			{0x3Bu, 0x04u},
1009:Generated_Source\PSoC5/cyfitter_cfg.c **** 			{0x3Du, 0x82u},
1010:Generated_Source\PSoC5/cyfitter_cfg.c **** 			{0x79u, 0x06u},
1011:Generated_Source\PSoC5/cyfitter_cfg.c **** 			{0x7Au, 0x90u},
1012:Generated_Source\PSoC5/cyfitter_cfg.c **** 			{0x85u, 0x21u},
1013:Generated_Source\PSoC5/cyfitter_cfg.c **** 			{0x8Cu, 0x20u},
1014:Generated_Source\PSoC5/cyfitter_cfg.c **** 			{0x90u, 0x20u},
1015:Generated_Source\PSoC5/cyfitter_cfg.c **** 			{0x93u, 0x04u},
1016:Generated_Source\PSoC5/cyfitter_cfg.c **** 			{0x94u, 0x04u},
1017:Generated_Source\PSoC5/cyfitter_cfg.c **** 			{0x95u, 0x87u},
1018:Generated_Source\PSoC5/cyfitter_cfg.c **** 			{0x96u, 0x50u},
1019:Generated_Source\PSoC5/cyfitter_cfg.c **** 			{0x98u, 0x02u},
1020:Generated_Source\PSoC5/cyfitter_cfg.c **** 			{0x99u, 0x04u},
1021:Generated_Source\PSoC5/cyfitter_cfg.c **** 			{0x9Au, 0x02u},
1022:Generated_Source\PSoC5/cyfitter_cfg.c **** 			{0x9Bu, 0x06u},
1023:Generated_Source\PSoC5/cyfitter_cfg.c **** 			{0x9Du, 0x01u},
1024:Generated_Source\PSoC5/cyfitter_cfg.c **** 			{0x9Eu, 0x08u},
1025:Generated_Source\PSoC5/cyfitter_cfg.c **** 			{0xA1u, 0x08u},
1026:Generated_Source\PSoC5/cyfitter_cfg.c **** 			{0xA2u, 0x0Au},
1027:Generated_Source\PSoC5/cyfitter_cfg.c **** 			{0xA3u, 0x80u},
1028:Generated_Source\PSoC5/cyfitter_cfg.c **** 			{0xA5u, 0x20u},
1029:Generated_Source\PSoC5/cyfitter_cfg.c **** 			{0xA6u, 0x95u},
1030:Generated_Source\PSoC5/cyfitter_cfg.c **** 			{0xAAu, 0x01u},
1031:Generated_Source\PSoC5/cyfitter_cfg.c **** 			{0xABu, 0x08u},
1032:Generated_Source\PSoC5/cyfitter_cfg.c **** 			{0xC0u, 0xFFu},
1033:Generated_Source\PSoC5/cyfitter_cfg.c **** 			{0xC2u, 0xEFu},
1034:Generated_Source\PSoC5/cyfitter_cfg.c **** 			{0xC4u, 0xFFu},
1035:Generated_Source\PSoC5/cyfitter_cfg.c **** 			{0xCAu, 0xDBu},
1036:Generated_Source\PSoC5/cyfitter_cfg.c **** 			{0xCCu, 0x67u},
1037:Generated_Source\PSoC5/cyfitter_cfg.c **** 			{0xCEu, 0x93u},
1038:Generated_Source\PSoC5/cyfitter_cfg.c **** 			{0xEEu, 0x02u},
1039:Generated_Source\PSoC5/cyfitter_cfg.c **** 			{0xE2u, 0x40u},
1040:Generated_Source\PSoC5/cyfitter_cfg.c **** 			{0xEEu, 0x02u},
1041:Generated_Source\PSoC5/cyfitter_cfg.c **** 			{0xE2u, 0x08u},
1042:Generated_Source\PSoC5/cyfitter_cfg.c **** 			{0xEAu, 0x01u},
1043:Generated_Source\PSoC5/cyfitter_cfg.c **** 			{0xECu, 0x80u},
1044:Generated_Source\PSoC5/cyfitter_cfg.c **** 			{0x30u, 0x20u},
1045:Generated_Source\PSoC5/cyfitter_cfg.c **** 			{0x31u, 0x08u},
1046:Generated_Source\PSoC5/cyfitter_cfg.c **** 			{0x35u, 0x08u},
1047:Generated_Source\PSoC5/cyfitter_cfg.c **** 			{0x36u, 0x40u},
1048:Generated_Source\PSoC5/cyfitter_cfg.c **** 			{0x88u, 0x20u},
1049:Generated_Source\PSoC5/cyfitter_cfg.c **** 			{0xCCu, 0xF0u},
1050:Generated_Source\PSoC5/cyfitter_cfg.c **** 			{0x9Du, 0x08u},
1051:Generated_Source\PSoC5/cyfitter_cfg.c **** 			{0xA5u, 0x08u},
1052:Generated_Source\PSoC5/cyfitter_cfg.c **** 			{0xA6u, 0x40u},
1053:Generated_Source\PSoC5/cyfitter_cfg.c **** 			{0x3Eu, 0x10u},
1054:Generated_Source\PSoC5/cyfitter_cfg.c **** 			{0x57u, 0x04u},
1055:Generated_Source\PSoC5/cyfitter_cfg.c **** 			{0x9Du, 0x08u},
1056:Generated_Source\PSoC5/cyfitter_cfg.c **** 			{0xA5u, 0x08u},
1057:Generated_Source\PSoC5/cyfitter_cfg.c **** 			{0xA6u, 0x40u},
1058:Generated_Source\PSoC5/cyfitter_cfg.c **** 			{0xCEu, 0x20u},
1059:Generated_Source\PSoC5/cyfitter_cfg.c **** 			{0xD4u, 0x40u},
1060:Generated_Source\PSoC5/cyfitter_cfg.c **** 			{0x85u, 0x08u},
1061:Generated_Source\PSoC5/cyfitter_cfg.c **** 			{0x8Fu, 0x04u},
1062:Generated_Source\PSoC5/cyfitter_cfg.c **** 			{0x95u, 0x02u},
ARM GAS  C:\Users\HPz420\AppData\Local\Temp\cc03uF4X.s 			page 30


1063:Generated_Source\PSoC5/cyfitter_cfg.c **** 			{0x96u, 0x10u},
1064:Generated_Source\PSoC5/cyfitter_cfg.c **** 			{0xA5u, 0x08u},
1065:Generated_Source\PSoC5/cyfitter_cfg.c **** 			{0xA6u, 0x40u},
1066:Generated_Source\PSoC5/cyfitter_cfg.c **** 			{0xA7u, 0x04u},
1067:Generated_Source\PSoC5/cyfitter_cfg.c **** 			{0xB1u, 0x01u},
1068:Generated_Source\PSoC5/cyfitter_cfg.c **** 			{0xB5u, 0x08u},
1069:Generated_Source\PSoC5/cyfitter_cfg.c **** 			{0xE2u, 0x40u},
1070:Generated_Source\PSoC5/cyfitter_cfg.c **** 			{0x13u, 0x08u},
1071:Generated_Source\PSoC5/cyfitter_cfg.c **** 			{0x14u, 0x20u},
1072:Generated_Source\PSoC5/cyfitter_cfg.c **** 			{0xC4u, 0x0Cu},
1073:Generated_Source\PSoC5/cyfitter_cfg.c **** 			{0x98u, 0x20u},
1074:Generated_Source\PSoC5/cyfitter_cfg.c **** 			{0x9Bu, 0x08u},
1075:Generated_Source\PSoC5/cyfitter_cfg.c **** 			{0x98u, 0x20u},
1076:Generated_Source\PSoC5/cyfitter_cfg.c **** 			{0x9Bu, 0x08u},
1077:Generated_Source\PSoC5/cyfitter_cfg.c **** 			{0x0Bu, 0x42u},
1078:Generated_Source\PSoC5/cyfitter_cfg.c **** 			{0x0Du, 0x02u},
1079:Generated_Source\PSoC5/cyfitter_cfg.c **** 			{0x85u, 0x02u},
1080:Generated_Source\PSoC5/cyfitter_cfg.c **** 			{0x97u, 0x02u},
1081:Generated_Source\PSoC5/cyfitter_cfg.c **** 			{0x98u, 0x20u},
1082:Generated_Source\PSoC5/cyfitter_cfg.c **** 			{0x9Bu, 0x08u},
1083:Generated_Source\PSoC5/cyfitter_cfg.c **** 			{0xB7u, 0x01u},
1084:Generated_Source\PSoC5/cyfitter_cfg.c **** 			{0xC2u, 0x0Eu},
1085:Generated_Source\PSoC5/cyfitter_cfg.c **** 			{0xEAu, 0x02u},
1086:Generated_Source\PSoC5/cyfitter_cfg.c **** 			{0x20u, 0x20u},
1087:Generated_Source\PSoC5/cyfitter_cfg.c **** 			{0x95u, 0x02u},
1088:Generated_Source\PSoC5/cyfitter_cfg.c **** 			{0x96u, 0x10u},
1089:Generated_Source\PSoC5/cyfitter_cfg.c **** 			{0xAEu, 0x40u},
1090:Generated_Source\PSoC5/cyfitter_cfg.c **** 			{0xC8u, 0x40u},
1091:Generated_Source\PSoC5/cyfitter_cfg.c **** 			{0xEEu, 0x40u},
1092:Generated_Source\PSoC5/cyfitter_cfg.c **** 			{0x13u, 0x02u},
1093:Generated_Source\PSoC5/cyfitter_cfg.c **** 			{0x15u, 0x02u},
1094:Generated_Source\PSoC5/cyfitter_cfg.c **** 			{0x7Bu, 0x01u},
1095:Generated_Source\PSoC5/cyfitter_cfg.c **** 			{0x87u, 0x01u},
1096:Generated_Source\PSoC5/cyfitter_cfg.c **** 			{0x8Bu, 0x02u},
1097:Generated_Source\PSoC5/cyfitter_cfg.c **** 			{0x95u, 0x02u},
1098:Generated_Source\PSoC5/cyfitter_cfg.c **** 			{0xAAu, 0x10u},
1099:Generated_Source\PSoC5/cyfitter_cfg.c **** 			{0xB0u, 0x10u},
1100:Generated_Source\PSoC5/cyfitter_cfg.c **** 			{0xC4u, 0x30u},
1101:Generated_Source\PSoC5/cyfitter_cfg.c **** 			{0xDCu, 0x80u},
1102:Generated_Source\PSoC5/cyfitter_cfg.c **** 			{0xE6u, 0x10u},
1103:Generated_Source\PSoC5/cyfitter_cfg.c **** 			{0xEAu, 0x80u},
1104:Generated_Source\PSoC5/cyfitter_cfg.c **** 			{0x10u, 0x40u},
1105:Generated_Source\PSoC5/cyfitter_cfg.c **** 			{0x13u, 0x20u},
1106:Generated_Source\PSoC5/cyfitter_cfg.c **** 			{0x14u, 0x80u},
1107:Generated_Source\PSoC5/cyfitter_cfg.c **** 			{0x44u, 0x10u},
1108:Generated_Source\PSoC5/cyfitter_cfg.c **** 			{0x47u, 0x08u},
1109:Generated_Source\PSoC5/cyfitter_cfg.c **** 			{0x78u, 0x10u},
1110:Generated_Source\PSoC5/cyfitter_cfg.c **** 			{0x7Cu, 0x20u},
1111:Generated_Source\PSoC5/cyfitter_cfg.c **** 			{0x8Cu, 0x20u},
1112:Generated_Source\PSoC5/cyfitter_cfg.c **** 			{0x98u, 0x20u},
1113:Generated_Source\PSoC5/cyfitter_cfg.c **** 			{0x9Bu, 0x08u},
1114:Generated_Source\PSoC5/cyfitter_cfg.c **** 			{0xAFu, 0x40u},
1115:Generated_Source\PSoC5/cyfitter_cfg.c **** 			{0xC4u, 0x0Eu},
1116:Generated_Source\PSoC5/cyfitter_cfg.c **** 			{0xDEu, 0x03u},
1117:Generated_Source\PSoC5/cyfitter_cfg.c **** 			{0xE2u, 0x02u},
1118:Generated_Source\PSoC5/cyfitter_cfg.c **** 			{0x64u, 0x04u},
1119:Generated_Source\PSoC5/cyfitter_cfg.c **** 			{0x78u, 0x40u},
ARM GAS  C:\Users\HPz420\AppData\Local\Temp\cc03uF4X.s 			page 31


1120:Generated_Source\PSoC5/cyfitter_cfg.c **** 			{0x7Cu, 0x80u},
1121:Generated_Source\PSoC5/cyfitter_cfg.c **** 			{0x87u, 0x08u},
1122:Generated_Source\PSoC5/cyfitter_cfg.c **** 			{0x98u, 0xC4u},
1123:Generated_Source\PSoC5/cyfitter_cfg.c **** 			{0x9Bu, 0x08u},
1124:Generated_Source\PSoC5/cyfitter_cfg.c **** 			{0xABu, 0x20u},
1125:Generated_Source\PSoC5/cyfitter_cfg.c **** 			{0xB0u, 0x04u},
1126:Generated_Source\PSoC5/cyfitter_cfg.c **** 			{0xD8u, 0x01u},
1127:Generated_Source\PSoC5/cyfitter_cfg.c **** 			{0xDCu, 0x01u},
1128:Generated_Source\PSoC5/cyfitter_cfg.c **** 			{0xDEu, 0x04u},
1129:Generated_Source\PSoC5/cyfitter_cfg.c **** 			{0xECu, 0x01u},
1130:Generated_Source\PSoC5/cyfitter_cfg.c **** 			{0x00u, 0x01u},
1131:Generated_Source\PSoC5/cyfitter_cfg.c **** 			{0x01u, 0x01u},
1132:Generated_Source\PSoC5/cyfitter_cfg.c **** 			{0x0Au, 0x01u},
1133:Generated_Source\PSoC5/cyfitter_cfg.c **** 			{0x0Bu, 0x01u},
1134:Generated_Source\PSoC5/cyfitter_cfg.c **** 			{0x10u, 0x01u},
1135:Generated_Source\PSoC5/cyfitter_cfg.c **** 			{0x11u, 0x01u},
1136:Generated_Source\PSoC5/cyfitter_cfg.c **** 			{0x1Au, 0x01u},
1137:Generated_Source\PSoC5/cyfitter_cfg.c **** 			{0x1Bu, 0x01u},
1138:Generated_Source\PSoC5/cyfitter_cfg.c **** 			{0x00u, 0xABu},
1139:Generated_Source\PSoC5/cyfitter_cfg.c **** 			{0x03u, 0xC0u},
1140:Generated_Source\PSoC5/cyfitter_cfg.c **** 		};
1141:Generated_Source\PSoC5/cyfitter_cfg.c **** 
1142:Generated_Source\PSoC5/cyfitter_cfg.c **** 
1143:Generated_Source\PSoC5/cyfitter_cfg.c **** 
1144:Generated_Source\PSoC5/cyfitter_cfg.c **** 		CYPACKED typedef struct {
1145:Generated_Source\PSoC5/cyfitter_cfg.c **** 			void CYFAR *address;
1146:Generated_Source\PSoC5/cyfitter_cfg.c **** 			uint16 size;
1147:Generated_Source\PSoC5/cyfitter_cfg.c **** 		} CYPACKED_ATTR cfg_memset_t;
1148:Generated_Source\PSoC5/cyfitter_cfg.c **** 
1149:Generated_Source\PSoC5/cyfitter_cfg.c **** 		static const cfg_memset_t CYCODE cfg_memset_list[] = {
1150:Generated_Source\PSoC5/cyfitter_cfg.c **** 			/* address, size */
1151:Generated_Source\PSoC5/cyfitter_cfg.c **** 			{(void CYFAR *)(CYREG_I2C_XCFG), 25u},
1152:Generated_Source\PSoC5/cyfitter_cfg.c **** 			{(void CYFAR *)(CYREG_PRT3_DR), 32u},
1153:Generated_Source\PSoC5/cyfitter_cfg.c **** 			{(void CYFAR *)(CYDEV_UCFG_B0_P0_U0_BASE), 4096u},
1154:Generated_Source\PSoC5/cyfitter_cfg.c **** 			{(void CYFAR *)(CYDEV_UCFG_B1_P2_U0_BASE), 2048u},
1155:Generated_Source\PSoC5/cyfitter_cfg.c **** 			{(void CYFAR *)(CYDEV_UCFG_DSI0_BASE), 2560u},
1156:Generated_Source\PSoC5/cyfitter_cfg.c **** 			{(void CYFAR *)(CYDEV_UCFG_DSI12_BASE), 512u},
1157:Generated_Source\PSoC5/cyfitter_cfg.c **** 			{(void CYFAR *)(CYREG_BCTL0_MDCLK_EN), 32u},
1158:Generated_Source\PSoC5/cyfitter_cfg.c **** 		};
1159:Generated_Source\PSoC5/cyfitter_cfg.c **** 
1160:Generated_Source\PSoC5/cyfitter_cfg.c **** 		uint8 CYDATA i;
1161:Generated_Source\PSoC5/cyfitter_cfg.c **** 
1162:Generated_Source\PSoC5/cyfitter_cfg.c **** 		/* Zero out critical memory blocks before beginning configuration */
1163:Generated_Source\PSoC5/cyfitter_cfg.c **** 		for (i = 0u; i < (sizeof(cfg_memset_list)/sizeof(cfg_memset_list[0])); i++)
 586              		.loc 1 1163 0
 587 0018 0023     		movs	r3, #0
 588 001a FB71     		strb	r3, [r7, #7]
 589 001c 13E0     		b	.L27
 590              	.L28:
 591              	.LBB4:
1164:Generated_Source\PSoC5/cyfitter_cfg.c **** 		{
1165:Generated_Source\PSoC5/cyfitter_cfg.c **** 			const cfg_memset_t CYCODE * CYDATA ms = &cfg_memset_list[i];
 592              		.loc 1 1165 0 discriminator 3
 593 001e FA79     		ldrb	r2, [r7, #7]	@ zero_extendqisi2
 594 0020 1346     		mov	r3, r2
 595 0022 5B00     		lsls	r3, r3, #1
 596 0024 1344     		add	r3, r3, r2
ARM GAS  C:\Users\HPz420\AppData\Local\Temp\cc03uF4X.s 			page 32


 597 0026 5B00     		lsls	r3, r3, #1
 598 0028 364A     		ldr	r2, .L29+4
 599 002a 1344     		add	r3, r3, r2
 600 002c 3B60     		str	r3, [r7]
1166:Generated_Source\PSoC5/cyfitter_cfg.c **** 			CYMEMZERO(ms->address, (size_t)(uint32)(ms->size));
 601              		.loc 1 1166 0 discriminator 3
 602 002e 3B68     		ldr	r3, [r7]
 603 0030 1A68     		ldr	r2, [r3]	@ unaligned
 604 0032 3B68     		ldr	r3, [r7]
 605 0034 9B88     		ldrh	r3, [r3, #4]	@ unaligned
 606 0036 9BB2     		uxth	r3, r3
 607 0038 1946     		mov	r1, r3
 608 003a 1046     		mov	r0, r2
 609 003c FFF7FEFF 		bl	CYMEMZERO
 610              	.LBE4:
1163:Generated_Source\PSoC5/cyfitter_cfg.c **** 		{
 611              		.loc 1 1163 0 discriminator 3
 612 0040 FB79     		ldrb	r3, [r7, #7]	@ zero_extendqisi2
 613 0042 0133     		adds	r3, r3, #1
 614 0044 FB71     		strb	r3, [r7, #7]
 615              	.L27:
1163:Generated_Source\PSoC5/cyfitter_cfg.c **** 		{
 616              		.loc 1 1163 0 is_stmt 0 discriminator 1
 617 0046 FB79     		ldrb	r3, [r7, #7]	@ zero_extendqisi2
 618 0048 062B     		cmp	r3, #6
 619 004a E8D9     		bls	.L28
1167:Generated_Source\PSoC5/cyfitter_cfg.c **** 		}
1168:Generated_Source\PSoC5/cyfitter_cfg.c **** 
1169:Generated_Source\PSoC5/cyfitter_cfg.c **** 		cfg_write_bytes32(cy_cfg_addr_table, cy_cfg_data_table);
 620              		.loc 1 1169 0 is_stmt 1
 621 004c 2E49     		ldr	r1, .L29+8
 622 004e 2F48     		ldr	r0, .L29+12
 623 0050 FFF7FEFF 		bl	cfg_write_bytes32
1170:Generated_Source\PSoC5/cyfitter_cfg.c **** 
1171:Generated_Source\PSoC5/cyfitter_cfg.c **** 		/* Enable digital routing */
1172:Generated_Source\PSoC5/cyfitter_cfg.c **** 		CY_SET_XTND_REG8((void CYFAR *)CYREG_BCTL0_BANK_CTL, CY_GET_XTND_REG8((void CYFAR *)CYREG_BCTL0_B
 624              		.loc 1 1172 0
 625 0054 2E4A     		ldr	r2, .L29+16
 626 0056 2E4B     		ldr	r3, .L29+16
 627 0058 1B78     		ldrb	r3, [r3]
 628 005a DBB2     		uxtb	r3, r3
 629 005c 43F00203 		orr	r3, r3, #2
 630 0060 DBB2     		uxtb	r3, r3
 631 0062 1370     		strb	r3, [r2]
1173:Generated_Source\PSoC5/cyfitter_cfg.c **** 		CY_SET_XTND_REG8((void CYFAR *)CYREG_BCTL1_BANK_CTL, CY_GET_XTND_REG8((void CYFAR *)CYREG_BCTL1_B
 632              		.loc 1 1173 0
 633 0064 2B4A     		ldr	r2, .L29+20
 634 0066 2B4B     		ldr	r3, .L29+20
 635 0068 1B78     		ldrb	r3, [r3]
 636 006a DBB2     		uxtb	r3, r3
 637 006c 43F00203 		orr	r3, r3, #2
 638 0070 DBB2     		uxtb	r3, r3
 639 0072 1370     		strb	r3, [r2]
1174:Generated_Source\PSoC5/cyfitter_cfg.c **** 
1175:Generated_Source\PSoC5/cyfitter_cfg.c **** 		/* Enable UDB array */
1176:Generated_Source\PSoC5/cyfitter_cfg.c **** 		CY_SET_XTND_REG8((void CYFAR *)CYREG_PM_ACT_CFG0, CY_GET_XTND_REG8((void CYFAR *)CYREG_PM_ACT_CFG
 640              		.loc 1 1176 0
ARM GAS  C:\Users\HPz420\AppData\Local\Temp\cc03uF4X.s 			page 33


 641 0074 284A     		ldr	r2, .L29+24
 642 0076 284B     		ldr	r3, .L29+24
 643 0078 1B78     		ldrb	r3, [r3]
 644 007a DBB2     		uxtb	r3, r3
 645 007c 43F04003 		orr	r3, r3, #64
 646 0080 DBB2     		uxtb	r3, r3
 647 0082 1370     		strb	r3, [r2]
1177:Generated_Source\PSoC5/cyfitter_cfg.c **** 		CY_SET_XTND_REG8((void CYFAR *)CYREG_PM_AVAIL_CR2, CY_GET_XTND_REG8((void CYFAR *)CYREG_PM_AVAIL_
 648              		.loc 1 1177 0
 649 0084 254A     		ldr	r2, .L29+28
 650 0086 254B     		ldr	r3, .L29+28
 651 0088 1B78     		ldrb	r3, [r3]
 652 008a DBB2     		uxtb	r3, r3
 653 008c 43F01003 		orr	r3, r3, #16
 654 0090 DBB2     		uxtb	r3, r3
 655 0092 1370     		strb	r3, [r2]
 656              	.LBE3:
1178:Generated_Source\PSoC5/cyfitter_cfg.c **** 	}
1179:Generated_Source\PSoC5/cyfitter_cfg.c **** 
1180:Generated_Source\PSoC5/cyfitter_cfg.c **** 
1181:Generated_Source\PSoC5/cyfitter_cfg.c **** 	/* Perform second pass device configuration. These items must be configured in specific order afte
1182:Generated_Source\PSoC5/cyfitter_cfg.c **** 	CYCONFIGCPYCODE((void CYFAR *)(CYREG_PRT0_DM0), (const void CYCODE *)(BS_IOPINS0_0_VAL), 8u);
 657              		.loc 1 1182 0
 658 0094 0822     		movs	r2, #8
 659 0096 2249     		ldr	r1, .L29+32
 660 0098 2248     		ldr	r0, .L29+36
 661 009a FFF7FEFF 		bl	CYCONFIGCPYCODE
1183:Generated_Source\PSoC5/cyfitter_cfg.c **** 	CYCONFIGCPYCODE((void CYFAR *)(CYREG_PRT12_DR), (const void CYCODE *)(BS_IOPINS0_7_VAL), 10u);
 662              		.loc 1 1183 0
 663 009e 0A22     		movs	r2, #10
 664 00a0 2149     		ldr	r1, .L29+40
 665 00a2 2248     		ldr	r0, .L29+44
 666 00a4 FFF7FEFF 		bl	CYCONFIGCPYCODE
1184:Generated_Source\PSoC5/cyfitter_cfg.c **** 	CYCONFIGCPYCODE((void CYFAR *)(CYREG_PRT15_DR), (const void CYCODE *)(BS_IOPINS0_8_VAL), 10u);
 667              		.loc 1 1184 0
 668 00a8 0A22     		movs	r2, #10
 669 00aa 2149     		ldr	r1, .L29+48
 670 00ac 2148     		ldr	r0, .L29+52
 671 00ae FFF7FEFF 		bl	CYCONFIGCPYCODE
1185:Generated_Source\PSoC5/cyfitter_cfg.c **** 	CYCONFIGCPYCODE((void CYFAR *)(CYREG_PRT1_DM0), (const void CYCODE *)(BS_IOPINS0_1_VAL), 8u);
 672              		.loc 1 1185 0
 673 00b2 0822     		movs	r2, #8
 674 00b4 2049     		ldr	r1, .L29+56
 675 00b6 2148     		ldr	r0, .L29+60
 676 00b8 FFF7FEFF 		bl	CYCONFIGCPYCODE
1186:Generated_Source\PSoC5/cyfitter_cfg.c **** 	CYCONFIGCPYCODE((void CYFAR *)(CYREG_PRT2_DM0), (const void CYCODE *)(BS_IOPINS0_2_VAL), 8u);
 677              		.loc 1 1186 0
 678 00bc 0822     		movs	r2, #8
 679 00be 2049     		ldr	r1, .L29+64
 680 00c0 2048     		ldr	r0, .L29+68
 681 00c2 FFF7FEFF 		bl	CYCONFIGCPYCODE
1187:Generated_Source\PSoC5/cyfitter_cfg.c **** 	CYCONFIGCPYCODE((void CYFAR *)(CYREG_PRT5_DM0), (const void CYCODE *)(BS_IOPINS0_5_VAL), 8u);
 682              		.loc 1 1187 0
 683 00c6 0822     		movs	r2, #8
 684 00c8 1F49     		ldr	r1, .L29+72
 685 00ca 2048     		ldr	r0, .L29+76
 686 00cc FFF7FEFF 		bl	CYCONFIGCPYCODE
ARM GAS  C:\Users\HPz420\AppData\Local\Temp\cc03uF4X.s 			page 34


1188:Generated_Source\PSoC5/cyfitter_cfg.c **** 	CYCONFIGCPYCODE((void CYFAR *)(CYREG_PRT6_DM0), (const void CYCODE *)(BS_IOPINS0_6_VAL), 8u);
 687              		.loc 1 1188 0
 688 00d0 0822     		movs	r2, #8
 689 00d2 1F49     		ldr	r1, .L29+80
 690 00d4 1F48     		ldr	r0, .L29+84
 691 00d6 FFF7FEFF 		bl	CYCONFIGCPYCODE
1189:Generated_Source\PSoC5/cyfitter_cfg.c **** 	/* Switch Boost to the precision bandgap reference from its internal reference */
1190:Generated_Source\PSoC5/cyfitter_cfg.c **** 	CY_SET_REG8((void CYXDATA *)CYREG_BOOST_CR2, (CY_GET_REG8((void CYXDATA *)CYREG_BOOST_CR2) | 0x08u
 692              		.loc 1 1190 0
 693 00da 1F4A     		ldr	r2, .L29+88
 694 00dc 1E4B     		ldr	r3, .L29+88
 695 00de 1B78     		ldrb	r3, [r3]
 696 00e0 DBB2     		uxtb	r3, r3
 697 00e2 43F00803 		orr	r3, r3, #8
 698 00e6 DBB2     		uxtb	r3, r3
 699 00e8 1370     		strb	r3, [r2]
1191:Generated_Source\PSoC5/cyfitter_cfg.c **** 
1192:Generated_Source\PSoC5/cyfitter_cfg.c **** 	/* Perform basic analog initialization to defaults */
1193:Generated_Source\PSoC5/cyfitter_cfg.c **** 	AnalogSetDefault();
 700              		.loc 1 1193 0
 701 00ea FFF7FEFF 		bl	AnalogSetDefault
1194:Generated_Source\PSoC5/cyfitter_cfg.c **** 
1195:Generated_Source\PSoC5/cyfitter_cfg.c **** 	/* Configure alternate active mode */
1196:Generated_Source\PSoC5/cyfitter_cfg.c **** 	CYCONFIGCPY((void CYFAR *)CYDEV_PM_STBY_BASE, (const void CYFAR *)CYDEV_PM_ACT_BASE, 14u);
 702              		.loc 1 1196 0
 703 00ee 0E22     		movs	r2, #14
 704 00f0 0949     		ldr	r1, .L29+24
 705 00f2 1A48     		ldr	r0, .L29+92
 706 00f4 FFF7FEFF 		bl	CYCONFIGCPY
1197:Generated_Source\PSoC5/cyfitter_cfg.c **** }
 707              		.loc 1 1197 0
 708 00f8 00BF     		nop
 709 00fa 0837     		adds	r7, r7, #8
 710              		.cfi_def_cfa_offset 8
 711 00fc BD46     		mov	sp, r7
 712              		.cfi_def_cfa_register 13
 713              		@ sp needed
 714 00fe 80BD     		pop	{r7, pc}
 715              	.L30:
 716              		.align	2
 717              	.L29:
 718 0100 00480040 		.word	1073760256
 719 0104 04000000 		.word	cfg_memset_list.5055
 720 0108 AC000000 		.word	cy_cfg_data_table.5050
 721 010c 30000000 		.word	cy_cfg_addr_table.5049
 722 0110 03500140 		.word	1073827843
 723 0114 13500140 		.word	1073827859
 724 0118 A0430040 		.word	1073759136
 725 011c C2430040 		.word	1073759170
 726 0120 44060000 		.word	BS_IOPINS0_0_VAL.5042
 727 0124 02510040 		.word	1073762562
 728 0128 4C060000 		.word	BS_IOPINS0_7_VAL.5043
 729 012c C0510040 		.word	1073762752
 730 0130 58060000 		.word	BS_IOPINS0_8_VAL.5044
 731 0134 F0510040 		.word	1073762800
 732 0138 64060000 		.word	BS_IOPINS0_1_VAL.5045
 733 013c 12510040 		.word	1073762578
ARM GAS  C:\Users\HPz420\AppData\Local\Temp\cc03uF4X.s 			page 35


 734 0140 6C060000 		.word	BS_IOPINS0_2_VAL.5046
 735 0144 22510040 		.word	1073762594
 736 0148 74060000 		.word	BS_IOPINS0_5_VAL.5047
 737 014c 52510040 		.word	1073762642
 738 0150 7C060000 		.word	BS_IOPINS0_6_VAL.5048
 739 0154 62510040 		.word	1073762658
 740 0158 22430040 		.word	1073759010
 741 015c B0430040 		.word	1073759152
 742              		.cfi_endproc
 743              	.LFE8:
 744              		.size	cyfitter_cfg, .-cyfitter_cfg
 745              		.section	.rodata
 746              		.align	2
 747              		.type	BS_CYDEV_CLKDIST_ACFG0_CFG0_VAL.5023, %object
 748              		.size	BS_CYDEV_CLKDIST_ACFG0_CFG0_VAL.5023, 4
 749              	BS_CYDEV_CLKDIST_ACFG0_CFG0_VAL.5023:
 750 0000 05       		.byte	5
 751 0001 00       		.byte	0
 752 0002 14       		.byte	20
 753 0003 01       		.byte	1
 754              		.align	2
 755              		.type	cfg_memset_list.5055, %object
 756              		.size	cfg_memset_list.5055, 42
 757              	cfg_memset_list.5055:
 758 0004 C8490040 		.word	1073760712
 759 0008 1900     		.short	25
 760 000a 30510040 		.4byte	1073762608
 761 000e 2000     		.short	32
 762 0010 00000140 		.word	1073807360
 763 0014 0010     		.short	4096
 764 0016 00140140 		.4byte	1073812480
 765 001a 0008     		.short	2048
 766 001c 00400140 		.word	1073823744
 767 0020 000A     		.short	2560
 768 0022 004C0140 		.4byte	1073826816
 769 0026 0002     		.short	512
 770 0028 00500140 		.word	1073827840
 771 002c 2000     		.short	32
 772 002e 0000     		.align	2
 773              		.type	cy_cfg_addr_table.5049, %object
 774              		.size	cy_cfg_addr_table.5049, 124
 775              	cy_cfg_addr_table.5049:
 776 0030 01450040 		.word	1073759489
 777 0034 05520040 		.word	1073762821
 778 0038 01640040 		.word	1073767425
 779 003c 02650040 		.word	1073767682
 780 0040 02010140 		.word	1073807618
 781 0044 01030140 		.word	1073808129
 782 0048 53040140 		.word	1073808467
 783 004c 33050140 		.word	1073808691
 784 0050 55060140 		.word	1073808981
 785 0054 45070140 		.word	1073809221
 786 0058 02090140 		.word	1073809666
 787 005c 60140140 		.word	1073812576
 788 0060 49150140 		.word	1073812809
 789 0064 4B160140 		.word	1073813067
 790 0068 45170140 		.word	1073813317
ARM GAS  C:\Users\HPz420\AppData\Local\Temp\cc03uF4X.s 			page 36


 791 006c 02190140 		.word	1073813762
 792 0070 031B0140 		.word	1073814275
 793 0074 06400140 		.word	1073823750
 794 0078 03410140 		.word	1073824003
 795 007c 07420140 		.word	1073824263
 796 0080 0A430140 		.word	1073824522
 797 0084 03440140 		.word	1073824771
 798 0088 02450140 		.word	1073825026
 799 008c 02460140 		.word	1073825282
 800 0090 09470140 		.word	1073825545
 801 0094 06480140 		.word	1073825798
 802 0098 0C490140 		.word	1073826060
 803 009c 0E4C0140 		.word	1073826830
 804 00a0 0C4D0140 		.word	1073827084
 805 00a4 08500140 		.word	1073827848
 806 00a8 02510140 		.word	1073828098
 807              		.align	2
 808              		.type	cy_cfg_data_table.5050, %object
 809              		.size	cy_cfg_data_table.5050, 1432
 810              	cy_cfg_data_table.5050:
 811 00ac 7E       		.byte	126
 812 00ad 02       		.byte	2
 813 00ae 28       		.byte	40
 814 00af 10       		.byte	16
 815 00b0 29       		.byte	41
 816 00b1 10       		.byte	16
 817 00b2 60       		.byte	96
 818 00b3 22       		.byte	34
 819 00b4 61       		.byte	97
 820 00b5 32       		.byte	50
 821 00b6 7C       		.byte	124
 822 00b7 40       		.byte	64
 823 00b8 27       		.byte	39
 824 00b9 04       		.byte	4
 825 00ba 24       		.byte	36
 826 00bb 0F       		.byte	15
 827 00bc 34       		.byte	52
 828 00bd 08       		.byte	8
 829 00be 89       		.byte	-119
 830 00bf 02       		.byte	2
 831 00c0 E6       		.byte	-26
 832 00c1 20       		.byte	32
 833 00c2 A5       		.byte	-91
 834 00c3 02       		.byte	2
 835 00c4 03       		.byte	3
 836 00c5 01       		.byte	1
 837 00c6 04       		.byte	4
 838 00c7 01       		.byte	1
 839 00c8 06       		.byte	6
 840 00c9 06       		.byte	6
 841 00ca 0C       		.byte	12
 842 00cb 89       		.byte	-119
 843 00cc 0E       		.byte	14
 844 00cd 44       		.byte	68
 845 00ce 10       		.byte	16
 846 00cf 10       		.byte	16
 847 00d0 12       		.byte	18
ARM GAS  C:\Users\HPz420\AppData\Local\Temp\cc03uF4X.s 			page 37


 848 00d1 2B       		.byte	43
 849 00d2 14       		.byte	20
 850 00d3 08       		.byte	8
 851 00d4 16       		.byte	22
 852 00d5 70       		.byte	112
 853 00d6 18       		.byte	24
 854 00d7 1B       		.byte	27
 855 00d8 1A       		.byte	26
 856 00d9 20       		.byte	32
 857 00da 1C       		.byte	28
 858 00db 33       		.byte	51
 859 00dc 1E       		.byte	30
 860 00dd 08       		.byte	8
 861 00de 20       		.byte	32
 862 00df 38       		.byte	56
 863 00e0 22       		.byte	34
 864 00e1 03       		.byte	3
 865 00e2 24       		.byte	36
 866 00e3 38       		.byte	56
 867 00e4 26       		.byte	38
 868 00e5 03       		.byte	3
 869 00e6 28       		.byte	40
 870 00e7 80       		.byte	-128
 871 00e8 2A       		.byte	42
 872 00e9 03       		.byte	3
 873 00ea 2C       		.byte	44
 874 00eb 02       		.byte	2
 875 00ec 2E       		.byte	46
 876 00ed 01       		.byte	1
 877 00ee 30       		.byte	48
 878 00ef 80       		.byte	-128
 879 00f0 32       		.byte	50
 880 00f1 78       		.byte	120
 881 00f2 33       		.byte	51
 882 00f3 01       		.byte	1
 883 00f4 34       		.byte	52
 884 00f5 07       		.byte	7
 885 00f6 38       		.byte	56
 886 00f7 02       		.byte	2
 887 00f8 3A       		.byte	58
 888 00f9 28       		.byte	40
 889 00fa 54       		.byte	84
 890 00fb 20       		.byte	32
 891 00fc 56       		.byte	86
 892 00fd 04       		.byte	4
 893 00fe 58       		.byte	88
 894 00ff 04       		.byte	4
 895 0100 59       		.byte	89
 896 0101 04       		.byte	4
 897 0102 5B       		.byte	91
 898 0103 04       		.byte	4
 899 0104 5F       		.byte	95
 900 0105 01       		.byte	1
 901 0106 80       		.byte	-128
 902 0107 BA       		.byte	-70
 903 0108 81       		.byte	-127
 904 0109 1F       		.byte	31
ARM GAS  C:\Users\HPz420\AppData\Local\Temp\cc03uF4X.s 			page 38


 905 010a 82       		.byte	-126
 906 010b 04       		.byte	4
 907 010c 84       		.byte	-124
 908 010d 01       		.byte	1
 909 010e 85       		.byte	-123
 910 010f 90       		.byte	-112
 911 0110 87       		.byte	-121
 912 0111 0B       		.byte	11
 913 0112 88       		.byte	-120
 914 0113 01       		.byte	1
 915 0114 89       		.byte	-119
 916 0115 03       		.byte	3
 917 0116 8B       		.byte	-117
 918 0117 20       		.byte	32
 919 0118 8C       		.byte	-116
 920 0119 03       		.byte	3
 921 011a 8D       		.byte	-115
 922 011b 42       		.byte	66
 923 011c 8F       		.byte	-113
 924 011d 09       		.byte	9
 925 011e 90       		.byte	-112
 926 011f A2       		.byte	-94
 927 0120 91       		.byte	-111
 928 0121 40       		.byte	64
 929 0122 92       		.byte	-110
 930 0123 05       		.byte	5
 931 0124 93       		.byte	-109
 932 0125 14       		.byte	20
 933 0126 94       		.byte	-108
 934 0127 01       		.byte	1
 935 0128 95       		.byte	-107
 936 0129 48       		.byte	72
 937 012a 97       		.byte	-105
 938 012b 02       		.byte	2
 939 012c 98       		.byte	-104
 940 012d 88       		.byte	-120
 941 012e 9A       		.byte	-102
 942 012f 07       		.byte	7
 943 0130 9B       		.byte	-101
 944 0131 01       		.byte	1
 945 0132 9C       		.byte	-100
 946 0133 7F       		.byte	127
 947 0134 9D       		.byte	-99
 948 0135 40       		.byte	64
 949 0136 9F       		.byte	-97
 950 0137 0B       		.byte	11
 951 0138 A0       		.byte	-96
 952 0139 40       		.byte	64
 953 013a A1       		.byte	-95
 954 013b 01       		.byte	1
 955 013c A2       		.byte	-94
 956 013d 07       		.byte	7
 957 013e A4       		.byte	-92
 958 013f 85       		.byte	-123
 959 0140 A5       		.byte	-91
 960 0141 4F       		.byte	79
 961 0142 A6       		.byte	-90
ARM GAS  C:\Users\HPz420\AppData\Local\Temp\cc03uF4X.s 			page 39


 962 0143 78       		.byte	120
 963 0144 A8       		.byte	-88
 964 0145 03       		.byte	3
 965 0146 A9       		.byte	-87
 966 0147 01       		.byte	1
 967 0148 AC       		.byte	-84
 968 0149 90       		.byte	-112
 969 014a AD       		.byte	-83
 970 014b 03       		.byte	3
 971 014c AE       		.byte	-82
 972 014d 07       		.byte	7
 973 014e B2       		.byte	-78
 974 014f 7F       		.byte	127
 975 0150 B3       		.byte	-77
 976 0151 E0       		.byte	-32
 977 0152 B6       		.byte	-74
 978 0153 80       		.byte	-128
 979 0154 B7       		.byte	-73
 980 0155 1F       		.byte	31
 981 0156 B8       		.byte	-72
 982 0157 80       		.byte	-128
 983 0158 B9       		.byte	-71
 984 0159 08       		.byte	8
 985 015a BE       		.byte	-66
 986 015b 44       		.byte	68
 987 015c BF       		.byte	-65
 988 015d 04       		.byte	4
 989 015e D6       		.byte	-42
 990 015f 08       		.byte	8
 991 0160 D8       		.byte	-40
 992 0161 04       		.byte	4
 993 0162 D9       		.byte	-39
 994 0163 04       		.byte	4
 995 0164 DB       		.byte	-37
 996 0165 04       		.byte	4
 997 0166 DD       		.byte	-35
 998 0167 90       		.byte	-112
 999 0168 DF       		.byte	-33
 1000 0169 01       		.byte	1
 1001 016a 02       		.byte	2
 1002 016b 02       		.byte	2
 1003 016c 03       		.byte	3
 1004 016d 20       		.byte	32
 1005 016e 04       		.byte	4
 1006 016f 02       		.byte	2
 1007 0170 05       		.byte	5
 1008 0171 80       		.byte	-128
 1009 0172 07       		.byte	7
 1010 0173 18       		.byte	24
 1011 0174 08       		.byte	8
 1012 0175 58       		.byte	88
 1013 0176 0A       		.byte	10
 1014 0177 60       		.byte	96
 1015 0178 0C       		.byte	12
 1016 0179 18       		.byte	24
 1017 017a 0E       		.byte	14
 1018 017b 4A       		.byte	74
ARM GAS  C:\Users\HPz420\AppData\Local\Temp\cc03uF4X.s 			page 40


 1019 017c 0F       		.byte	15
 1020 017d 02       		.byte	2
 1021 017e 10       		.byte	16
 1022 017f 05       		.byte	5
 1023 0180 11       		.byte	17
 1024 0181 04       		.byte	4
 1025 0182 13       		.byte	19
 1026 0183 02       		.byte	2
 1027 0184 15       		.byte	21
 1028 0185 16       		.byte	22
 1029 0186 17       		.byte	23
 1030 0187 40       		.byte	64
 1031 0188 19       		.byte	25
 1032 0189 22       		.byte	34
 1033 018a 1A       		.byte	26
 1034 018b 20       		.byte	32
 1035 018c 1B       		.byte	27
 1036 018d 20       		.byte	32
 1037 018e 1D       		.byte	29
 1038 018f 84       		.byte	-124
 1039 0190 22       		.byte	34
 1040 0191 08       		.byte	8
 1041 0192 24       		.byte	36
 1042 0193 02       		.byte	2
 1043 0194 25       		.byte	37
 1044 0195 08       		.byte	8
 1045 0196 27       		.byte	39
 1046 0197 03       		.byte	3
 1047 0198 2C       		.byte	44
 1048 0199 08       		.byte	8
 1049 019a 2D       		.byte	45
 1050 019b 84       		.byte	-124
 1051 019c 2F       		.byte	47
 1052 019d 40       		.byte	64
 1053 019e 34       		.byte	52
 1054 019f 42       		.byte	66
 1055 01a0 36       		.byte	54
 1056 01a1 84       		.byte	-124
 1057 01a2 37       		.byte	55
 1058 01a3 51       		.byte	81
 1059 01a4 3B       		.byte	59
 1060 01a5 01       		.byte	1
 1061 01a6 3C       		.byte	60
 1062 01a7 20       		.byte	32
 1063 01a8 3D       		.byte	61
 1064 01a9 10       		.byte	16
 1065 01aa 3E       		.byte	62
 1066 01ab 48       		.byte	72
 1067 01ac 3F       		.byte	63
 1068 01ad 02       		.byte	2
 1069 01ae 58       		.byte	88
 1070 01af 08       		.byte	8
 1071 01b0 59       		.byte	89
 1072 01b1 21       		.byte	33
 1073 01b2 5B       		.byte	91
 1074 01b3 80       		.byte	-128
 1075 01b4 5F       		.byte	95
ARM GAS  C:\Users\HPz420\AppData\Local\Temp\cc03uF4X.s 			page 41


 1076 01b5 40       		.byte	64
 1077 01b6 60       		.byte	96
 1078 01b7 04       		.byte	4
 1079 01b8 61       		.byte	97
 1080 01b9 82       		.byte	-126
 1081 01ba 64       		.byte	100
 1082 01bb 01       		.byte	1
 1083 01bc 67       		.byte	103
 1084 01bd 01       		.byte	1
 1085 01be A5       		.byte	-91
 1086 01bf 02       		.byte	2
 1087 01c0 C0       		.byte	-64
 1088 01c1 F5       		.byte	-11
 1089 01c2 C2       		.byte	-62
 1090 01c3 FF       		.byte	-1
 1091 01c4 C4       		.byte	-60
 1092 01c5 FF       		.byte	-1
 1093 01c6 CA       		.byte	-54
 1094 01c7 F0       		.byte	-16
 1095 01c8 CC       		.byte	-52
 1096 01c9 F0       		.byte	-16
 1097 01ca CE       		.byte	-50
 1098 01cb F1       		.byte	-15
 1099 01cc D6       		.byte	-42
 1100 01cd 1F       		.byte	31
 1101 01ce D8       		.byte	-40
 1102 01cf 1D       		.byte	29
 1103 01d0 02       		.byte	2
 1104 01d1 01       		.byte	1
 1105 01d2 03       		.byte	3
 1106 01d3 02       		.byte	2
 1107 01d4 04       		.byte	4
 1108 01d5 A9       		.byte	-87
 1109 01d6 05       		.byte	5
 1110 01d7 0D       		.byte	13
 1111 01d8 06       		.byte	6
 1112 01d9 54       		.byte	84
 1113 01da 08       		.byte	8
 1114 01db 04       		.byte	4
 1115 01dc 09       		.byte	9
 1116 01dd 01       		.byte	1
 1117 01de 0C       		.byte	12
 1118 01df 02       		.byte	2
 1119 01e0 0D       		.byte	13
 1120 01e1 04       		.byte	4
 1121 01e2 0F       		.byte	15
 1122 01e3 E0       		.byte	-32
 1123 01e4 10       		.byte	16
 1124 01e5 A5       		.byte	-91
 1125 01e6 11       		.byte	17
 1126 01e7 E2       		.byte	-30
 1127 01e8 12       		.byte	18
 1128 01e9 4A       		.byte	74
 1129 01ea 14       		.byte	20
 1130 01eb 1A       		.byte	26
 1131 01ec 15       		.byte	21
 1132 01ed 01       		.byte	1
ARM GAS  C:\Users\HPz420\AppData\Local\Temp\cc03uF4X.s 			page 42


 1133 01ee 16       		.byte	22
 1134 01ef 60       		.byte	96
 1135 01f0 18       		.byte	24
 1136 01f1 4D       		.byte	77
 1137 01f2 19       		.byte	25
 1138 01f3 3D       		.byte	61
 1139 01f4 1A       		.byte	26
 1140 01f5 92       		.byte	-110
 1141 01f6 1B       		.byte	27
 1142 01f7 C2       		.byte	-62
 1143 01f8 1C       		.byte	28
 1144 01f9 FF       		.byte	-1
 1145 01fa 1D       		.byte	29
 1146 01fb 92       		.byte	-110
 1147 01fc 1F       		.byte	31
 1148 01fd 60       		.byte	96
 1149 01fe 20       		.byte	32
 1150 01ff CC       		.byte	-52
 1151 0200 21       		.byte	33
 1152 0201 40       		.byte	64
 1153 0202 22       		.byte	34
 1154 0203 13       		.byte	19
 1155 0204 23       		.byte	35
 1156 0205 1D       		.byte	29
 1157 0206 26       		.byte	38
 1158 0207 02       		.byte	2
 1159 0208 27       		.byte	39
 1160 0209 FF       		.byte	-1
 1161 020a 29       		.byte	41
 1162 020b 5D       		.byte	93
 1163 020c 2A       		.byte	42
 1164 020d B5       		.byte	-75
 1165 020e 2B       		.byte	43
 1166 020f A2       		.byte	-94
 1167 0210 2E       		.byte	46
 1168 0211 04       		.byte	4
 1169 0212 2F       		.byte	47
 1170 0213 08       		.byte	8
 1171 0214 33       		.byte	51
 1172 0215 FF       		.byte	-1
 1173 0216 36       		.byte	54
 1174 0217 FF       		.byte	-1
 1175 0218 3E       		.byte	62
 1176 0219 40       		.byte	64
 1177 021a 3F       		.byte	63
 1178 021b 04       		.byte	4
 1179 021c 52       		.byte	82
 1180 021d F6       		.byte	-10
 1181 021e 58       		.byte	88
 1182 021f 04       		.byte	4
 1183 0220 59       		.byte	89
 1184 0221 04       		.byte	4
 1185 0222 5B       		.byte	91
 1186 0223 04       		.byte	4
 1187 0224 5F       		.byte	95
 1188 0225 01       		.byte	1
 1189 0226 80       		.byte	-128
ARM GAS  C:\Users\HPz420\AppData\Local\Temp\cc03uF4X.s 			page 43


 1190 0227 02       		.byte	2
 1191 0228 82       		.byte	-126
 1192 0229 3C       		.byte	60
 1193 022a 84       		.byte	-124
 1194 022b 02       		.byte	2
 1195 022c 88       		.byte	-120
 1196 022d 3F       		.byte	63
 1197 022e 8C       		.byte	-116
 1198 022f 0C       		.byte	12
 1199 0230 8E       		.byte	-114
 1200 0231 01       		.byte	1
 1201 0232 90       		.byte	-112
 1202 0233 04       		.byte	4
 1203 0234 92       		.byte	-110
 1204 0235 30       		.byte	48
 1205 0236 94       		.byte	-108
 1206 0237 01       		.byte	1
 1207 0238 98       		.byte	-104
 1208 0239 14       		.byte	20
 1209 023a 9A       		.byte	-102
 1210 023b 20       		.byte	32
 1211 023c 9C       		.byte	-100
 1212 023d 24       		.byte	36
 1213 023e 9E       		.byte	-98
 1214 023f 10       		.byte	16
 1215 0240 A0       		.byte	-96
 1216 0241 30       		.byte	48
 1217 0242 A2       		.byte	-94
 1218 0243 0C       		.byte	12
 1219 0244 A4       		.byte	-92
 1220 0245 08       		.byte	8
 1221 0246 A8       		.byte	-88
 1222 0247 38       		.byte	56
 1223 0248 AA       		.byte	-86
 1224 0249 04       		.byte	4
 1225 024a AC       		.byte	-84
 1226 024b 04       		.byte	4
 1227 024c B4       		.byte	-76
 1228 024d 3E       		.byte	62
 1229 024e B6       		.byte	-74
 1230 024f 01       		.byte	1
 1231 0250 B8       		.byte	-72
 1232 0251 20       		.byte	32
 1233 0252 C0       		.byte	-64
 1234 0253 31       		.byte	49
 1235 0254 C4       		.byte	-60
 1236 0255 06       		.byte	6
 1237 0256 C5       		.byte	-59
 1238 0257 0D       		.byte	13
 1239 0258 C6       		.byte	-58
 1240 0259 B0       		.byte	-80
 1241 025a C8       		.byte	-56
 1242 025b 09       		.byte	9
 1243 025c C9       		.byte	-55
 1244 025d FF       		.byte	-1
 1245 025e CA       		.byte	-54
 1246 025f 7F       		.byte	127
ARM GAS  C:\Users\HPz420\AppData\Local\Temp\cc03uF4X.s 			page 44


 1247 0260 CB       		.byte	-53
 1248 0261 FF       		.byte	-1
 1249 0262 CC       		.byte	-52
 1250 0263 42       		.byte	66
 1251 0264 CD       		.byte	-51
 1252 0265 A0       		.byte	-96
 1253 0266 CE       		.byte	-50
 1254 0267 70       		.byte	112
 1255 0268 D0       		.byte	-48
 1256 0269 0C       		.byte	12
 1257 026a D8       		.byte	-40
 1258 026b 04       		.byte	4
 1259 026c DA       		.byte	-38
 1260 026d 04       		.byte	4
 1261 026e DF       		.byte	-33
 1262 026f 01       		.byte	1
 1263 0270 E1       		.byte	-31
 1264 0271 09       		.byte	9
 1265 0272 E2       		.byte	-30
 1266 0273 40       		.byte	64
 1267 0274 E3       		.byte	-29
 1268 0275 09       		.byte	9
 1269 0276 E4       		.byte	-28
 1270 0277 30       		.byte	48
 1271 0278 E5       		.byte	-27
 1272 0279 09       		.byte	9
 1273 027a 01       		.byte	1
 1274 027b 82       		.byte	-126
 1275 027c 03       		.byte	3
 1276 027d 28       		.byte	40
 1277 027e 04       		.byte	4
 1278 027f 08       		.byte	8
 1279 0280 05       		.byte	5
 1280 0281 80       		.byte	-128
 1281 0282 07       		.byte	7
 1282 0283 48       		.byte	72
 1283 0284 08       		.byte	8
 1284 0285 40       		.byte	64
 1285 0286 09       		.byte	9
 1286 0287 28       		.byte	40
 1287 0288 0A       		.byte	10
 1288 0289 40       		.byte	64
 1289 028a 0E       		.byte	14
 1290 028b 6A       		.byte	106
 1291 028c 10       		.byte	16
 1292 028d 20       		.byte	32
 1293 028e 12       		.byte	18
 1294 028f 01       		.byte	1
 1295 0290 13       		.byte	19
 1296 0291 22       		.byte	34
 1297 0292 14       		.byte	20
 1298 0293 44       		.byte	68
 1299 0294 15       		.byte	21
 1300 0295 02       		.byte	2
 1301 0296 16       		.byte	22
 1302 0297 2A       		.byte	42
 1303 0298 19       		.byte	25
ARM GAS  C:\Users\HPz420\AppData\Local\Temp\cc03uF4X.s 			page 45


 1304 0299 80       		.byte	-128
 1305 029a 1B       		.byte	27
 1306 029b 20       		.byte	32
 1307 029c 1F       		.byte	31
 1308 029d 80       		.byte	-128
 1309 029e 24       		.byte	36
 1310 029f 20       		.byte	32
 1311 02a0 2D       		.byte	45
 1312 02a1 A1       		.byte	-95
 1313 02a2 2E       		.byte	46
 1314 02a3 08       		.byte	8
 1315 02a4 36       		.byte	54
 1316 02a5 93       		.byte	-109
 1317 02a6 37       		.byte	55
 1318 02a7 28       		.byte	40
 1319 02a8 3E       		.byte	62
 1320 02a9 62       		.byte	98
 1321 02aa 3F       		.byte	63
 1322 02ab 04       		.byte	4
 1323 02ac 41       		.byte	65
 1324 02ad 48       		.byte	72
 1325 02ae 48       		.byte	72
 1326 02af 10       		.byte	16
 1327 02b0 4A       		.byte	74
 1328 02b1 08       		.byte	8
 1329 02b2 4B       		.byte	75
 1330 02b3 04       		.byte	4
 1331 02b4 50       		.byte	80
 1332 02b5 20       		.byte	32
 1333 02b6 6F       		.byte	111
 1334 02b7 14       		.byte	20
 1335 02b8 74       		.byte	116
 1336 02b9 08       		.byte	8
 1337 02ba 76       		.byte	118
 1338 02bb 23       		.byte	35
 1339 02bc 77       		.byte	119
 1340 02bd 48       		.byte	72
 1341 02be 80       		.byte	-128
 1342 02bf 04       		.byte	4
 1343 02c0 81       		.byte	-127
 1344 02c1 20       		.byte	32
 1345 02c2 83       		.byte	-125
 1346 02c3 02       		.byte	2
 1347 02c4 8F       		.byte	-113
 1348 02c5 20       		.byte	32
 1349 02c6 94       		.byte	-108
 1350 02c7 04       		.byte	4
 1351 02c8 95       		.byte	-107
 1352 02c9 04       		.byte	4
 1353 02ca 96       		.byte	-106
 1354 02cb 50       		.byte	80
 1355 02cc 98       		.byte	-104
 1356 02cd 02       		.byte	2
 1357 02ce 99       		.byte	-103
 1358 02cf 06       		.byte	6
 1359 02d0 9B       		.byte	-101
 1360 02d1 02       		.byte	2
ARM GAS  C:\Users\HPz420\AppData\Local\Temp\cc03uF4X.s 			page 46


 1361 02d2 9C       		.byte	-100
 1362 02d3 04       		.byte	4
 1363 02d4 9D       		.byte	-99
 1364 02d5 81       		.byte	-127
 1365 02d6 9E       		.byte	-98
 1366 02d7 08       		.byte	8
 1367 02d8 9F       		.byte	-97
 1368 02d9 18       		.byte	24
 1369 02da A1       		.byte	-95
 1370 02db 08       		.byte	8
 1371 02dc A2       		.byte	-94
 1372 02dd 08       		.byte	8
 1373 02de A4       		.byte	-92
 1374 02df 18       		.byte	24
 1375 02e0 A6       		.byte	-90
 1376 02e1 87       		.byte	-121
 1377 02e2 AD       		.byte	-83
 1378 02e3 01       		.byte	1
 1379 02e4 AE       		.byte	-82
 1380 02e5 08       		.byte	8
 1381 02e6 AF       		.byte	-81
 1382 02e7 48       		.byte	72
 1383 02e8 B3       		.byte	-77
 1384 02e9 40       		.byte	64
 1385 02ea B6       		.byte	-74
 1386 02eb 10       		.byte	16
 1387 02ec B7       		.byte	-73
 1388 02ed 80       		.byte	-128
 1389 02ee C0       		.byte	-64
 1390 02ef FF       		.byte	-1
 1391 02f0 C2       		.byte	-62
 1392 02f1 FF       		.byte	-1
 1393 02f2 C4       		.byte	-60
 1394 02f3 FF       		.byte	-1
 1395 02f4 CA       		.byte	-54
 1396 02f5 F0       		.byte	-16
 1397 02f6 CC       		.byte	-52
 1398 02f7 F0       		.byte	-16
 1399 02f8 CE       		.byte	-50
 1400 02f9 F0       		.byte	-16
 1401 02fa D0       		.byte	-48
 1402 02fb 0A       		.byte	10
 1403 02fc D2       		.byte	-46
 1404 02fd 04       		.byte	4
 1405 02fe E2       		.byte	-30
 1406 02ff 42       		.byte	66
 1407 0300 E8       		.byte	-24
 1408 0301 20       		.byte	32
 1409 0302 EA       		.byte	-22
 1410 0303 40       		.byte	64
 1411 0304 E2       		.byte	-30
 1412 0305 02       		.byte	2
 1413 0306 EA       		.byte	-22
 1414 0307 40       		.byte	64
 1415 0308 00       		.byte	0
 1416 0309 40       		.byte	64
 1417 030a 02       		.byte	2
ARM GAS  C:\Users\HPz420\AppData\Local\Temp\cc03uF4X.s 			page 47


 1418 030b 08       		.byte	8
 1419 030c 05       		.byte	5
 1420 030d 09       		.byte	9
 1421 030e 06       		.byte	6
 1422 030f 20       		.byte	32
 1423 0310 08       		.byte	8
 1424 0311 50       		.byte	80
 1425 0312 0A       		.byte	10
 1426 0313 01       		.byte	1
 1427 0314 0C       		.byte	12
 1428 0315 40       		.byte	64
 1429 0316 0D       		.byte	13
 1430 0317 08       		.byte	8
 1431 0318 0E       		.byte	14
 1432 0319 18       		.byte	24
 1433 031a 10       		.byte	16
 1434 031b 3F       		.byte	63
 1435 031c 14       		.byte	20
 1436 031d 04       		.byte	4
 1437 031e 15       		.byte	21
 1438 031f 02       		.byte	2
 1439 0320 16       		.byte	22
 1440 0321 08       		.byte	8
 1441 0322 17       		.byte	23
 1442 0323 04       		.byte	4
 1443 0324 19       		.byte	25
 1444 0325 09       		.byte	9
 1445 0326 1A       		.byte	26
 1446 0327 40       		.byte	64
 1447 0328 20       		.byte	32
 1448 0329 50       		.byte	80
 1449 032a 22       		.byte	34
 1450 032b 02       		.byte	2
 1451 032c 24       		.byte	36
 1452 032d 40       		.byte	64
 1453 032e 26       		.byte	38
 1454 032f 14       		.byte	20
 1455 0330 28       		.byte	40
 1456 0331 80       		.byte	-128
 1457 0332 2C       		.byte	44
 1458 0333 0F       		.byte	15
 1459 0334 2D       		.byte	45
 1460 0335 02       		.byte	2
 1461 0336 2F       		.byte	47
 1462 0337 04       		.byte	4
 1463 0338 31       		.byte	49
 1464 0339 01       		.byte	1
 1465 033a 32       		.byte	50
 1466 033b 3F       		.byte	63
 1467 033c 34       		.byte	52
 1468 033d C0       		.byte	-64
 1469 033e 35       		.byte	53
 1470 033f 08       		.byte	8
 1471 0340 37       		.byte	55
 1472 0341 07       		.byte	7
 1473 0342 38       		.byte	56
 1474 0343 28       		.byte	40
ARM GAS  C:\Users\HPz420\AppData\Local\Temp\cc03uF4X.s 			page 48


 1475 0344 39       		.byte	57
 1476 0345 A2       		.byte	-94
 1477 0346 3E       		.byte	62
 1478 0347 10       		.byte	16
 1479 0348 3F       		.byte	63
 1480 0349 41       		.byte	65
 1481 034a 40       		.byte	64
 1482 034b 42       		.byte	66
 1483 034c 47       		.byte	71
 1484 034d 52       		.byte	82
 1485 034e 48       		.byte	72
 1486 034f 30       		.byte	48
 1487 0350 49       		.byte	73
 1488 0351 FF       		.byte	-1
 1489 0352 4A       		.byte	74
 1490 0353 FF       		.byte	-1
 1491 0354 4B       		.byte	75
 1492 0355 FF       		.byte	-1
 1493 0356 4C       		.byte	76
 1494 0357 42       		.byte	66
 1495 0358 4D       		.byte	77
 1496 0359 A0       		.byte	-96
 1497 035a 4E       		.byte	78
 1498 035b 70       		.byte	112
 1499 035c 50       		.byte	80
 1500 035d 08       		.byte	8
 1501 035e 51       		.byte	81
 1502 035f 10       		.byte	16
 1503 0360 56       		.byte	86
 1504 0361 08       		.byte	8
 1505 0362 58       		.byte	88
 1506 0363 04       		.byte	4
 1507 0364 59       		.byte	89
 1508 0365 04       		.byte	4
 1509 0366 5A       		.byte	90
 1510 0367 04       		.byte	4
 1511 0368 5B       		.byte	91
 1512 0369 04       		.byte	4
 1513 036a 5D       		.byte	93
 1514 036b 90       		.byte	-112
 1515 036c 5F       		.byte	95
 1516 036d 01       		.byte	1
 1517 036e 61       		.byte	97
 1518 036f 48       		.byte	72
 1519 0370 62       		.byte	98
 1520 0371 40       		.byte	64
 1521 0372 63       		.byte	99
 1522 0373 48       		.byte	72
 1523 0374 64       		.byte	100
 1524 0375 80       		.byte	-128
 1525 0376 65       		.byte	101
 1526 0377 48       		.byte	72
 1527 0378 66       		.byte	102
 1528 0379 80       		.byte	-128
 1529 037a 67       		.byte	103
 1530 037b 48       		.byte	72
 1531 037c 81       		.byte	-127
ARM GAS  C:\Users\HPz420\AppData\Local\Temp\cc03uF4X.s 			page 49


 1532 037d 01       		.byte	1
 1533 037e 82       		.byte	-126
 1534 037f F0       		.byte	-16
 1535 0380 83       		.byte	-125
 1536 0381 06       		.byte	6
 1537 0382 86       		.byte	-122
 1538 0383 F0       		.byte	-16
 1539 0384 88       		.byte	-120
 1540 0385 F0       		.byte	-16
 1541 0386 8C       		.byte	-116
 1542 0387 04       		.byte	4
 1543 0388 8E       		.byte	-114
 1544 0389 81       		.byte	-127
 1545 038a 90       		.byte	-112
 1546 038b 01       		.byte	1
 1547 038c 92       		.byte	-110
 1548 038d 0E       		.byte	14
 1549 038e 94       		.byte	-108
 1550 038f 01       		.byte	1
 1551 0390 95       		.byte	-107
 1552 0391 01       		.byte	1
 1553 0392 96       		.byte	-106
 1554 0393 02       		.byte	2
 1555 0394 97       		.byte	-105
 1556 0395 02       		.byte	2
 1557 0396 98       		.byte	-104
 1558 0397 05       		.byte	5
 1559 0398 9A       		.byte	-102
 1560 0399 40       		.byte	64
 1561 039a 9B       		.byte	-101
 1562 039b 08       		.byte	8
 1563 039c 9C       		.byte	-100
 1564 039d 01       		.byte	1
 1565 039e 9E       		.byte	-98
 1566 039f 08       		.byte	8
 1567 03a0 A0       		.byte	-96
 1568 03a1 04       		.byte	4
 1569 03a2 A2       		.byte	-94
 1570 03a3 81       		.byte	-127
 1571 03a4 A4       		.byte	-92
 1572 03a5 05       		.byte	5
 1573 03a6 A6       		.byte	-90
 1574 03a7 10       		.byte	16
 1575 03a8 A8       		.byte	-88
 1576 03a9 F0       		.byte	-16
 1577 03aa AC       		.byte	-84
 1578 03ab 05       		.byte	5
 1579 03ac AE       		.byte	-82
 1580 03ad 20       		.byte	32
 1581 03ae B0       		.byte	-80
 1582 03af 0F       		.byte	15
 1583 03b0 B3       		.byte	-77
 1584 03b1 03       		.byte	3
 1585 03b2 B4       		.byte	-76
 1586 03b3 F0       		.byte	-16
 1587 03b4 B5       		.byte	-75
 1588 03b5 04       		.byte	4
ARM GAS  C:\Users\HPz420\AppData\Local\Temp\cc03uF4X.s 			page 50


 1589 03b6 B7       		.byte	-73
 1590 03b7 08       		.byte	8
 1591 03b8 BA       		.byte	-70
 1592 03b9 02       		.byte	2
 1593 03ba BE       		.byte	-66
 1594 03bb 10       		.byte	16
 1595 03bc D6       		.byte	-42
 1596 03bd 08       		.byte	8
 1597 03be D8       		.byte	-40
 1598 03bf 04       		.byte	4
 1599 03c0 D9       		.byte	-39
 1600 03c1 04       		.byte	4
 1601 03c2 DB       		.byte	-37
 1602 03c3 04       		.byte	4
 1603 03c4 DD       		.byte	-35
 1604 03c5 90       		.byte	-112
 1605 03c6 DF       		.byte	-33
 1606 03c7 01       		.byte	1
 1607 03c8 00       		.byte	0
 1608 03c9 08       		.byte	8
 1609 03ca 01       		.byte	1
 1610 03cb 02       		.byte	2
 1611 03cc 03       		.byte	3
 1612 03cd 05       		.byte	5
 1613 03ce 04       		.byte	4
 1614 03cf 82       		.byte	-126
 1615 03d0 05       		.byte	5
 1616 03d1 08       		.byte	8
 1617 03d2 06       		.byte	6
 1618 03d3 80       		.byte	-128
 1619 03d4 07       		.byte	7
 1620 03d5 08       		.byte	8
 1621 03d6 0A       		.byte	10
 1622 03d7 20       		.byte	32
 1623 03d8 0B       		.byte	11
 1624 03d9 84       		.byte	-124
 1625 03da 0C       		.byte	12
 1626 03db 10       		.byte	16
 1627 03dc 0D       		.byte	13
 1628 03dd 08       		.byte	8
 1629 03de 0E       		.byte	14
 1630 03df 4A       		.byte	74
 1631 03e0 10       		.byte	16
 1632 03e1 10       		.byte	16
 1633 03e2 12       		.byte	18
 1634 03e3 4A       		.byte	74
 1635 03e4 14       		.byte	20
 1636 03e5 02       		.byte	2
 1637 03e6 15       		.byte	21
 1638 03e7 2A       		.byte	42
 1639 03e8 16       		.byte	22
 1640 03e9 08       		.byte	8
 1641 03ea 17       		.byte	23
 1642 03eb 05       		.byte	5
 1643 03ec 18       		.byte	24
 1644 03ed 04       		.byte	4
 1645 03ee 19       		.byte	25
ARM GAS  C:\Users\HPz420\AppData\Local\Temp\cc03uF4X.s 			page 51


 1646 03ef 08       		.byte	8
 1647 03f0 1C       		.byte	28
 1648 03f1 08       		.byte	8
 1649 03f2 1D       		.byte	29
 1650 03f3 11       		.byte	17
 1651 03f4 1E       		.byte	30
 1652 03f5 40       		.byte	64
 1653 03f6 21       		.byte	33
 1654 03f7 52       		.byte	82
 1655 03f8 22       		.byte	34
 1656 03f9 10       		.byte	16
 1657 03fa 24       		.byte	36
 1658 03fb 02       		.byte	2
 1659 03fc 26       		.byte	38
 1660 03fd 28       		.byte	40
 1661 03fe 27       		.byte	39
 1662 03ff 08       		.byte	8
 1663 0400 28       		.byte	40
 1664 0401 02       		.byte	2
 1665 0402 2A       		.byte	42
 1666 0403 40       		.byte	64
 1667 0404 31       		.byte	49
 1668 0405 10       		.byte	16
 1669 0406 33       		.byte	51
 1670 0407 04       		.byte	4
 1671 0408 35       		.byte	53
 1672 0409 08       		.byte	8
 1673 040a 36       		.byte	54
 1674 040b 20       		.byte	32
 1675 040c 38       		.byte	56
 1676 040d 08       		.byte	8
 1677 040e 3B       		.byte	59
 1678 040f 80       		.byte	-128
 1679 0410 3F       		.byte	63
 1680 0411 01       		.byte	1
 1681 0412 40       		.byte	64
 1682 0413 04       		.byte	4
 1683 0414 41       		.byte	65
 1684 0415 02       		.byte	2
 1685 0416 50       		.byte	80
 1686 0417 04       		.byte	4
 1687 0418 52       		.byte	82
 1688 0419 02       		.byte	2
 1689 041a 58       		.byte	88
 1690 041b 20       		.byte	32
 1691 041c 59       		.byte	89
 1692 041d 80       		.byte	-128
 1693 041e 5F       		.byte	95
 1694 041f 40       		.byte	64
 1695 0420 67       		.byte	103
 1696 0421 01       		.byte	1
 1697 0422 85       		.byte	-123
 1698 0423 88       		.byte	-120
 1699 0424 8B       		.byte	-117
 1700 0425 40       		.byte	64
 1701 0426 90       		.byte	-112
 1702 0427 80       		.byte	-128
ARM GAS  C:\Users\HPz420\AppData\Local\Temp\cc03uF4X.s 			page 52


 1703 0428 91       		.byte	-111
 1704 0429 0A       		.byte	10
 1705 042a 93       		.byte	-109
 1706 042b 84       		.byte	-124
 1707 042c 95       		.byte	-107
 1708 042d 80       		.byte	-128
 1709 042e 98       		.byte	-104
 1710 042f 22       		.byte	34
 1711 0430 99       		.byte	-103
 1712 0431 02       		.byte	2
 1713 0432 9D       		.byte	-99
 1714 0433 01       		.byte	1
 1715 0434 9E       		.byte	-98
 1716 0435 88       		.byte	-120
 1717 0436 9F       		.byte	-97
 1718 0437 08       		.byte	8
 1719 0438 A1       		.byte	-95
 1720 0439 08       		.byte	8
 1721 043a A2       		.byte	-94
 1722 043b 05       		.byte	5
 1723 043c AC       		.byte	-84
 1724 043d 80       		.byte	-128
 1725 043e AE       		.byte	-82
 1726 043f 08       		.byte	8
 1727 0440 C0       		.byte	-64
 1728 0441 FF       		.byte	-1
 1729 0442 C2       		.byte	-62
 1730 0443 FE       		.byte	-2
 1731 0444 C4       		.byte	-60
 1732 0445 FF       		.byte	-1
 1733 0446 CA       		.byte	-54
 1734 0447 08       		.byte	8
 1735 0448 CC       		.byte	-52
 1736 0449 66       		.byte	102
 1737 044a CE       		.byte	-50
 1738 044b 8A       		.byte	-118
 1739 044c D0       		.byte	-48
 1740 044d 05       		.byte	5
 1741 044e D6       		.byte	-42
 1742 044f 1C       		.byte	28
 1743 0450 D8       		.byte	-40
 1744 0451 10       		.byte	16
 1745 0452 E0       		.byte	-32
 1746 0453 20       		.byte	32
 1747 0454 E2       		.byte	-30
 1748 0455 08       		.byte	8
 1749 0456 EA       		.byte	-22
 1750 0457 01       		.byte	1
 1751 0458 EC       		.byte	-20
 1752 0459 80       		.byte	-128
 1753 045a 00       		.byte	0
 1754 045b 01       		.byte	1
 1755 045c 01       		.byte	1
 1756 045d 01       		.byte	1
 1757 045e 03       		.byte	3
 1758 045f 06       		.byte	6
 1759 0460 06       		.byte	6
ARM GAS  C:\Users\HPz420\AppData\Local\Temp\cc03uF4X.s 			page 53


 1760 0461 02       		.byte	2
 1761 0462 0A       		.byte	10
 1762 0463 10       		.byte	16
 1763 0464 0D       		.byte	13
 1764 0465 12       		.byte	18
 1765 0466 0E       		.byte	14
 1766 0467 04       		.byte	4
 1767 0468 0F       		.byte	15
 1768 0469 01       		.byte	1
 1769 046a 16       		.byte	22
 1770 046b 05       		.byte	5
 1771 046c 17       		.byte	23
 1772 046d 13       		.byte	19
 1773 046e 18       		.byte	24
 1774 046f 01       		.byte	1
 1775 0470 1A       		.byte	26
 1776 0471 0C       		.byte	12
 1777 0472 1B       		.byte	27
 1778 0473 13       		.byte	19
 1779 0474 1C       		.byte	28
 1780 0475 01       		.byte	1
 1781 0476 1E       		.byte	30
 1782 0477 08       		.byte	8
 1783 0478 20       		.byte	32
 1784 0479 01       		.byte	1
 1785 047a 21       		.byte	33
 1786 047b 01       		.byte	1
 1787 047c 23       		.byte	35
 1788 047d 04       		.byte	4
 1789 047e 24       		.byte	36
 1790 047f 20       		.byte	32
 1791 0480 25       		.byte	37
 1792 0481 01       		.byte	1
 1793 0482 27       		.byte	39
 1794 0483 32       		.byte	50
 1795 0484 2A       		.byte	42
 1796 0485 04       		.byte	4
 1797 0486 2C       		.byte	44
 1798 0487 01       		.byte	1
 1799 0488 2F       		.byte	47
 1800 0489 1B       		.byte	27
 1801 048a 31       		.byte	49
 1802 048b 07       		.byte	7
 1803 048c 32       		.byte	50
 1804 048d 03       		.byte	3
 1805 048e 33       		.byte	51
 1806 048f 08       		.byte	8
 1807 0490 34       		.byte	52
 1808 0491 1C       		.byte	28
 1809 0492 35       		.byte	53
 1810 0493 10       		.byte	16
 1811 0494 36       		.byte	54
 1812 0495 20       		.byte	32
 1813 0496 37       		.byte	55
 1814 0497 20       		.byte	32
 1815 0498 3A       		.byte	58
 1816 0499 20       		.byte	32
ARM GAS  C:\Users\HPz420\AppData\Local\Temp\cc03uF4X.s 			page 54


 1817 049a 3B       		.byte	59
 1818 049b 02       		.byte	2
 1819 049c 3F       		.byte	63
 1820 049d 10       		.byte	16
 1821 049e 58       		.byte	88
 1822 049f 04       		.byte	4
 1823 04a0 59       		.byte	89
 1824 04a1 04       		.byte	4
 1825 04a2 5F       		.byte	95
 1826 04a3 01       		.byte	1
 1827 04a4 81       		.byte	-127
 1828 04a5 46       		.byte	70
 1829 04a6 82       		.byte	-126
 1830 04a7 10       		.byte	16
 1831 04a8 83       		.byte	-125
 1832 04a9 A9       		.byte	-87
 1833 04aa 84       		.byte	-124
 1834 04ab 46       		.byte	70
 1835 04ac 87       		.byte	-121
 1836 04ad 01       		.byte	1
 1837 04ae 8A       		.byte	-118
 1838 04af 20       		.byte	32
 1839 04b0 8C       		.byte	-116
 1840 04b1 01       		.byte	1
 1841 04b2 8E       		.byte	-114
 1842 04b3 42       		.byte	66
 1843 04b4 90       		.byte	-112
 1844 04b5 05       		.byte	5
 1845 04b6 91       		.byte	-111
 1846 04b7 FF       		.byte	-1
 1847 04b8 92       		.byte	-110
 1848 04b9 0A       		.byte	10
 1849 04ba 94       		.byte	-108
 1850 04bb 60       		.byte	96
 1851 04bc 95       		.byte	-107
 1852 04bd 0E       		.byte	14
 1853 04be 97       		.byte	-105
 1854 04bf 30       		.byte	48
 1855 04c0 99       		.byte	-103
 1856 04c1 40       		.byte	64
 1857 04c2 9A       		.byte	-102
 1858 04c3 42       		.byte	66
 1859 04c4 9B       		.byte	-101
 1860 04c5 13       		.byte	19
 1861 04c6 9C       		.byte	-100
 1862 04c7 08       		.byte	8
 1863 04c8 9E       		.byte	-98
 1864 04c9 05       		.byte	5
 1865 04ca A0       		.byte	-96
 1866 04cb 41       		.byte	65
 1867 04cc A1       		.byte	-95
 1868 04cd 2A       		.byte	42
 1869 04ce A2       		.byte	-94
 1870 04cf 04       		.byte	4
 1871 04d0 A3       		.byte	-93
 1872 04d1 54       		.byte	84
 1873 04d2 A4       		.byte	-92
ARM GAS  C:\Users\HPz420\AppData\Local\Temp\cc03uF4X.s 			page 55


 1874 04d3 01       		.byte	1
 1875 04d4 A5       		.byte	-91
 1876 04d5 80       		.byte	-128
 1877 04d6 A6       		.byte	-90
 1878 04d7 02       		.byte	2
 1879 04d8 A7       		.byte	-89
 1880 04d9 56       		.byte	86
 1881 04da AA       		.byte	-86
 1882 04db 80       		.byte	-128
 1883 04dc AC       		.byte	-84
 1884 04dd 6F       		.byte	111
 1885 04de AD       		.byte	-83
 1886 04df 33       		.byte	51
 1887 04e0 AF       		.byte	-81
 1888 04e1 0C       		.byte	12
 1889 04e2 B0       		.byte	-80
 1890 04e3 1F       		.byte	31
 1891 04e4 B1       		.byte	-79
 1892 04e5 FF       		.byte	-1
 1893 04e6 B2       		.byte	-78
 1894 04e7 60       		.byte	96
 1895 04e8 B4       		.byte	-76
 1896 04e9 80       		.byte	-128
 1897 04ea D8       		.byte	-40
 1898 04eb 04       		.byte	4
 1899 04ec D9       		.byte	-39
 1900 04ed 04       		.byte	4
 1901 04ee DF       		.byte	-33
 1902 04ef 01       		.byte	1
 1903 04f0 00       		.byte	0
 1904 04f1 90       		.byte	-112
 1905 04f2 01       		.byte	1
 1906 04f3 04       		.byte	4
 1907 04f4 03       		.byte	3
 1908 04f5 80       		.byte	-128
 1909 04f6 04       		.byte	4
 1910 04f7 20       		.byte	32
 1911 04f8 05       		.byte	5
 1912 04f9 06       		.byte	6
 1913 04fa 07       		.byte	7
 1914 04fb 02       		.byte	2
 1915 04fc 08       		.byte	8
 1916 04fd 80       		.byte	-128
 1917 04fe 09       		.byte	9
 1918 04ff 28       		.byte	40
 1919 0500 0A       		.byte	10
 1920 0501 40       		.byte	64
 1921 0502 0D       		.byte	13
 1922 0503 04       		.byte	4
 1923 0504 0E       		.byte	14
 1924 0505 2A       		.byte	42
 1925 0506 12       		.byte	18
 1926 0507 0A       		.byte	10
 1927 0508 13       		.byte	19
 1928 0509 06       		.byte	6
 1929 050a 15       		.byte	21
 1930 050b 02       		.byte	2
ARM GAS  C:\Users\HPz420\AppData\Local\Temp\cc03uF4X.s 			page 56


 1931 050c 16       		.byte	22
 1932 050d 0A       		.byte	10
 1933 050e 17       		.byte	23
 1934 050f 04       		.byte	4
 1935 0510 18       		.byte	24
 1936 0511 90       		.byte	-112
 1937 0512 19       		.byte	25
 1938 0513 02       		.byte	2
 1939 0514 1A       		.byte	26
 1940 0515 50       		.byte	80
 1941 0516 1B       		.byte	27
 1942 0517 20       		.byte	32
 1943 0518 1D       		.byte	29
 1944 0519 20       		.byte	32
 1945 051a 1E       		.byte	30
 1946 051b 2A       		.byte	42
 1947 051c 1F       		.byte	31
 1948 051d 48       		.byte	72
 1949 051e 20       		.byte	32
 1950 051f 80       		.byte	-128
 1951 0520 21       		.byte	33
 1952 0521 01       		.byte	1
 1953 0522 24       		.byte	36
 1954 0523 04       		.byte	4
 1955 0524 25       		.byte	37
 1956 0525 41       		.byte	65
 1957 0526 27       		.byte	39
 1958 0527 20       		.byte	32
 1959 0528 28       		.byte	40
 1960 0529 02       		.byte	2
 1961 052a 29       		.byte	41
 1962 052b 02       		.byte	2
 1963 052c 2A       		.byte	42
 1964 052d 08       		.byte	8
 1965 052e 2E       		.byte	46
 1966 052f 80       		.byte	-128
 1967 0530 2F       		.byte	47
 1968 0531 60       		.byte	96
 1969 0532 31       		.byte	49
 1970 0533 20       		.byte	32
 1971 0534 32       		.byte	50
 1972 0535 02       		.byte	2
 1973 0536 33       		.byte	51
 1974 0537 08       		.byte	8
 1975 0538 37       		.byte	55
 1976 0539 28       		.byte	40
 1977 053a 39       		.byte	57
 1978 053b 02       		.byte	2
 1979 053c 3B       		.byte	59
 1980 053d 04       		.byte	4
 1981 053e 3D       		.byte	61
 1982 053f 82       		.byte	-126
 1983 0540 79       		.byte	121
 1984 0541 06       		.byte	6
 1985 0542 7A       		.byte	122
 1986 0543 90       		.byte	-112
 1987 0544 85       		.byte	-123
ARM GAS  C:\Users\HPz420\AppData\Local\Temp\cc03uF4X.s 			page 57


 1988 0545 21       		.byte	33
 1989 0546 8C       		.byte	-116
 1990 0547 20       		.byte	32
 1991 0548 90       		.byte	-112
 1992 0549 20       		.byte	32
 1993 054a 93       		.byte	-109
 1994 054b 04       		.byte	4
 1995 054c 94       		.byte	-108
 1996 054d 04       		.byte	4
 1997 054e 95       		.byte	-107
 1998 054f 87       		.byte	-121
 1999 0550 96       		.byte	-106
 2000 0551 50       		.byte	80
 2001 0552 98       		.byte	-104
 2002 0553 02       		.byte	2
 2003 0554 99       		.byte	-103
 2004 0555 04       		.byte	4
 2005 0556 9A       		.byte	-102
 2006 0557 02       		.byte	2
 2007 0558 9B       		.byte	-101
 2008 0559 06       		.byte	6
 2009 055a 9D       		.byte	-99
 2010 055b 01       		.byte	1
 2011 055c 9E       		.byte	-98
 2012 055d 08       		.byte	8
 2013 055e A1       		.byte	-95
 2014 055f 08       		.byte	8
 2015 0560 A2       		.byte	-94
 2016 0561 0A       		.byte	10
 2017 0562 A3       		.byte	-93
 2018 0563 80       		.byte	-128
 2019 0564 A5       		.byte	-91
 2020 0565 20       		.byte	32
 2021 0566 A6       		.byte	-90
 2022 0567 95       		.byte	-107
 2023 0568 AA       		.byte	-86
 2024 0569 01       		.byte	1
 2025 056a AB       		.byte	-85
 2026 056b 08       		.byte	8
 2027 056c C0       		.byte	-64
 2028 056d FF       		.byte	-1
 2029 056e C2       		.byte	-62
 2030 056f EF       		.byte	-17
 2031 0570 C4       		.byte	-60
 2032 0571 FF       		.byte	-1
 2033 0572 CA       		.byte	-54
 2034 0573 DB       		.byte	-37
 2035 0574 CC       		.byte	-52
 2036 0575 67       		.byte	103
 2037 0576 CE       		.byte	-50
 2038 0577 93       		.byte	-109
 2039 0578 EE       		.byte	-18
 2040 0579 02       		.byte	2
 2041 057a E2       		.byte	-30
 2042 057b 40       		.byte	64
 2043 057c EE       		.byte	-18
 2044 057d 02       		.byte	2
ARM GAS  C:\Users\HPz420\AppData\Local\Temp\cc03uF4X.s 			page 58


 2045 057e E2       		.byte	-30
 2046 057f 08       		.byte	8
 2047 0580 EA       		.byte	-22
 2048 0581 01       		.byte	1
 2049 0582 EC       		.byte	-20
 2050 0583 80       		.byte	-128
 2051 0584 30       		.byte	48
 2052 0585 20       		.byte	32
 2053 0586 31       		.byte	49
 2054 0587 08       		.byte	8
 2055 0588 35       		.byte	53
 2056 0589 08       		.byte	8
 2057 058a 36       		.byte	54
 2058 058b 40       		.byte	64
 2059 058c 88       		.byte	-120
 2060 058d 20       		.byte	32
 2061 058e CC       		.byte	-52
 2062 058f F0       		.byte	-16
 2063 0590 9D       		.byte	-99
 2064 0591 08       		.byte	8
 2065 0592 A5       		.byte	-91
 2066 0593 08       		.byte	8
 2067 0594 A6       		.byte	-90
 2068 0595 40       		.byte	64
 2069 0596 3E       		.byte	62
 2070 0597 10       		.byte	16
 2071 0598 57       		.byte	87
 2072 0599 04       		.byte	4
 2073 059a 9D       		.byte	-99
 2074 059b 08       		.byte	8
 2075 059c A5       		.byte	-91
 2076 059d 08       		.byte	8
 2077 059e A6       		.byte	-90
 2078 059f 40       		.byte	64
 2079 05a0 CE       		.byte	-50
 2080 05a1 20       		.byte	32
 2081 05a2 D4       		.byte	-44
 2082 05a3 40       		.byte	64
 2083 05a4 85       		.byte	-123
 2084 05a5 08       		.byte	8
 2085 05a6 8F       		.byte	-113
 2086 05a7 04       		.byte	4
 2087 05a8 95       		.byte	-107
 2088 05a9 02       		.byte	2
 2089 05aa 96       		.byte	-106
 2090 05ab 10       		.byte	16
 2091 05ac A5       		.byte	-91
 2092 05ad 08       		.byte	8
 2093 05ae A6       		.byte	-90
 2094 05af 40       		.byte	64
 2095 05b0 A7       		.byte	-89
 2096 05b1 04       		.byte	4
 2097 05b2 B1       		.byte	-79
 2098 05b3 01       		.byte	1
 2099 05b4 B5       		.byte	-75
 2100 05b5 08       		.byte	8
 2101 05b6 E2       		.byte	-30
ARM GAS  C:\Users\HPz420\AppData\Local\Temp\cc03uF4X.s 			page 59


 2102 05b7 40       		.byte	64
 2103 05b8 13       		.byte	19
 2104 05b9 08       		.byte	8
 2105 05ba 14       		.byte	20
 2106 05bb 20       		.byte	32
 2107 05bc C4       		.byte	-60
 2108 05bd 0C       		.byte	12
 2109 05be 98       		.byte	-104
 2110 05bf 20       		.byte	32
 2111 05c0 9B       		.byte	-101
 2112 05c1 08       		.byte	8
 2113 05c2 98       		.byte	-104
 2114 05c3 20       		.byte	32
 2115 05c4 9B       		.byte	-101
 2116 05c5 08       		.byte	8
 2117 05c6 0B       		.byte	11
 2118 05c7 42       		.byte	66
 2119 05c8 0D       		.byte	13
 2120 05c9 02       		.byte	2
 2121 05ca 85       		.byte	-123
 2122 05cb 02       		.byte	2
 2123 05cc 97       		.byte	-105
 2124 05cd 02       		.byte	2
 2125 05ce 98       		.byte	-104
 2126 05cf 20       		.byte	32
 2127 05d0 9B       		.byte	-101
 2128 05d1 08       		.byte	8
 2129 05d2 B7       		.byte	-73
 2130 05d3 01       		.byte	1
 2131 05d4 C2       		.byte	-62
 2132 05d5 0E       		.byte	14
 2133 05d6 EA       		.byte	-22
 2134 05d7 02       		.byte	2
 2135 05d8 20       		.byte	32
 2136 05d9 20       		.byte	32
 2137 05da 95       		.byte	-107
 2138 05db 02       		.byte	2
 2139 05dc 96       		.byte	-106
 2140 05dd 10       		.byte	16
 2141 05de AE       		.byte	-82
 2142 05df 40       		.byte	64
 2143 05e0 C8       		.byte	-56
 2144 05e1 40       		.byte	64
 2145 05e2 EE       		.byte	-18
 2146 05e3 40       		.byte	64
 2147 05e4 13       		.byte	19
 2148 05e5 02       		.byte	2
 2149 05e6 15       		.byte	21
 2150 05e7 02       		.byte	2
 2151 05e8 7B       		.byte	123
 2152 05e9 01       		.byte	1
 2153 05ea 87       		.byte	-121
 2154 05eb 01       		.byte	1
 2155 05ec 8B       		.byte	-117
 2156 05ed 02       		.byte	2
 2157 05ee 95       		.byte	-107
 2158 05ef 02       		.byte	2
ARM GAS  C:\Users\HPz420\AppData\Local\Temp\cc03uF4X.s 			page 60


 2159 05f0 AA       		.byte	-86
 2160 05f1 10       		.byte	16
 2161 05f2 B0       		.byte	-80
 2162 05f3 10       		.byte	16
 2163 05f4 C4       		.byte	-60
 2164 05f5 30       		.byte	48
 2165 05f6 DC       		.byte	-36
 2166 05f7 80       		.byte	-128
 2167 05f8 E6       		.byte	-26
 2168 05f9 10       		.byte	16
 2169 05fa EA       		.byte	-22
 2170 05fb 80       		.byte	-128
 2171 05fc 10       		.byte	16
 2172 05fd 40       		.byte	64
 2173 05fe 13       		.byte	19
 2174 05ff 20       		.byte	32
 2175 0600 14       		.byte	20
 2176 0601 80       		.byte	-128
 2177 0602 44       		.byte	68
 2178 0603 10       		.byte	16
 2179 0604 47       		.byte	71
 2180 0605 08       		.byte	8
 2181 0606 78       		.byte	120
 2182 0607 10       		.byte	16
 2183 0608 7C       		.byte	124
 2184 0609 20       		.byte	32
 2185 060a 8C       		.byte	-116
 2186 060b 20       		.byte	32
 2187 060c 98       		.byte	-104
 2188 060d 20       		.byte	32
 2189 060e 9B       		.byte	-101
 2190 060f 08       		.byte	8
 2191 0610 AF       		.byte	-81
 2192 0611 40       		.byte	64
 2193 0612 C4       		.byte	-60
 2194 0613 0E       		.byte	14
 2195 0614 DE       		.byte	-34
 2196 0615 03       		.byte	3
 2197 0616 E2       		.byte	-30
 2198 0617 02       		.byte	2
 2199 0618 64       		.byte	100
 2200 0619 04       		.byte	4
 2201 061a 78       		.byte	120
 2202 061b 40       		.byte	64
 2203 061c 7C       		.byte	124
 2204 061d 80       		.byte	-128
 2205 061e 87       		.byte	-121
 2206 061f 08       		.byte	8
 2207 0620 98       		.byte	-104
 2208 0621 C4       		.byte	-60
 2209 0622 9B       		.byte	-101
 2210 0623 08       		.byte	8
 2211 0624 AB       		.byte	-85
 2212 0625 20       		.byte	32
 2213 0626 B0       		.byte	-80
 2214 0627 04       		.byte	4
 2215 0628 D8       		.byte	-40
ARM GAS  C:\Users\HPz420\AppData\Local\Temp\cc03uF4X.s 			page 61


 2216 0629 01       		.byte	1
 2217 062a DC       		.byte	-36
 2218 062b 01       		.byte	1
 2219 062c DE       		.byte	-34
 2220 062d 04       		.byte	4
 2221 062e EC       		.byte	-20
 2222 062f 01       		.byte	1
 2223 0630 00       		.byte	0
 2224 0631 01       		.byte	1
 2225 0632 01       		.byte	1
 2226 0633 01       		.byte	1
 2227 0634 0A       		.byte	10
 2228 0635 01       		.byte	1
 2229 0636 0B       		.byte	11
 2230 0637 01       		.byte	1
 2231 0638 10       		.byte	16
 2232 0639 01       		.byte	1
 2233 063a 11       		.byte	17
 2234 063b 01       		.byte	1
 2235 063c 1A       		.byte	26
 2236 063d 01       		.byte	1
 2237 063e 1B       		.byte	27
 2238 063f 01       		.byte	1
 2239 0640 00       		.byte	0
 2240 0641 AB       		.byte	-85
 2241 0642 03       		.byte	3
 2242 0643 C0       		.byte	-64
 2243              		.align	2
 2244              		.type	BS_IOPINS0_0_VAL.5042, %object
 2245              		.size	BS_IOPINS0_0_VAL.5042, 8
 2246              	BS_IOPINS0_0_VAL.5042:
 2247 0644 00       		.byte	0
 2248 0645 03       		.byte	3
 2249 0646 03       		.byte	3
 2250 0647 00       		.byte	0
 2251 0648 00       		.byte	0
 2252 0649 00       		.byte	0
 2253 064a 00       		.byte	0
 2254 064b 00       		.byte	0
 2255              		.align	2
 2256              		.type	BS_IOPINS0_7_VAL.5043, %object
 2257              		.size	BS_IOPINS0_7_VAL.5043, 10
 2258              	BS_IOPINS0_7_VAL.5043:
 2259 064c 33       		.byte	51
 2260 064d 00       		.byte	0
 2261 064e 00       		.byte	0
 2262 064f C0       		.byte	-64
 2263 0650 F3       		.byte	-13
 2264 0651 00       		.byte	0
 2265 0652 33       		.byte	51
 2266 0653 00       		.byte	0
 2267 0654 00       		.byte	0
 2268 0655 00       		.byte	0
 2269 0656 0000     		.align	2
 2270              		.type	BS_IOPINS0_8_VAL.5044, %object
 2271              		.size	BS_IOPINS0_8_VAL.5044, 10
 2272              	BS_IOPINS0_8_VAL.5044:
ARM GAS  C:\Users\HPz420\AppData\Local\Temp\cc03uF4X.s 			page 62


 2273 0658 40       		.byte	64
 2274 0659 00       		.byte	0
 2275 065a 00       		.byte	0
 2276 065b 00       		.byte	0
 2277 065c 00       		.byte	0
 2278 065d 00       		.byte	0
 2279 065e 00       		.byte	0
 2280 065f 00       		.byte	0
 2281 0660 C0       		.byte	-64
 2282 0661 00       		.byte	0
 2283 0662 0000     		.align	2
 2284              		.type	BS_IOPINS0_1_VAL.5045, %object
 2285              		.size	BS_IOPINS0_1_VAL.5045, 8
 2286              	BS_IOPINS0_1_VAL.5045:
 2287 0664 00       		.byte	0
 2288 0665 FF       		.byte	-1
 2289 0666 FF       		.byte	-1
 2290 0667 00       		.byte	0
 2291 0668 00       		.byte	0
 2292 0669 00       		.byte	0
 2293 066a 00       		.byte	0
 2294 066b 00       		.byte	0
 2295              		.align	2
 2296              		.type	BS_IOPINS0_2_VAL.5046, %object
 2297              		.size	BS_IOPINS0_2_VAL.5046, 8
 2298              	BS_IOPINS0_2_VAL.5046:
 2299 066c 00       		.byte	0
 2300 066d FF       		.byte	-1
 2301 066e FF       		.byte	-1
 2302 066f 00       		.byte	0
 2303 0670 00       		.byte	0
 2304 0671 00       		.byte	0
 2305 0672 00       		.byte	0
 2306 0673 00       		.byte	0
 2307              		.align	2
 2308              		.type	BS_IOPINS0_5_VAL.5047, %object
 2309              		.size	BS_IOPINS0_5_VAL.5047, 8
 2310              	BS_IOPINS0_5_VAL.5047:
 2311 0674 00       		.byte	0
 2312 0675 F1       		.byte	-15
 2313 0676 F1       		.byte	-15
 2314 0677 00       		.byte	0
 2315 0678 10       		.byte	16
 2316 0679 00       		.byte	0
 2317 067a 00       		.byte	0
 2318 067b 00       		.byte	0
 2319              		.align	2
 2320              		.type	BS_IOPINS0_6_VAL.5048, %object
 2321              		.size	BS_IOPINS0_6_VAL.5048, 8
 2322              	BS_IOPINS0_6_VAL.5048:
 2323 067c 30       		.byte	48
 2324 067d C0       		.byte	-64
 2325 067e C0       		.byte	-64
 2326 067f 00       		.byte	0
 2327 0680 00       		.byte	0
 2328 0681 00       		.byte	0
 2329 0682 00       		.byte	0
ARM GAS  C:\Users\HPz420\AppData\Local\Temp\cc03uF4X.s 			page 63


 2330 0683 00       		.byte	0
 2331              		.text
 2332              	.Letext0:
 2333              		.file 2 "c:\\program files (x86)\\cypress\\psoc creator\\4.4\\psoc creator\\import\\gnu\\arm\\5.4.
 2334              		.file 3 "Generated_Source\\PSoC5\\cytypes.h"