ARM GAS  C:\Users\HPz420\AppData\Local\Temp\ccHEXuIV.s 			page 1


   1              		.syntax unified
   2              		.cpu cortex-m3
   3              		.fpu softvfp
   4              		.eabi_attribute 20, 1
   5              		.eabi_attribute 21, 1
   6              		.eabi_attribute 23, 3
   7              		.eabi_attribute 24, 1
   8              		.eabi_attribute 25, 1
   9              		.eabi_attribute 26, 1
  10              		.eabi_attribute 30, 6
  11              		.eabi_attribute 34, 1
  12              		.eabi_attribute 18, 4
  13              		.thumb
  14              		.syntax unified
  15              		.file	"Debug_Cards.c"
  16              		.text
  17              	.Ltext0:
  18              		.cfi_sections	.debug_frame
  19              		.comm	myWrBuffer,2,4
  20              		.section	.text.debugRPPUIO16,"ax",%progbits
  21              		.align	2
  22              		.global	debugRPPUIO16
  23              		.thumb
  24              		.thumb_func
  25              		.type	debugRPPUIO16, %function
  26              	debugRPPUIO16:
  27              	.LFB63:
  28              		.file 1 "Debug_Cards.c"
   1:Debug_Cards.c **** /* ========================================
   2:Debug_Cards.c ****  *
   3:Debug_Cards.c ****  * Copyright YOUR COMPANY, THE YEAR
   4:Debug_Cards.c ****  * All Rights Reserved
   5:Debug_Cards.c ****  * UNPUBLISHED, LICENSED SOFTWARE.
   6:Debug_Cards.c ****  *
   7:Debug_Cards.c ****  * CONFIDENTIAL AND PROPRIETARY INFORMATION
   8:Debug_Cards.c ****  * WHICH IS THE PROPERTY OF your company.
   9:Debug_Cards.c ****  *
  10:Debug_Cards.c ****  * ========================================
  11:Debug_Cards.c **** */
  12:Debug_Cards.c **** 
  13:Debug_Cards.c **** #include <project.h>
  14:Debug_Cards.c **** #include "RPI_PSOC5.h"
  15:Debug_Cards.c **** 
  16:Debug_Cards.c **** uint8 myWrBuffer[2];
  17:Debug_Cards.c **** 
  18:Debug_Cards.c **** void debugRPPUIO16(void)
  19:Debug_Cards.c **** {
  29              		.loc 1 19 0
  30              		.cfi_startproc
  31              		@ args = 0, pretend = 0, frame = 0
  32              		@ frame_needed = 1, uses_anonymous_args = 0
  33              		@ link register save eliminated.
  34 0000 80B4     		push	{r7}
  35              		.cfi_def_cfa_offset 4
  36              		.cfi_offset 7, -4
  37 0002 00AF     		add	r7, sp, #0
  38              		.cfi_def_cfa_register 7
ARM GAS  C:\Users\HPz420\AppData\Local\Temp\ccHEXuIV.s 			page 2


  20:Debug_Cards.c ****     
  21:Debug_Cards.c **** }
  39              		.loc 1 21 0
  40 0004 00BF     		nop
  41 0006 BD46     		mov	sp, r7
  42              		.cfi_def_cfa_register 13
  43              		@ sp needed
  44 0008 80BC     		pop	{r7}
  45              		.cfi_restore 7
  46              		.cfi_def_cfa_offset 0
  47 000a 7047     		bx	lr
  48              		.cfi_endproc
  49              	.LFE63:
  50              		.size	debugRPPUIO16, .-debugRPPUIO16
  51              		.section	.text.debugRPPGVS,"ax",%progbits
  52              		.align	2
  53              		.global	debugRPPGVS
  54              		.thumb
  55              		.thumb_func
  56              		.type	debugRPPGVS, %function
  57              	debugRPPGVS:
  58              	.LFB64:
  22:Debug_Cards.c **** 
  23:Debug_Cards.c **** void debugRPPGVS(void)
  24:Debug_Cards.c **** {
  59              		.loc 1 24 0
  60              		.cfi_startproc
  61              		@ args = 0, pretend = 0, frame = 0
  62              		@ frame_needed = 1, uses_anonymous_args = 0
  63              		@ link register save eliminated.
  64 0000 80B4     		push	{r7}
  65              		.cfi_def_cfa_offset 4
  66              		.cfi_offset 7, -4
  67 0002 00AF     		add	r7, sp, #0
  68              		.cfi_def_cfa_register 7
  25:Debug_Cards.c ****     
  26:Debug_Cards.c **** }
  69              		.loc 1 26 0
  70 0004 00BF     		nop
  71 0006 BD46     		mov	sp, r7
  72              		.cfi_def_cfa_register 13
  73              		@ sp needed
  74 0008 80BC     		pop	{r7}
  75              		.cfi_restore 7
  76              		.cfi_def_cfa_offset 0
  77 000a 7047     		bx	lr
  78              		.cfi_endproc
  79              	.LFE64:
  80              		.size	debugRPPGVS, .-debugRPPGVS
  81              		.section	.text.debugRASPIGVS,"ax",%progbits
  82              		.align	2
  83              		.global	debugRASPIGVS
  84              		.thumb
  85              		.thumb_func
  86              		.type	debugRASPIGVS, %function
  87              	debugRASPIGVS:
  88              	.LFB65:
ARM GAS  C:\Users\HPz420\AppData\Local\Temp\ccHEXuIV.s 			page 3


  27:Debug_Cards.c **** 
  28:Debug_Cards.c **** void debugRASPIGVS(void)
  29:Debug_Cards.c **** {
  89              		.loc 1 29 0
  90              		.cfi_startproc
  91              		@ args = 0, pretend = 0, frame = 0
  92              		@ frame_needed = 1, uses_anonymous_args = 0
  93              		@ link register save eliminated.
  94 0000 80B4     		push	{r7}
  95              		.cfi_def_cfa_offset 4
  96              		.cfi_offset 7, -4
  97 0002 00AF     		add	r7, sp, #0
  98              		.cfi_def_cfa_register 7
  30:Debug_Cards.c ****     
  31:Debug_Cards.c **** }
  99              		.loc 1 31 0
 100 0004 00BF     		nop
 101 0006 BD46     		mov	sp, r7
 102              		.cfi_def_cfa_register 13
 103              		@ sp needed
 104 0008 80BC     		pop	{r7}
 105              		.cfi_restore 7
 106              		.cfi_def_cfa_offset 0
 107 000a 7047     		bx	lr
 108              		.cfi_endproc
 109              	.LFE65:
 110              		.size	debugRASPIGVS, .-debugRASPIGVS
 111              		.section	.text.debugRPPGVSCFG,"ax",%progbits
 112              		.align	2
 113              		.global	debugRPPGVSCFG
 114              		.thumb
 115              		.thumb_func
 116              		.type	debugRPPGVSCFG, %function
 117              	debugRPPGVSCFG:
 118              	.LFB66:
  32:Debug_Cards.c **** 
  33:Debug_Cards.c **** void debugRPPGVSCFG(void)
  34:Debug_Cards.c **** {
 119              		.loc 1 34 0
 120              		.cfi_startproc
 121              		@ args = 0, pretend = 0, frame = 0
 122              		@ frame_needed = 1, uses_anonymous_args = 0
 123              		@ link register save eliminated.
 124 0000 80B4     		push	{r7}
 125              		.cfi_def_cfa_offset 4
 126              		.cfi_offset 7, -4
 127 0002 00AF     		add	r7, sp, #0
 128              		.cfi_def_cfa_register 7
  35:Debug_Cards.c ****     
  36:Debug_Cards.c **** }
 129              		.loc 1 36 0
 130 0004 00BF     		nop
 131 0006 BD46     		mov	sp, r7
 132              		.cfi_def_cfa_register 13
 133              		@ sp needed
 134 0008 80BC     		pop	{r7}
 135              		.cfi_restore 7
ARM GAS  C:\Users\HPz420\AppData\Local\Temp\ccHEXuIV.s 			page 4


 136              		.cfi_def_cfa_offset 0
 137 000a 7047     		bx	lr
 138              		.cfi_endproc
 139              	.LFE66:
 140              		.size	debugRPPGVSCFG, .-debugRPPGVSCFG
 141              		.section	.text.readRegisterDIGIO8CardX,"ax",%progbits
 142              		.align	2
 143              		.global	readRegisterDIGIO8CardX
 144              		.thumb
 145              		.thumb_func
 146              		.type	readRegisterDIGIO8CardX, %function
 147              	readRegisterDIGIO8CardX:
 148              	.LFB67:
  37:Debug_Cards.c **** 
  38:Debug_Cards.c **** //////////////////////////////////////////////////////////////////////////////
  39:Debug_Cards.c **** // uint8 readRegisterDIGIO8Card(ctrlAdr) - 
  40:Debug_Cards.c **** //////////////////////////////////////////////////////////////////////////////
  41:Debug_Cards.c **** 
  42:Debug_Cards.c **** uint8 readRegisterDIGIO8CardX(uint8 slaveAdr, uint8 ctrlAdr)
  43:Debug_Cards.c **** {
 149              		.loc 1 43 0
 150              		.cfi_startproc
 151              		@ args = 0, pretend = 0, frame = 16
 152              		@ frame_needed = 1, uses_anonymous_args = 0
 153 0000 80B5     		push	{r7, lr}
 154              		.cfi_def_cfa_offset 8
 155              		.cfi_offset 7, -8
 156              		.cfi_offset 14, -4
 157 0002 84B0     		sub	sp, sp, #16
 158              		.cfi_def_cfa_offset 24
 159 0004 00AF     		add	r7, sp, #0
 160              		.cfi_def_cfa_register 7
 161 0006 0346     		mov	r3, r0
 162 0008 0A46     		mov	r2, r1
 163 000a FB71     		strb	r3, [r7, #7]
 164 000c 1346     		mov	r3, r2
 165 000e BB71     		strb	r3, [r7, #6]
  44:Debug_Cards.c ****     uint8 rdBuff;
  45:Debug_Cards.c ****     I2C1_MasterClearStatus();
 166              		.loc 1 45 0
 167 0010 FFF7FEFF 		bl	I2C1_MasterClearStatus
  46:Debug_Cards.c ****     I2C1_MasterSendStart(MPC23008_SLAVE_ADDR,I2C1_WRITE_XFER_MODE);
 168              		.loc 1 46 0
 169 0014 0021     		movs	r1, #0
 170 0016 2020     		movs	r0, #32
 171 0018 FFF7FEFF 		bl	I2C1_MasterSendStart
  47:Debug_Cards.c ****     I2C1_MasterWriteByte(ctrlAdr);
 172              		.loc 1 47 0
 173 001c BB79     		ldrb	r3, [r7, #6]	@ zero_extendqisi2
 174 001e 1846     		mov	r0, r3
 175 0020 FFF7FEFF 		bl	I2C1_MasterWriteByte
  48:Debug_Cards.c ****     I2C1_MasterSendStop();
 176              		.loc 1 48 0
 177 0024 FFF7FEFF 		bl	I2C1_MasterSendStop
  49:Debug_Cards.c **** //    while ((I2C1_MasterStatus() & I2C1_MSTAT_WR_CMPLT) == 0);
  50:Debug_Cards.c ****     I2C1_MasterSendStart(slaveAdr,I2C1_READ_XFER_MODE);
 178              		.loc 1 50 0
ARM GAS  C:\Users\HPz420\AppData\Local\Temp\ccHEXuIV.s 			page 5


 179 0028 FB79     		ldrb	r3, [r7, #7]	@ zero_extendqisi2
 180 002a 0121     		movs	r1, #1
 181 002c 1846     		mov	r0, r3
 182 002e FFF7FEFF 		bl	I2C1_MasterSendStart
  51:Debug_Cards.c ****     rdBuff = I2C1_MasterReadByte(I2C1_NAK_DATA);
 183              		.loc 1 51 0
 184 0032 0020     		movs	r0, #0
 185 0034 FFF7FEFF 		bl	I2C1_MasterReadByte
 186 0038 0346     		mov	r3, r0
 187 003a FB73     		strb	r3, [r7, #15]
  52:Debug_Cards.c ****     I2C1_MasterSendStop();
 188              		.loc 1 52 0
 189 003c FFF7FEFF 		bl	I2C1_MasterSendStop
  53:Debug_Cards.c **** //    while ((I2C1_MasterStatus() & I2C1_MSTAT_RD_CMPLT) == 0);
  54:Debug_Cards.c ****     I2C1_MasterClearStatus();
 190              		.loc 1 54 0
 191 0040 FFF7FEFF 		bl	I2C1_MasterClearStatus
  55:Debug_Cards.c ****     return rdBuff;
 192              		.loc 1 55 0
 193 0044 FB7B     		ldrb	r3, [r7, #15]	@ zero_extendqisi2
  56:Debug_Cards.c **** }
 194              		.loc 1 56 0
 195 0046 1846     		mov	r0, r3
 196 0048 1037     		adds	r7, r7, #16
 197              		.cfi_def_cfa_offset 8
 198 004a BD46     		mov	sp, r7
 199              		.cfi_def_cfa_register 13
 200              		@ sp needed
 201 004c 80BD     		pop	{r7, pc}
 202              		.cfi_endproc
 203              	.LFE67:
 204              		.size	readRegisterDIGIO8CardX, .-readRegisterDIGIO8CardX
 205 004e 00BF     		.section	.text.writeRegisterDIGIO8CardX,"ax",%progbits
 206              		.align	2
 207              		.global	writeRegisterDIGIO8CardX
 208              		.thumb
 209              		.thumb_func
 210              		.type	writeRegisterDIGIO8CardX, %function
 211              	writeRegisterDIGIO8CardX:
 212              	.LFB68:
  57:Debug_Cards.c **** 
  58:Debug_Cards.c **** //////////////////////////////////////////////////////////////////////////////
  59:Debug_Cards.c **** // writeRegisterDIGIO8Card(ctrlAdr, ctrlVal) - 
  60:Debug_Cards.c **** //////////////////////////////////////////////////////////////////////////////
  61:Debug_Cards.c **** 
  62:Debug_Cards.c **** void writeRegisterDIGIO8CardX(uint8 slaveAdr, uint8 ctrlAdr, uint8 ctrlVal)
  63:Debug_Cards.c **** {
 213              		.loc 1 63 0
 214              		.cfi_startproc
 215              		@ args = 0, pretend = 0, frame = 8
 216              		@ frame_needed = 1, uses_anonymous_args = 0
 217 0000 80B5     		push	{r7, lr}
 218              		.cfi_def_cfa_offset 8
 219              		.cfi_offset 7, -8
 220              		.cfi_offset 14, -4
 221 0002 82B0     		sub	sp, sp, #8
 222              		.cfi_def_cfa_offset 16
ARM GAS  C:\Users\HPz420\AppData\Local\Temp\ccHEXuIV.s 			page 6


 223 0004 00AF     		add	r7, sp, #0
 224              		.cfi_def_cfa_register 7
 225 0006 0346     		mov	r3, r0
 226 0008 FB71     		strb	r3, [r7, #7]
 227 000a 0B46     		mov	r3, r1
 228 000c BB71     		strb	r3, [r7, #6]
 229 000e 1346     		mov	r3, r2
 230 0010 7B71     		strb	r3, [r7, #5]
  64:Debug_Cards.c ****     I2C1_MasterClearStatus();
 231              		.loc 1 64 0
 232 0012 FFF7FEFF 		bl	I2C1_MasterClearStatus
  65:Debug_Cards.c ****     myWrBuffer[0] = ctrlAdr;
 233              		.loc 1 65 0
 234 0016 0D4A     		ldr	r2, .L9
 235 0018 BB79     		ldrb	r3, [r7, #6]
 236 001a 1370     		strb	r3, [r2]
  66:Debug_Cards.c ****     myWrBuffer[1] = ctrlVal;
 237              		.loc 1 66 0
 238 001c 0B4A     		ldr	r2, .L9
 239 001e 7B79     		ldrb	r3, [r7, #5]
 240 0020 5370     		strb	r3, [r2, #1]
  67:Debug_Cards.c ****     I2C1_MasterWriteBuf(slaveAdr, myWrBuffer, 2, I2C1_MODE_COMPLETE_XFER);
 241              		.loc 1 67 0
 242 0022 F879     		ldrb	r0, [r7, #7]	@ zero_extendqisi2
 243 0024 0023     		movs	r3, #0
 244 0026 0222     		movs	r2, #2
 245 0028 0849     		ldr	r1, .L9
 246 002a FFF7FEFF 		bl	I2C1_MasterWriteBuf
  68:Debug_Cards.c ****     while (0u == (I2C1_MasterStatus() & I2C1_MSTAT_WR_CMPLT));
 247              		.loc 1 68 0
 248 002e 00BF     		nop
 249              	.L8:
 250              		.loc 1 68 0 is_stmt 0 discriminator 1
 251 0030 FFF7FEFF 		bl	I2C1_MasterStatus
 252 0034 0346     		mov	r3, r0
 253 0036 03F00203 		and	r3, r3, #2
 254 003a 002B     		cmp	r3, #0
 255 003c F8D0     		beq	.L8
  69:Debug_Cards.c ****     I2C1_MasterClearStatus();
 256              		.loc 1 69 0 is_stmt 1
 257 003e FFF7FEFF 		bl	I2C1_MasterClearStatus
  70:Debug_Cards.c **** }
 258              		.loc 1 70 0
 259 0042 00BF     		nop
 260 0044 0837     		adds	r7, r7, #8
 261              		.cfi_def_cfa_offset 8
 262 0046 BD46     		mov	sp, r7
 263              		.cfi_def_cfa_register 13
 264              		@ sp needed
 265 0048 80BD     		pop	{r7, pc}
 266              	.L10:
 267 004a 00BF     		.align	2
 268              	.L9:
 269 004c 00000000 		.word	myWrBuffer
 270              		.cfi_endproc
 271              	.LFE68:
 272              		.size	writeRegisterDIGIO8CardX, .-writeRegisterDIGIO8CardX
ARM GAS  C:\Users\HPz420\AppData\Local\Temp\ccHEXuIV.s 			page 7


 273              		.section	.rodata
 274              		.align	2
 275              	.LC0:
 276 0000 54657374 		.ascii	"Testing...\012\015\000"
 276      696E672E 
 276      2E2E0A0D 
 276      00
 277 000d 000000   		.align	2
 278              	.LC1:
 279 0010 43616C6C 		.ascii	"Calling I2C1_Start()...\012\015\000"
 279      696E6720 
 279      49324331 
 279      5F537461 
 279      72742829 
 280 002a 0000     		.align	2
 281              	.LC2:
 282 002c 43616C6C 		.ascii	"Called I2C1_Start()...\012\015\000"
 282      65642049 
 282      3243315F 
 282      53746172 
 282      7428292E 
 283 0045 000000   		.align	2
 284              	.LC3:
 285 0048 53657474 		.ascii	"Setting mux channel = 0x\000"
 285      696E6720 
 285      6D757820 
 285      6368616E 
 285      6E656C20 
 286 0061 000000   		.align	2
 287              	.LC4:
 288 0064 0A0D00   		.ascii	"\012\015\000"
 289 0067 00       		.align	2
 290              	.LC5:
 291 0068 54657374 		.ascii	"Testing DIGIO Card\000"
 291      696E6720 
 291      44494749 
 291      4F204361 
 291      726400
 292 007b 00       		.align	2
 293              	.LC6:
 294 007c 2E2E2E20 		.ascii	"... OK\012\015\000"
 294      4F4B0A0D 
 294      00
 295 0085 000000   		.align	2
 296              	.LC7:
 297 0088 2E2E2E2A 		.ascii	"...*** Read back FAILED ***\012\015\000"
 297      2A2A2052 
 297      65616420 
 297      6261636B 
 297      20464149 
 298 00a6 0000     		.align	2
 299              	.LC8:
 300 00a8 416C6C20 		.ascii	"All tests passed\012\015\000"
 300      74657374 
 300      73207061 
 300      73736564 
 300      0A0D00
ARM GAS  C:\Users\HPz420\AppData\Local\Temp\ccHEXuIV.s 			page 8


 301 00bb 00       		.align	2
 302              	.LC9:
 303 00bc 0A0D2A2A 		.ascii	"\012\015*** TESTS FAILED ***\012\012\015\000"
 303      2A205445 
 303      53545320 
 303      4641494C 
 303      4544202A 
 304              		.section	.text.debugRPIHub,"ax",%progbits
 305              		.align	2
 306              		.global	debugRPIHub
 307              		.thumb
 308              		.thumb_func
 309              		.type	debugRPIHub, %function
 310              	debugRPIHub:
 311              	.LFB69:
  71:Debug_Cards.c **** 
  72:Debug_Cards.c **** void debugRPIHub(void)
  73:Debug_Cards.c **** {
 312              		.loc 1 73 0
 313              		.cfi_startproc
 314              		@ args = 0, pretend = 0, frame = 96
 315              		@ frame_needed = 1, uses_anonymous_args = 0
 316 0000 B0B5     		push	{r4, r5, r7, lr}
 317              		.cfi_def_cfa_offset 16
 318              		.cfi_offset 4, -16
 319              		.cfi_offset 5, -12
 320              		.cfi_offset 7, -8
 321              		.cfi_offset 14, -4
 322 0002 98B0     		sub	sp, sp, #96
 323              		.cfi_def_cfa_offset 112
 324 0004 00AF     		add	r7, sp, #0
 325              		.cfi_def_cfa_register 7
  74:Debug_Cards.c ****     char debugStr[80];
  75:Debug_Cards.c ****     char muxNum[2];
  76:Debug_Cards.c ****     putStringToUSB("Testing...\n\r");
 326              		.loc 1 76 0
 327 0006 4648     		ldr	r0, .L20
 328 0008 FFF7FEFF 		bl	putStringToUSB
  77:Debug_Cards.c ****     uint8 I2CMUX_SLAVE_ADDR = 0x71;
 329              		.loc 1 77 0
 330 000c 7123     		movs	r3, #113
 331 000e 87F85D30 		strb	r3, [r7, #93]
  78:Debug_Cards.c ****     uint8 cMessage[2];
  79:Debug_Cards.c ****     uint8 channel;
  80:Debug_Cards.c ****     uint8 rdVal;
  81:Debug_Cards.c ****     uint8 pass1Fail0 = 1;
 332              		.loc 1 81 0
 333 0012 0123     		movs	r3, #1
 334 0014 87F85E30 		strb	r3, [r7, #94]
  82:Debug_Cards.c ****     
  83:Debug_Cards.c ****     putStringToUSB("Calling I2C1_Start()...\n\r");
 335              		.loc 1 83 0
 336 0018 4248     		ldr	r0, .L20+4
 337 001a FFF7FEFF 		bl	putStringToUSB
  84:Debug_Cards.c ****     I2C1_Start();
 338              		.loc 1 84 0
 339 001e FFF7FEFF 		bl	I2C1_Start
ARM GAS  C:\Users\HPz420\AppData\Local\Temp\ccHEXuIV.s 			page 9


  85:Debug_Cards.c ****     putStringToUSB("Called I2C1_Start()...\n\r");
 340              		.loc 1 85 0
 341 0022 4148     		ldr	r0, .L20+8
 342 0024 FFF7FEFF 		bl	putStringToUSB
  86:Debug_Cards.c ****     
  87:Debug_Cards.c ****     // initialize the four DIGIO8 cards
  88:Debug_Cards.c ****     for (channel = 0; channel < 4; channel++)
 343              		.loc 1 88 0
 344 0028 0023     		movs	r3, #0
 345 002a 87F85F30 		strb	r3, [r7, #95]
 346 002e 64E0     		b	.L12
 347              	.L16:
  89:Debug_Cards.c ****     {
  90:Debug_Cards.c ****         strcpy(debugStr,"Setting mux channel = 0x");
 348              		.loc 1 90 0
 349 0030 07F10C03 		add	r3, r7, #12
 350 0034 3D4A     		ldr	r2, .L20+12
 351 0036 1C46     		mov	r4, r3
 352 0038 1546     		mov	r5, r2
 353 003a 0FCD     		ldmia	r5!, {r0, r1, r2, r3}
 354 003c 0FC4     		stmia	r4!, {r0, r1, r2, r3}
 355 003e 95E80700 		ldmia	r5, {r0, r1, r2}
 356 0042 03C4     		stmia	r4!, {r0, r1}
 357 0044 2270     		strb	r2, [r4]
  91:Debug_Cards.c ****         muxNum[0] = '0' + channel;
 358              		.loc 1 91 0
 359 0046 97F85F30 		ldrb	r3, [r7, #95]
 360 004a 3033     		adds	r3, r3, #48
 361 004c DBB2     		uxtb	r3, r3
 362 004e 3B72     		strb	r3, [r7, #8]
  92:Debug_Cards.c ****         muxNum[1] = 0;
 363              		.loc 1 92 0
 364 0050 0023     		movs	r3, #0
 365 0052 7B72     		strb	r3, [r7, #9]
  93:Debug_Cards.c ****         strcat(debugStr,muxNum);
 366              		.loc 1 93 0
 367 0054 07F10802 		add	r2, r7, #8
 368 0058 07F10C03 		add	r3, r7, #12
 369 005c 1146     		mov	r1, r2
 370 005e 1846     		mov	r0, r3
 371 0060 FFF7FEFF 		bl	strcat
  94:Debug_Cards.c ****         strcat(debugStr,"\n\r");
 372              		.loc 1 94 0
 373 0064 07F10C03 		add	r3, r7, #12
 374 0068 1846     		mov	r0, r3
 375 006a FFF7FEFF 		bl	strlen
 376 006e 0346     		mov	r3, r0
 377 0070 1A46     		mov	r2, r3
 378 0072 07F10C03 		add	r3, r7, #12
 379 0076 1344     		add	r3, r3, r2
 380 0078 2D4A     		ldr	r2, .L20+16
 381 007a 1188     		ldrh	r1, [r2]	@ unaligned
 382 007c 9278     		ldrb	r2, [r2, #2]
 383 007e 1980     		strh	r1, [r3]	@ unaligned
 384 0080 9A70     		strb	r2, [r3, #2]
  95:Debug_Cards.c ****         putStringToUSB(debugStr);
 385              		.loc 1 95 0
ARM GAS  C:\Users\HPz420\AppData\Local\Temp\ccHEXuIV.s 			page 10


 386 0082 07F10C03 		add	r3, r7, #12
 387 0086 1846     		mov	r0, r3
 388 0088 FFF7FEFF 		bl	putStringToUSB
  96:Debug_Cards.c ****         cMessage[0] = 0x04 | channel;
 389              		.loc 1 96 0
 390 008c 97F85F30 		ldrb	r3, [r7, #95]
 391 0090 43F00403 		orr	r3, r3, #4
 392 0094 DBB2     		uxtb	r3, r3
 393 0096 3B71     		strb	r3, [r7, #4]
  97:Debug_Cards.c ****         I2C1_MasterWriteBuf(I2CMUX_SLAVE_ADDR, cMessage, 1, I2C_EEPROM_MODE_COMPLETE_XFER);
 394              		.loc 1 97 0
 395 0098 391D     		adds	r1, r7, #4
 396 009a 97F85D00 		ldrb	r0, [r7, #93]	@ zero_extendqisi2
 397 009e 0023     		movs	r3, #0
 398 00a0 0122     		movs	r2, #1
 399 00a2 FFF7FEFF 		bl	I2C1_MasterWriteBuf
  98:Debug_Cards.c ****         while (0u == (I2C1_MasterStatus() & I2C1_MSTAT_WR_CMPLT));
 400              		.loc 1 98 0
 401 00a6 00BF     		nop
 402              	.L13:
 403              		.loc 1 98 0 is_stmt 0 discriminator 1
 404 00a8 FFF7FEFF 		bl	I2C1_MasterStatus
 405 00ac 0346     		mov	r3, r0
 406 00ae 03F00203 		and	r3, r3, #2
 407 00b2 002B     		cmp	r3, #0
 408 00b4 F8D0     		beq	.L13
  99:Debug_Cards.c ****         putStringToUSB("Testing DIGIO Card");
 409              		.loc 1 99 0 is_stmt 1
 410 00b6 1F48     		ldr	r0, .L20+20
 411 00b8 FFF7FEFF 		bl	putStringToUSB
 100:Debug_Cards.c ****         writeRegisterDIGIO8CardX(0x20,MCP23008_IODIR_REGADR,MCP23008_IODIR_DEFVAL);
 412              		.loc 1 100 0
 413 00bc F022     		movs	r2, #240
 414 00be 0021     		movs	r1, #0
 415 00c0 2020     		movs	r0, #32
 416 00c2 FFF7FEFF 		bl	writeRegisterDIGIO8CardX
 101:Debug_Cards.c ****         rdVal = readRegisterDIGIO8CardX(0x20,MCP23008_IODIR_REGADR);
 417              		.loc 1 101 0
 418 00c6 0021     		movs	r1, #0
 419 00c8 2020     		movs	r0, #32
 420 00ca FFF7FEFF 		bl	readRegisterDIGIO8CardX
 421 00ce 0346     		mov	r3, r0
 422 00d0 87F85C30 		strb	r3, [r7, #92]
 102:Debug_Cards.c ****         if (rdVal == MCP23008_IODIR_DEFVAL)
 423              		.loc 1 102 0
 424 00d4 97F85C30 		ldrb	r3, [r7, #92]	@ zero_extendqisi2
 425 00d8 F02B     		cmp	r3, #240
 426 00da 03D1     		bne	.L14
 103:Debug_Cards.c ****         {
 104:Debug_Cards.c ****             putStringToUSB("... OK\n\r");
 427              		.loc 1 104 0
 428 00dc 1648     		ldr	r0, .L20+24
 429 00de FFF7FEFF 		bl	putStringToUSB
 430 00e2 05E0     		b	.L15
 431              	.L14:
 105:Debug_Cards.c ****         }
 106:Debug_Cards.c ****         else
ARM GAS  C:\Users\HPz420\AppData\Local\Temp\ccHEXuIV.s 			page 11


 107:Debug_Cards.c ****         {
 108:Debug_Cards.c ****             putStringToUSB("...*** Read back FAILED ***\n\r");
 432              		.loc 1 108 0
 433 00e4 1548     		ldr	r0, .L20+28
 434 00e6 FFF7FEFF 		bl	putStringToUSB
 109:Debug_Cards.c ****             pass1Fail0 = 0;
 435              		.loc 1 109 0
 436 00ea 0023     		movs	r3, #0
 437 00ec 87F85E30 		strb	r3, [r7, #94]
 438              	.L15:
  88:Debug_Cards.c ****     {
 439              		.loc 1 88 0 discriminator 2
 440 00f0 97F85F30 		ldrb	r3, [r7, #95]	@ zero_extendqisi2
 441 00f4 0133     		adds	r3, r3, #1
 442 00f6 87F85F30 		strb	r3, [r7, #95]
 443              	.L12:
  88:Debug_Cards.c ****     {
 444              		.loc 1 88 0 is_stmt 0 discriminator 1
 445 00fa 97F85F30 		ldrb	r3, [r7, #95]	@ zero_extendqisi2
 446 00fe 032B     		cmp	r3, #3
 447 0100 96D9     		bls	.L16
 110:Debug_Cards.c ****          }
 111:Debug_Cards.c ****     }
 112:Debug_Cards.c ****    if (pass1Fail0 == 1)
 448              		.loc 1 112 0 is_stmt 1
 449 0102 97F85E30 		ldrb	r3, [r7, #94]	@ zero_extendqisi2
 450 0106 012B     		cmp	r3, #1
 451 0108 03D1     		bne	.L17
 113:Debug_Cards.c ****     {
 114:Debug_Cards.c ****         putStringToUSB("All tests passed\n\r");
 452              		.loc 1 114 0
 453 010a 0D48     		ldr	r0, .L20+32
 454 010c FFF7FEFF 		bl	putStringToUSB
 115:Debug_Cards.c ****     }
 116:Debug_Cards.c ****     else
 117:Debug_Cards.c ****     {
 118:Debug_Cards.c ****         putStringToUSB("\n\r*** TESTS FAILED ***\n\n\r");
 119:Debug_Cards.c ****     }
 120:Debug_Cards.c **** }
 455              		.loc 1 120 0
 456 0110 02E0     		b	.L19
 457              	.L17:
 118:Debug_Cards.c ****     }
 458              		.loc 1 118 0
 459 0112 0C48     		ldr	r0, .L20+36
 460 0114 FFF7FEFF 		bl	putStringToUSB
 461              	.L19:
 462              		.loc 1 120 0
 463 0118 00BF     		nop
 464 011a 6037     		adds	r7, r7, #96
 465              		.cfi_def_cfa_offset 16
 466 011c BD46     		mov	sp, r7
 467              		.cfi_def_cfa_register 13
 468              		@ sp needed
 469 011e B0BD     		pop	{r4, r5, r7, pc}
 470              	.L21:
 471              		.align	2
ARM GAS  C:\Users\HPz420\AppData\Local\Temp\ccHEXuIV.s 			page 12


 472              	.L20:
 473 0120 00000000 		.word	.LC0
 474 0124 10000000 		.word	.LC1
 475 0128 2C000000 		.word	.LC2
 476 012c 48000000 		.word	.LC3
 477 0130 64000000 		.word	.LC4
 478 0134 68000000 		.word	.LC5
 479 0138 7C000000 		.word	.LC6
 480 013c 88000000 		.word	.LC7
 481 0140 A8000000 		.word	.LC8
 482 0144 BC000000 		.word	.LC9
 483              		.cfi_endproc
 484              	.LFE69:
 485              		.size	debugRPIHub, .-debugRPIHub
 486              		.text
 487              	.Letext0:
 488              		.file 2 "c:\\program files (x86)\\cypress\\psoc creator\\4.4\\psoc creator\\import\\gnu\\arm\\5.4.
 489              		.file 3 "c:\\program files (x86)\\cypress\\psoc creator\\4.4\\psoc creator\\import\\gnu\\arm\\5.4.
 490              		.file 4 "Generated_Source\\PSoC5/cytypes.h"
 491              		.file 5 "Generated_Source\\PSoC5/core_cm3.h"