ARM GAS  C:\Users\HPz420\AppData\Local\Temp\ccPtEA3B.s 			page 1


   1              		.syntax unified
   2              		.cpu cortex-m3
   3              		.fpu softvfp
   4              		.eabi_attribute 20, 1
   5              		.eabi_attribute 21, 1
   6              		.eabi_attribute 23, 3
   7              		.eabi_attribute 24, 1
   8              		.eabi_attribute 25, 1
   9              		.eabi_attribute 26, 1
  10              		.eabi_attribute 30, 6
  11              		.eabi_attribute 34, 1
  12              		.eabi_attribute 18, 4
  13              		.thumb
  14              		.syntax unified
  15              		.file	"I2C1.c"
  16              		.text
  17              	.Ltext0:
  18              		.cfi_sections	.debug_frame
  19              		.global	I2C1_initVar
  20              		.bss
  21              		.type	I2C1_initVar, %object
  22              		.size	I2C1_initVar, 1
  23              	I2C1_initVar:
  24 0000 00       		.space	1
  25              		.comm	I2C1_state,1,1
  26              		.section	.text.I2C1_Init,"ax",%progbits
  27              		.align	2
  28              		.global	I2C1_Init
  29              		.thumb
  30              		.thumb_func
  31              		.type	I2C1_Init, %function
  32              	I2C1_Init:
  33              	.LFB0:
  34              		.file 1 "Generated_Source\\PSoC5\\I2C1.c"
   1:Generated_Source\PSoC5/I2C1.c **** /*******************************************************************************
   2:Generated_Source\PSoC5/I2C1.c **** * File Name: I2C1.c
   3:Generated_Source\PSoC5/I2C1.c **** * Version 3.50
   4:Generated_Source\PSoC5/I2C1.c **** *
   5:Generated_Source\PSoC5/I2C1.c **** * Description:
   6:Generated_Source\PSoC5/I2C1.c **** *  This file provides the source code of APIs for the I2C component.
   7:Generated_Source\PSoC5/I2C1.c **** *  The actual protocol and operation code resides in the interrupt service
   8:Generated_Source\PSoC5/I2C1.c **** *  routine file.
   9:Generated_Source\PSoC5/I2C1.c **** *
  10:Generated_Source\PSoC5/I2C1.c **** *******************************************************************************
  11:Generated_Source\PSoC5/I2C1.c **** * Copyright 2008-2015, Cypress Semiconductor Corporation. All rights reserved.
  12:Generated_Source\PSoC5/I2C1.c **** * You may use this file only in accordance with the license, terms, conditions,
  13:Generated_Source\PSoC5/I2C1.c **** * disclaimers, and limitations in the end user license agreement accompanying
  14:Generated_Source\PSoC5/I2C1.c **** * the software package with which this file was provided.
  15:Generated_Source\PSoC5/I2C1.c **** *******************************************************************************/
  16:Generated_Source\PSoC5/I2C1.c **** 
  17:Generated_Source\PSoC5/I2C1.c **** #include "I2C1_PVT.h"
  18:Generated_Source\PSoC5/I2C1.c **** 
  19:Generated_Source\PSoC5/I2C1.c **** 
  20:Generated_Source\PSoC5/I2C1.c **** /**********************************
  21:Generated_Source\PSoC5/I2C1.c **** *      System variables
  22:Generated_Source\PSoC5/I2C1.c **** **********************************/
  23:Generated_Source\PSoC5/I2C1.c **** 
ARM GAS  C:\Users\HPz420\AppData\Local\Temp\ccPtEA3B.s 			page 2


  24:Generated_Source\PSoC5/I2C1.c **** uint8 I2C1_initVar = 0u; /* Defines if component was initialized */
  25:Generated_Source\PSoC5/I2C1.c **** 
  26:Generated_Source\PSoC5/I2C1.c **** volatile uint8 I2C1_state;  /* Current state of I2C FSM */
  27:Generated_Source\PSoC5/I2C1.c **** 
  28:Generated_Source\PSoC5/I2C1.c **** 
  29:Generated_Source\PSoC5/I2C1.c **** /*******************************************************************************
  30:Generated_Source\PSoC5/I2C1.c **** * Function Name: I2C1_Init
  31:Generated_Source\PSoC5/I2C1.c **** ********************************************************************************
  32:Generated_Source\PSoC5/I2C1.c **** *
  33:Generated_Source\PSoC5/I2C1.c **** * Summary:
  34:Generated_Source\PSoC5/I2C1.c **** *  Initializes I2C registers with initial values provided from customizer.
  35:Generated_Source\PSoC5/I2C1.c **** *
  36:Generated_Source\PSoC5/I2C1.c **** * Parameters:
  37:Generated_Source\PSoC5/I2C1.c **** *  None.
  38:Generated_Source\PSoC5/I2C1.c **** *
  39:Generated_Source\PSoC5/I2C1.c **** * Return:
  40:Generated_Source\PSoC5/I2C1.c **** *  None.
  41:Generated_Source\PSoC5/I2C1.c **** *
  42:Generated_Source\PSoC5/I2C1.c **** * Global variables:
  43:Generated_Source\PSoC5/I2C1.c **** *  None.
  44:Generated_Source\PSoC5/I2C1.c **** *
  45:Generated_Source\PSoC5/I2C1.c **** * Reentrant:
  46:Generated_Source\PSoC5/I2C1.c **** *  No.
  47:Generated_Source\PSoC5/I2C1.c **** *
  48:Generated_Source\PSoC5/I2C1.c **** *******************************************************************************/
  49:Generated_Source\PSoC5/I2C1.c **** void I2C1_Init(void) 
  50:Generated_Source\PSoC5/I2C1.c **** {
  35              		.loc 1 50 0
  36              		.cfi_startproc
  37              		@ args = 0, pretend = 0, frame = 8
  38              		@ frame_needed = 1, uses_anonymous_args = 0
  39 0000 80B5     		push	{r7, lr}
  40              		.cfi_def_cfa_offset 8
  41              		.cfi_offset 7, -8
  42              		.cfi_offset 14, -4
  43 0002 82B0     		sub	sp, sp, #8
  44              		.cfi_def_cfa_offset 16
  45 0004 00AF     		add	r7, sp, #0
  46              		.cfi_def_cfa_register 7
  51:Generated_Source\PSoC5/I2C1.c **** #if (I2C1_FF_IMPLEMENTED)
  52:Generated_Source\PSoC5/I2C1.c ****     /* Configure fixed function block */
  53:Generated_Source\PSoC5/I2C1.c ****     I2C1_CFG_REG  = I2C1_DEFAULT_CFG;
  54:Generated_Source\PSoC5/I2C1.c ****     I2C1_XCFG_REG = I2C1_DEFAULT_XCFG;
  55:Generated_Source\PSoC5/I2C1.c ****     I2C1_ADDR_REG = I2C1_DEFAULT_ADDR;
  56:Generated_Source\PSoC5/I2C1.c ****     I2C1_CLKDIV1_REG = LO8(I2C1_DEFAULT_DIVIDE_FACTOR);
  57:Generated_Source\PSoC5/I2C1.c ****     I2C1_CLKDIV2_REG = HI8(I2C1_DEFAULT_DIVIDE_FACTOR);
  58:Generated_Source\PSoC5/I2C1.c **** 
  59:Generated_Source\PSoC5/I2C1.c **** #else
  60:Generated_Source\PSoC5/I2C1.c ****     uint8 intState;
  61:Generated_Source\PSoC5/I2C1.c **** 
  62:Generated_Source\PSoC5/I2C1.c ****     /* Configure control and interrupt sources */
  63:Generated_Source\PSoC5/I2C1.c ****     I2C1_CFG_REG      = I2C1_DEFAULT_CFG;
  47              		.loc 1 63 0
  48 0006 1B4B     		ldr	r3, .L2
  49 0008 0022     		movs	r2, #0
  50 000a 1A70     		strb	r2, [r3]
  64:Generated_Source\PSoC5/I2C1.c ****     I2C1_INT_MASK_REG = I2C1_DEFAULT_INT_MASK;
ARM GAS  C:\Users\HPz420\AppData\Local\Temp\ccPtEA3B.s 			page 3


  51              		.loc 1 64 0
  52 000c 1A4B     		ldr	r3, .L2+4
  53 000e 0122     		movs	r2, #1
  54 0010 1A70     		strb	r2, [r3]
  65:Generated_Source\PSoC5/I2C1.c **** 
  66:Generated_Source\PSoC5/I2C1.c ****     /* Enable interrupt generation in status */
  67:Generated_Source\PSoC5/I2C1.c ****     intState = CyEnterCriticalSection();
  55              		.loc 1 67 0
  56 0012 FFF7FEFF 		bl	CyEnterCriticalSection
  57 0016 0346     		mov	r3, r0
  58 0018 FB71     		strb	r3, [r7, #7]
  68:Generated_Source\PSoC5/I2C1.c ****     I2C1_INT_ENABLE_REG |= I2C1_INTR_ENABLE;
  59              		.loc 1 68 0
  60 001a 184A     		ldr	r2, .L2+8
  61 001c 174B     		ldr	r3, .L2+8
  62 001e 1B78     		ldrb	r3, [r3]
  63 0020 DBB2     		uxtb	r3, r3
  64 0022 43F01003 		orr	r3, r3, #16
  65 0026 DBB2     		uxtb	r3, r3
  66 0028 1370     		strb	r3, [r2]
  69:Generated_Source\PSoC5/I2C1.c ****     CyExitCriticalSection(intState);
  67              		.loc 1 69 0
  68 002a FB79     		ldrb	r3, [r7, #7]	@ zero_extendqisi2
  69 002c 1846     		mov	r0, r3
  70 002e FFF7FEFF 		bl	CyExitCriticalSection
  70:Generated_Source\PSoC5/I2C1.c **** 
  71:Generated_Source\PSoC5/I2C1.c ****     /* Configure bit counter */
  72:Generated_Source\PSoC5/I2C1.c ****     #if (I2C1_MODE_SLAVE_ENABLED)
  73:Generated_Source\PSoC5/I2C1.c ****         I2C1_PERIOD_REG = I2C1_DEFAULT_PERIOD;
  74:Generated_Source\PSoC5/I2C1.c ****     #endif  /* (I2C1_MODE_SLAVE_ENABLED) */
  75:Generated_Source\PSoC5/I2C1.c **** 
  76:Generated_Source\PSoC5/I2C1.c ****     /* Configure clock generator */
  77:Generated_Source\PSoC5/I2C1.c ****     #if (I2C1_MODE_MASTER_ENABLED)
  78:Generated_Source\PSoC5/I2C1.c ****         I2C1_MCLK_PRD_REG = I2C1_DEFAULT_MCLK_PRD;
  71              		.loc 1 78 0
  72 0032 134B     		ldr	r3, .L2+12
  73 0034 0F22     		movs	r2, #15
  74 0036 1A70     		strb	r2, [r3]
  79:Generated_Source\PSoC5/I2C1.c ****         I2C1_MCLK_CMP_REG = I2C1_DEFAULT_MCLK_CMP;
  75              		.loc 1 79 0
  76 0038 124B     		ldr	r3, .L2+16
  77 003a 0822     		movs	r2, #8
  78 003c 1A70     		strb	r2, [r3]
  80:Generated_Source\PSoC5/I2C1.c ****     #endif /* (I2C1_MODE_MASTER_ENABLED) */
  81:Generated_Source\PSoC5/I2C1.c **** #endif /* (I2C1_FF_IMPLEMENTED) */
  82:Generated_Source\PSoC5/I2C1.c **** 
  83:Generated_Source\PSoC5/I2C1.c **** #if (I2C1_TIMEOUT_ENABLED)
  84:Generated_Source\PSoC5/I2C1.c ****     I2C1_TimeoutInit();
  85:Generated_Source\PSoC5/I2C1.c **** #endif /* (I2C1_TIMEOUT_ENABLED) */
  86:Generated_Source\PSoC5/I2C1.c **** 
  87:Generated_Source\PSoC5/I2C1.c ****     /* Configure internal interrupt */
  88:Generated_Source\PSoC5/I2C1.c ****     CyIntDisable    (I2C1_ISR_NUMBER);
  79              		.loc 1 88 0
  80 003e 124B     		ldr	r3, .L2+20
  81 0040 0122     		movs	r2, #1
  82 0042 1A60     		str	r2, [r3]
  89:Generated_Source\PSoC5/I2C1.c ****     CyIntSetPriority(I2C1_ISR_NUMBER, I2C1_ISR_PRIORITY);
ARM GAS  C:\Users\HPz420\AppData\Local\Temp\ccPtEA3B.s 			page 4


  83              		.loc 1 89 0
  84 0044 0721     		movs	r1, #7
  85 0046 0020     		movs	r0, #0
  86 0048 FFF7FEFF 		bl	CyIntSetPriority
  90:Generated_Source\PSoC5/I2C1.c ****     #if (I2C1_INTERN_I2C_INTR_HANDLER)
  91:Generated_Source\PSoC5/I2C1.c ****         (void) CyIntSetVector(I2C1_ISR_NUMBER, &I2C1_ISR);
  87              		.loc 1 91 0
  88 004c 0F49     		ldr	r1, .L2+24
  89 004e 0020     		movs	r0, #0
  90 0050 FFF7FEFF 		bl	CyIntSetVector
  92:Generated_Source\PSoC5/I2C1.c ****     #endif /* (I2C1_INTERN_I2C_INTR_HANDLER) */
  93:Generated_Source\PSoC5/I2C1.c **** 
  94:Generated_Source\PSoC5/I2C1.c ****     /* Set FSM to default state */
  95:Generated_Source\PSoC5/I2C1.c ****     I2C1_state = I2C1_SM_IDLE;
  91              		.loc 1 95 0
  92 0054 0E4B     		ldr	r3, .L2+28
  93 0056 1022     		movs	r2, #16
  94 0058 1A70     		strb	r2, [r3]
  96:Generated_Source\PSoC5/I2C1.c **** 
  97:Generated_Source\PSoC5/I2C1.c **** #if (I2C1_MODE_SLAVE_ENABLED)
  98:Generated_Source\PSoC5/I2C1.c ****     /* Clear status and buffers index */
  99:Generated_Source\PSoC5/I2C1.c ****     I2C1_slStatus = 0u;
 100:Generated_Source\PSoC5/I2C1.c ****     I2C1_slRdBufIndex = 0u;
 101:Generated_Source\PSoC5/I2C1.c ****     I2C1_slWrBufIndex = 0u;
 102:Generated_Source\PSoC5/I2C1.c **** 
 103:Generated_Source\PSoC5/I2C1.c ****     /* Configure matched address */
 104:Generated_Source\PSoC5/I2C1.c ****     I2C1_SlaveSetAddress(I2C1_DEFAULT_ADDR);
 105:Generated_Source\PSoC5/I2C1.c **** #endif /* (I2C1_MODE_SLAVE_ENABLED) */
 106:Generated_Source\PSoC5/I2C1.c **** 
 107:Generated_Source\PSoC5/I2C1.c **** #if (I2C1_MODE_MASTER_ENABLED)
 108:Generated_Source\PSoC5/I2C1.c ****     /* Clear status and buffers index */
 109:Generated_Source\PSoC5/I2C1.c ****     I2C1_mstrStatus = 0u;
  95              		.loc 1 109 0
  96 005a 0E4B     		ldr	r3, .L2+32
  97 005c 0022     		movs	r2, #0
  98 005e 1A70     		strb	r2, [r3]
 110:Generated_Source\PSoC5/I2C1.c ****     I2C1_mstrRdBufIndex = 0u;
  99              		.loc 1 110 0
 100 0060 0D4B     		ldr	r3, .L2+36
 101 0062 0022     		movs	r2, #0
 102 0064 1A70     		strb	r2, [r3]
 111:Generated_Source\PSoC5/I2C1.c ****     I2C1_mstrWrBufIndex = 0u;
 103              		.loc 1 111 0
 104 0066 0D4B     		ldr	r3, .L2+40
 105 0068 0022     		movs	r2, #0
 106 006a 1A70     		strb	r2, [r3]
 112:Generated_Source\PSoC5/I2C1.c **** #endif /* (I2C1_MODE_MASTER_ENABLED) */
 113:Generated_Source\PSoC5/I2C1.c **** }
 107              		.loc 1 113 0
 108 006c 00BF     		nop
 109 006e 0837     		adds	r7, r7, #8
 110              		.cfi_def_cfa_offset 8
 111 0070 BD46     		mov	sp, r7
 112              		.cfi_def_cfa_register 13
 113              		@ sp needed
 114 0072 80BD     		pop	{r7, pc}
 115              	.L3:
ARM GAS  C:\Users\HPz420\AppData\Local\Temp\ccPtEA3B.s 			page 5


 116              		.align	2
 117              	.L2:
 118 0074 76640040 		.word	1073767542
 119 0078 84640040 		.word	1073767556
 120 007c 94640040 		.word	1073767572
 121 0080 24650040 		.word	1073767716
 122 0084 34650040 		.word	1073767732
 123 0088 80E100E0 		.word	-536813184
 124 008c 00000000 		.word	I2C1_ISR
 125 0090 00000000 		.word	I2C1_state
 126 0094 00000000 		.word	I2C1_mstrStatus
 127 0098 00000000 		.word	I2C1_mstrRdBufIndex
 128 009c 00000000 		.word	I2C1_mstrWrBufIndex
 129              		.cfi_endproc
 130              	.LFE0:
 131              		.size	I2C1_Init, .-I2C1_Init
 132              		.section	.text.I2C1_Enable,"ax",%progbits
 133              		.align	2
 134              		.global	I2C1_Enable
 135              		.thumb
 136              		.thumb_func
 137              		.type	I2C1_Enable, %function
 138              	I2C1_Enable:
 139              	.LFB1:
 114:Generated_Source\PSoC5/I2C1.c **** 
 115:Generated_Source\PSoC5/I2C1.c **** 
 116:Generated_Source\PSoC5/I2C1.c **** /*******************************************************************************
 117:Generated_Source\PSoC5/I2C1.c **** * Function Name: I2C1_Enable
 118:Generated_Source\PSoC5/I2C1.c **** ********************************************************************************
 119:Generated_Source\PSoC5/I2C1.c **** *
 120:Generated_Source\PSoC5/I2C1.c **** * Summary:
 121:Generated_Source\PSoC5/I2C1.c **** *  Enables I2C operations.
 122:Generated_Source\PSoC5/I2C1.c **** *
 123:Generated_Source\PSoC5/I2C1.c **** * Parameters:
 124:Generated_Source\PSoC5/I2C1.c **** *  None.
 125:Generated_Source\PSoC5/I2C1.c **** *
 126:Generated_Source\PSoC5/I2C1.c **** * Return:
 127:Generated_Source\PSoC5/I2C1.c **** *  None.
 128:Generated_Source\PSoC5/I2C1.c **** *
 129:Generated_Source\PSoC5/I2C1.c **** * Global variables:
 130:Generated_Source\PSoC5/I2C1.c **** *  None.
 131:Generated_Source\PSoC5/I2C1.c **** *
 132:Generated_Source\PSoC5/I2C1.c **** *******************************************************************************/
 133:Generated_Source\PSoC5/I2C1.c **** void I2C1_Enable(void) 
 134:Generated_Source\PSoC5/I2C1.c **** {
 140              		.loc 1 134 0
 141              		.cfi_startproc
 142              		@ args = 0, pretend = 0, frame = 0
 143              		@ frame_needed = 1, uses_anonymous_args = 0
 144              		@ link register save eliminated.
 145 0000 80B4     		push	{r7}
 146              		.cfi_def_cfa_offset 4
 147              		.cfi_offset 7, -4
 148 0002 00AF     		add	r7, sp, #0
 149              		.cfi_def_cfa_register 7
 135:Generated_Source\PSoC5/I2C1.c **** #if (I2C1_FF_IMPLEMENTED)
 136:Generated_Source\PSoC5/I2C1.c ****     uint8 intState;
ARM GAS  C:\Users\HPz420\AppData\Local\Temp\ccPtEA3B.s 			page 6


 137:Generated_Source\PSoC5/I2C1.c **** 
 138:Generated_Source\PSoC5/I2C1.c ****     /* Enable power to block */
 139:Generated_Source\PSoC5/I2C1.c ****     intState = CyEnterCriticalSection();
 140:Generated_Source\PSoC5/I2C1.c ****     I2C1_ACT_PWRMGR_REG  |= I2C1_ACT_PWR_EN;
 141:Generated_Source\PSoC5/I2C1.c ****     I2C1_STBY_PWRMGR_REG |= I2C1_STBY_PWR_EN;
 142:Generated_Source\PSoC5/I2C1.c ****     CyExitCriticalSection(intState);
 143:Generated_Source\PSoC5/I2C1.c **** #else
 144:Generated_Source\PSoC5/I2C1.c ****     #if (I2C1_MODE_SLAVE_ENABLED)
 145:Generated_Source\PSoC5/I2C1.c ****         /* Enable bit counter */
 146:Generated_Source\PSoC5/I2C1.c ****         uint8 intState = CyEnterCriticalSection();
 147:Generated_Source\PSoC5/I2C1.c ****         I2C1_COUNTER_AUX_CTL_REG |= I2C1_CNT7_ENABLE;
 148:Generated_Source\PSoC5/I2C1.c ****         CyExitCriticalSection(intState);
 149:Generated_Source\PSoC5/I2C1.c ****     #endif /* (I2C1_MODE_SLAVE_ENABLED) */
 150:Generated_Source\PSoC5/I2C1.c **** 
 151:Generated_Source\PSoC5/I2C1.c ****     /* Enable slave or master bits */
 152:Generated_Source\PSoC5/I2C1.c ****     I2C1_CFG_REG |= I2C1_ENABLE_MS;
 150              		.loc 1 152 0
 151 0004 054A     		ldr	r2, .L5
 152 0006 054B     		ldr	r3, .L5
 153 0008 1B78     		ldrb	r3, [r3]
 154 000a DBB2     		uxtb	r3, r3
 155 000c 43F00203 		orr	r3, r3, #2
 156 0010 DBB2     		uxtb	r3, r3
 157 0012 1370     		strb	r3, [r2]
 153:Generated_Source\PSoC5/I2C1.c **** #endif /* (I2C1_FF_IMPLEMENTED) */
 154:Generated_Source\PSoC5/I2C1.c **** 
 155:Generated_Source\PSoC5/I2C1.c **** #if (I2C1_TIMEOUT_ENABLED)
 156:Generated_Source\PSoC5/I2C1.c ****     I2C1_TimeoutEnable();
 157:Generated_Source\PSoC5/I2C1.c **** #endif /* (I2C1_TIMEOUT_ENABLED) */
 158:Generated_Source\PSoC5/I2C1.c **** }
 158              		.loc 1 158 0
 159 0014 00BF     		nop
 160 0016 BD46     		mov	sp, r7
 161              		.cfi_def_cfa_register 13
 162              		@ sp needed
 163 0018 80BC     		pop	{r7}
 164              		.cfi_restore 7
 165              		.cfi_def_cfa_offset 0
 166 001a 7047     		bx	lr
 167              	.L6:
 168              		.align	2
 169              	.L5:
 170 001c 76640040 		.word	1073767542
 171              		.cfi_endproc
 172              	.LFE1:
 173              		.size	I2C1_Enable, .-I2C1_Enable
 174              		.section	.text.I2C1_Start,"ax",%progbits
 175              		.align	2
 176              		.global	I2C1_Start
 177              		.thumb
 178              		.thumb_func
 179              		.type	I2C1_Start, %function
 180              	I2C1_Start:
 181              	.LFB2:
 159:Generated_Source\PSoC5/I2C1.c **** 
 160:Generated_Source\PSoC5/I2C1.c **** 
 161:Generated_Source\PSoC5/I2C1.c **** /*******************************************************************************
ARM GAS  C:\Users\HPz420\AppData\Local\Temp\ccPtEA3B.s 			page 7


 162:Generated_Source\PSoC5/I2C1.c **** * Function Name: I2C1_Start
 163:Generated_Source\PSoC5/I2C1.c **** ********************************************************************************
 164:Generated_Source\PSoC5/I2C1.c **** *
 165:Generated_Source\PSoC5/I2C1.c **** * Summary:
 166:Generated_Source\PSoC5/I2C1.c **** *  Starts the I2C hardware. Enables Active mode power template bits or clock
 167:Generated_Source\PSoC5/I2C1.c **** *  gating as appropriate. It is required to be executed before I2C bus
 168:Generated_Source\PSoC5/I2C1.c **** *  operation.
 169:Generated_Source\PSoC5/I2C1.c **** *
 170:Generated_Source\PSoC5/I2C1.c **** * Parameters:
 171:Generated_Source\PSoC5/I2C1.c **** *  None.
 172:Generated_Source\PSoC5/I2C1.c **** *
 173:Generated_Source\PSoC5/I2C1.c **** * Return:
 174:Generated_Source\PSoC5/I2C1.c **** *  None.
 175:Generated_Source\PSoC5/I2C1.c **** *
 176:Generated_Source\PSoC5/I2C1.c **** * Side Effects:
 177:Generated_Source\PSoC5/I2C1.c **** *  This component automatically enables its interrupt.  If I2C is enabled !
 178:Generated_Source\PSoC5/I2C1.c **** *  without the interrupt enabled, it can lock up the I2C bus.
 179:Generated_Source\PSoC5/I2C1.c **** *
 180:Generated_Source\PSoC5/I2C1.c **** * Global variables:
 181:Generated_Source\PSoC5/I2C1.c **** *  I2C1_initVar - This variable is used to check the initial
 182:Generated_Source\PSoC5/I2C1.c **** *                             configuration, modified on the first
 183:Generated_Source\PSoC5/I2C1.c **** *                             function call.
 184:Generated_Source\PSoC5/I2C1.c **** *
 185:Generated_Source\PSoC5/I2C1.c **** * Reentrant:
 186:Generated_Source\PSoC5/I2C1.c **** *  No.
 187:Generated_Source\PSoC5/I2C1.c **** *
 188:Generated_Source\PSoC5/I2C1.c **** *******************************************************************************/
 189:Generated_Source\PSoC5/I2C1.c **** void I2C1_Start(void) 
 190:Generated_Source\PSoC5/I2C1.c **** {
 182              		.loc 1 190 0
 183              		.cfi_startproc
 184              		@ args = 0, pretend = 0, frame = 0
 185              		@ frame_needed = 1, uses_anonymous_args = 0
 186 0000 80B5     		push	{r7, lr}
 187              		.cfi_def_cfa_offset 8
 188              		.cfi_offset 7, -8
 189              		.cfi_offset 14, -4
 190 0002 00AF     		add	r7, sp, #0
 191              		.cfi_def_cfa_register 7
 191:Generated_Source\PSoC5/I2C1.c ****     if (0u == I2C1_initVar)
 192              		.loc 1 191 0
 193 0004 074B     		ldr	r3, .L9
 194 0006 1B78     		ldrb	r3, [r3]	@ zero_extendqisi2
 195 0008 002B     		cmp	r3, #0
 196 000a 04D1     		bne	.L8
 192:Generated_Source\PSoC5/I2C1.c ****     {
 193:Generated_Source\PSoC5/I2C1.c ****         I2C1_Init();
 197              		.loc 1 193 0
 198 000c FFF7FEFF 		bl	I2C1_Init
 194:Generated_Source\PSoC5/I2C1.c ****         I2C1_initVar = 1u; /* Component initialized */
 199              		.loc 1 194 0
 200 0010 044B     		ldr	r3, .L9
 201 0012 0122     		movs	r2, #1
 202 0014 1A70     		strb	r2, [r3]
 203              	.L8:
 195:Generated_Source\PSoC5/I2C1.c ****     }
 196:Generated_Source\PSoC5/I2C1.c **** 
ARM GAS  C:\Users\HPz420\AppData\Local\Temp\ccPtEA3B.s 			page 8


 197:Generated_Source\PSoC5/I2C1.c ****     I2C1_Enable();
 204              		.loc 1 197 0
 205 0016 FFF7FEFF 		bl	I2C1_Enable
 198:Generated_Source\PSoC5/I2C1.c ****     I2C1_EnableInt();
 206              		.loc 1 198 0
 207 001a 034B     		ldr	r3, .L9+4
 208 001c 0122     		movs	r2, #1
 209 001e 1A60     		str	r2, [r3]
 199:Generated_Source\PSoC5/I2C1.c **** }
 210              		.loc 1 199 0
 211 0020 00BF     		nop
 212 0022 80BD     		pop	{r7, pc}
 213              	.L10:
 214              		.align	2
 215              	.L9:
 216 0024 00000000 		.word	I2C1_initVar
 217 0028 00E100E0 		.word	-536813312
 218              		.cfi_endproc
 219              	.LFE2:
 220              		.size	I2C1_Start, .-I2C1_Start
 221              		.section	.text.I2C1_Stop,"ax",%progbits
 222              		.align	2
 223              		.global	I2C1_Stop
 224              		.thumb
 225              		.thumb_func
 226              		.type	I2C1_Stop, %function
 227              	I2C1_Stop:
 228              	.LFB3:
 200:Generated_Source\PSoC5/I2C1.c **** 
 201:Generated_Source\PSoC5/I2C1.c **** 
 202:Generated_Source\PSoC5/I2C1.c **** /*******************************************************************************
 203:Generated_Source\PSoC5/I2C1.c **** * Function Name: I2C1_Stop
 204:Generated_Source\PSoC5/I2C1.c **** ********************************************************************************
 205:Generated_Source\PSoC5/I2C1.c **** *
 206:Generated_Source\PSoC5/I2C1.c **** * Summary:
 207:Generated_Source\PSoC5/I2C1.c **** *  Disables I2C hardware and disables I2C interrupt. Disables Active mode power
 208:Generated_Source\PSoC5/I2C1.c **** *  template bits or clock gating as appropriate.
 209:Generated_Source\PSoC5/I2C1.c **** *
 210:Generated_Source\PSoC5/I2C1.c **** * Parameters:
 211:Generated_Source\PSoC5/I2C1.c **** *  None.
 212:Generated_Source\PSoC5/I2C1.c **** *
 213:Generated_Source\PSoC5/I2C1.c **** * Return:
 214:Generated_Source\PSoC5/I2C1.c **** *  None.
 215:Generated_Source\PSoC5/I2C1.c **** *
 216:Generated_Source\PSoC5/I2C1.c **** *******************************************************************************/
 217:Generated_Source\PSoC5/I2C1.c **** void I2C1_Stop(void) 
 218:Generated_Source\PSoC5/I2C1.c **** {
 229              		.loc 1 218 0
 230              		.cfi_startproc
 231              		@ args = 0, pretend = 0, frame = 0
 232              		@ frame_needed = 1, uses_anonymous_args = 0
 233              		@ link register save eliminated.
 234 0000 80B4     		push	{r7}
 235              		.cfi_def_cfa_offset 4
 236              		.cfi_offset 7, -4
 237 0002 00AF     		add	r7, sp, #0
 238              		.cfi_def_cfa_register 7
ARM GAS  C:\Users\HPz420\AppData\Local\Temp\ccPtEA3B.s 			page 9


 219:Generated_Source\PSoC5/I2C1.c ****     I2C1_DisableInt();
 239              		.loc 1 219 0
 240 0004 0F4B     		ldr	r3, .L12
 241 0006 0122     		movs	r2, #1
 242 0008 1A60     		str	r2, [r3]
 220:Generated_Source\PSoC5/I2C1.c **** 
 221:Generated_Source\PSoC5/I2C1.c **** #if (I2C1_TIMEOUT_ENABLED)
 222:Generated_Source\PSoC5/I2C1.c ****     I2C1_TimeoutStop();
 223:Generated_Source\PSoC5/I2C1.c **** #endif  /* End (I2C1_TIMEOUT_ENABLED) */
 224:Generated_Source\PSoC5/I2C1.c **** 
 225:Generated_Source\PSoC5/I2C1.c **** #if (I2C1_FF_IMPLEMENTED)
 226:Generated_Source\PSoC5/I2C1.c ****     {
 227:Generated_Source\PSoC5/I2C1.c ****         uint8 intState;
 228:Generated_Source\PSoC5/I2C1.c ****         uint16 blockResetCycles;
 229:Generated_Source\PSoC5/I2C1.c **** 
 230:Generated_Source\PSoC5/I2C1.c ****         /* Store registers effected by block disable */
 231:Generated_Source\PSoC5/I2C1.c ****         I2C1_backup.addr    = I2C1_ADDR_REG;
 232:Generated_Source\PSoC5/I2C1.c ****         I2C1_backup.clkDiv1 = I2C1_CLKDIV1_REG;
 233:Generated_Source\PSoC5/I2C1.c ****         I2C1_backup.clkDiv2 = I2C1_CLKDIV2_REG;
 234:Generated_Source\PSoC5/I2C1.c **** 
 235:Generated_Source\PSoC5/I2C1.c ****         /* Calculate number of cycles to reset block */
 236:Generated_Source\PSoC5/I2C1.c ****         blockResetCycles = ((uint16) ((uint16) I2C1_CLKDIV2_REG << 8u) | I2C1_CLKDIV1_REG) + 1u;
 237:Generated_Source\PSoC5/I2C1.c **** 
 238:Generated_Source\PSoC5/I2C1.c ****         /* Disable block */
 239:Generated_Source\PSoC5/I2C1.c ****         I2C1_CFG_REG &= (uint8) ~I2C1_CFG_EN_SLAVE;
 240:Generated_Source\PSoC5/I2C1.c ****         /* Wait for block reset before disable power */
 241:Generated_Source\PSoC5/I2C1.c ****         CyDelayCycles((uint32) blockResetCycles);
 242:Generated_Source\PSoC5/I2C1.c **** 
 243:Generated_Source\PSoC5/I2C1.c ****         /* Disable power to block */
 244:Generated_Source\PSoC5/I2C1.c ****         intState = CyEnterCriticalSection();
 245:Generated_Source\PSoC5/I2C1.c ****         I2C1_ACT_PWRMGR_REG  &= (uint8) ~I2C1_ACT_PWR_EN;
 246:Generated_Source\PSoC5/I2C1.c ****         I2C1_STBY_PWRMGR_REG &= (uint8) ~I2C1_STBY_PWR_EN;
 247:Generated_Source\PSoC5/I2C1.c ****         CyExitCriticalSection(intState);
 248:Generated_Source\PSoC5/I2C1.c **** 
 249:Generated_Source\PSoC5/I2C1.c ****         /* Enable block */
 250:Generated_Source\PSoC5/I2C1.c ****         I2C1_CFG_REG |= (uint8) I2C1_ENABLE_MS;
 251:Generated_Source\PSoC5/I2C1.c **** 
 252:Generated_Source\PSoC5/I2C1.c ****         /* Restore registers effected by block disable. Ticket ID#198004 */
 253:Generated_Source\PSoC5/I2C1.c ****         I2C1_ADDR_REG    = I2C1_backup.addr;
 254:Generated_Source\PSoC5/I2C1.c ****         I2C1_ADDR_REG    = I2C1_backup.addr;
 255:Generated_Source\PSoC5/I2C1.c ****         I2C1_CLKDIV1_REG = I2C1_backup.clkDiv1;
 256:Generated_Source\PSoC5/I2C1.c ****         I2C1_CLKDIV2_REG = I2C1_backup.clkDiv2;
 257:Generated_Source\PSoC5/I2C1.c ****     }
 258:Generated_Source\PSoC5/I2C1.c **** #else
 259:Generated_Source\PSoC5/I2C1.c **** 
 260:Generated_Source\PSoC5/I2C1.c ****     /* Disable slave or master bits */
 261:Generated_Source\PSoC5/I2C1.c ****     I2C1_CFG_REG &= (uint8) ~I2C1_ENABLE_MS;
 243              		.loc 1 261 0
 244 000a 0F4A     		ldr	r2, .L12+4
 245 000c 0E4B     		ldr	r3, .L12+4
 246 000e 1B78     		ldrb	r3, [r3]
 247 0010 DBB2     		uxtb	r3, r3
 248 0012 23F00203 		bic	r3, r3, #2
 249 0016 DBB2     		uxtb	r3, r3
 250 0018 1370     		strb	r3, [r2]
 262:Generated_Source\PSoC5/I2C1.c **** 
 263:Generated_Source\PSoC5/I2C1.c **** #if (I2C1_MODE_SLAVE_ENABLED)
ARM GAS  C:\Users\HPz420\AppData\Local\Temp\ccPtEA3B.s 			page 10


 264:Generated_Source\PSoC5/I2C1.c ****     {
 265:Generated_Source\PSoC5/I2C1.c ****         /* Disable bit counter */
 266:Generated_Source\PSoC5/I2C1.c ****         uint8 intState = CyEnterCriticalSection();
 267:Generated_Source\PSoC5/I2C1.c ****         I2C1_COUNTER_AUX_CTL_REG &= (uint8) ~I2C1_CNT7_ENABLE;
 268:Generated_Source\PSoC5/I2C1.c ****         CyExitCriticalSection(intState);
 269:Generated_Source\PSoC5/I2C1.c ****     }
 270:Generated_Source\PSoC5/I2C1.c **** #endif /* (I2C1_MODE_SLAVE_ENABLED) */
 271:Generated_Source\PSoC5/I2C1.c **** 
 272:Generated_Source\PSoC5/I2C1.c ****     /* Clear interrupt source register */
 273:Generated_Source\PSoC5/I2C1.c ****     (void) I2C1_CSR_REG;
 251              		.loc 1 273 0
 252 001a 0C4B     		ldr	r3, .L12+8
 253 001c 1B78     		ldrb	r3, [r3]
 274:Generated_Source\PSoC5/I2C1.c **** #endif /* (I2C1_FF_IMPLEMENTED) */
 275:Generated_Source\PSoC5/I2C1.c **** 
 276:Generated_Source\PSoC5/I2C1.c ****     /* Disable interrupt on stop (enabled by write transaction) */
 277:Generated_Source\PSoC5/I2C1.c ****     I2C1_DISABLE_INT_ON_STOP;
 254              		.loc 1 277 0
 255 001e 0C4A     		ldr	r2, .L12+12
 256 0020 0B4B     		ldr	r3, .L12+12
 257 0022 1B78     		ldrb	r3, [r3]
 258 0024 DBB2     		uxtb	r3, r3
 259 0026 23F02003 		bic	r3, r3, #32
 260 002a DBB2     		uxtb	r3, r3
 261 002c 1370     		strb	r3, [r2]
 278:Generated_Source\PSoC5/I2C1.c ****     I2C1_ClearPendingInt();
 262              		.loc 1 278 0
 263 002e 094B     		ldr	r3, .L12+16
 264 0030 0122     		movs	r2, #1
 265 0032 1A60     		str	r2, [r3]
 279:Generated_Source\PSoC5/I2C1.c **** 
 280:Generated_Source\PSoC5/I2C1.c ****     /* Reset FSM to default state */
 281:Generated_Source\PSoC5/I2C1.c ****     I2C1_state = I2C1_SM_IDLE;
 266              		.loc 1 281 0
 267 0034 084B     		ldr	r3, .L12+20
 268 0036 1022     		movs	r2, #16
 269 0038 1A70     		strb	r2, [r3]
 282:Generated_Source\PSoC5/I2C1.c **** 
 283:Generated_Source\PSoC5/I2C1.c ****     /* Clear busy statuses */
 284:Generated_Source\PSoC5/I2C1.c **** #if (I2C1_MODE_SLAVE_ENABLED)
 285:Generated_Source\PSoC5/I2C1.c ****     I2C1_slStatus &= (uint8) ~(I2C1_SSTAT_RD_BUSY | I2C1_SSTAT_WR_BUSY);
 286:Generated_Source\PSoC5/I2C1.c **** #endif /* (I2C1_MODE_SLAVE_ENABLED) */
 287:Generated_Source\PSoC5/I2C1.c **** }
 270              		.loc 1 287 0
 271 003a 00BF     		nop
 272 003c BD46     		mov	sp, r7
 273              		.cfi_def_cfa_register 13
 274              		@ sp needed
 275 003e 80BC     		pop	{r7}
 276              		.cfi_restore 7
 277              		.cfi_def_cfa_offset 0
 278 0040 7047     		bx	lr
 279              	.L13:
 280 0042 00BF     		.align	2
 281              	.L12:
 282 0044 80E100E0 		.word	-536813184
 283 0048 76640040 		.word	1073767542
ARM GAS  C:\Users\HPz420\AppData\Local\Temp\ccPtEA3B.s 			page 11


 284 004c 64640040 		.word	1073767524
 285 0050 84640040 		.word	1073767556
 286 0054 80E200E0 		.word	-536812928
 287 0058 00000000 		.word	I2C1_state
 288              		.cfi_endproc
 289              	.LFE3:
 290              		.size	I2C1_Stop, .-I2C1_Stop
 291              		.text
 292              	.Letext0:
 293              		.file 2 "Generated_Source\\PSoC5\\cytypes.h"
 294              		.file 3 "Generated_Source\\PSoC5\\I2C1_PVT.h"