ARM GAS  C:\Users\HPz420\AppData\Local\Temp\ccYjbW4Q.s 			page 1


   1              		.syntax unified
   2              		.cpu cortex-m3
   3              		.fpu softvfp
   4              		.eabi_attribute 20, 1
   5              		.eabi_attribute 21, 1
   6              		.eabi_attribute 23, 3
   7              		.eabi_attribute 24, 1
   8              		.eabi_attribute 25, 1
   9              		.eabi_attribute 26, 1
  10              		.eabi_attribute 30, 6
  11              		.eabi_attribute 34, 1
  12              		.eabi_attribute 18, 4
  13              		.thumb
  14              		.syntax unified
  15              		.file	"PSoC_Menu.c"
  16              		.text
  17              	.Ltext0:
  18              		.cfi_sections	.debug_frame
  19              		.comm	receiveBuffer,80,4
  20              		.comm	receiveBufferPtr,1,1
  21              		.comm	gotCRorLF,1,1
  22              		.global	cardType
  23              		.bss
  24              		.align	1
  25              		.type	cardType, %object
  26              		.size	cardType, 2
  27              	cardType:
  28 0000 0000     		.space	2
  29              		.section	.rodata
  30              		.align	2
  31              	.LC0:
  32 0000 0A0D4C61 		.ascii	"\012\015Land Boards, LLC - RPi Card Test Station\012"
  32      6E642042 
  32      6F617264 
  32      732C204C 
  32      4C43202D 
  33 002b 0D00     		.ascii	"\015\000"
  34 002d 000000   		.align	2
  35              	.LC1:
  36 0030 31202D20 		.ascii	"1 - Select RPP-UIO-16 Card\012\015\000"
  36      53656C65 
  36      63742052 
  36      50502D55 
  36      494F2D31 
  37 004d 000000   		.align	2
  38              	.LC2:
  39 0050 32202D20 		.ascii	"2 - Select RPPSOC Card\012\015\000"
  39      53656C65 
  39      63742052 
  39      5050534F 
  39      43204361 
  40 0069 000000   		.align	2
  41              	.LC3:
  42 006c 33202D20 		.ascii	"3 - Select RASPI-PLUS-GVS-CFG Card\012\015\000"
  42      53656C65 
  42      63742052 
  42      41535049 
ARM GAS  C:\Users\HPz420\AppData\Local\Temp\ccYjbW4Q.s 			page 2


  42      2D504C55 
  43 0091 000000   		.align	2
  44              	.LC4:
  45 0094 34202D20 		.ascii	"4 - Select RASPI-GVS Card\012\015\000"
  45      53656C65 
  45      63742052 
  45      41535049 
  45      2D475653 
  46              		.align	2
  47              	.LC5:
  48 00b0 35202D20 		.ascii	"5 - Select RASPI-PLUS-GVS Card\012\015\000"
  48      53656C65 
  48      63742052 
  48      41535049 
  48      2D504C55 
  49 00d1 000000   		.align	2
  50              	.LC6:
  51 00d4 36202D20 		.ascii	"6 - Select RPI-I2C-HUB Card\012\015\000"
  51      53656C65 
  51      63742052 
  51      50492D49 
  51      32432D48 
  52 00f2 0000     		.align	2
  53              	.LC7:
  54 00f4 37202D20 		.ascii	"7 - Select RPI-SPI8 Card\012\015\000"
  54      53656C65 
  54      63742052 
  54      50492D53 
  54      50493820 
  55 010f 00       		.align	2
  56              	.LC8:
  57 0110 38202D20 		.ascii	"8 - Select SPI-POTX2 Card (via RPI-SPI8)\012\015\000"
  57      53656C65 
  57      63742053 
  57      50492D50 
  57      4F545832 
  58 013b 00       		.align	2
  59              	.LC9:
  60 013c 52202D20 		.ascii	"R - Read EEPROM\012\015\000"
  60      52656164 
  60      20454550 
  60      524F4D0A 
  60      0D00
  61 014e 0000     		.align	2
  62              	.LC10:
  63 0150 57202D20 		.ascii	"W - Write EEPROM\012\015\000"
  63      57726974 
  63      65204545 
  63      50524F4D 
  63      0A0D00
  64 0163 00       		.align	2
  65              	.LC11:
  66 0164 42202D20 		.ascii	"B - Bounce LED across Card GPIOs\012\015\000"
  66      426F756E 
  66      6365204C 
  66      45442061 
  66      63726F73 
ARM GAS  C:\Users\HPz420\AppData\Local\Temp\ccYjbW4Q.s 			page 3


  67 0187 00       		.align	2
  68              	.LC12:
  69 0188 54202D20 		.ascii	"T - Test Card\012\015\000"
  69      54657374 
  69      20436172 
  69      640A0D00 
  70              		.align	2
  71              	.LC13:
  72 0198 44202D20 		.ascii	"D - Debug Card\012\015\000"
  72      44656275 
  72      67204361 
  72      72640A0D 
  72      00
  73 01a9 000000   		.align	2
  74              	.LC14:
  75 01ac 3F202D20 		.ascii	"? - Print this menu\012\015\000"
  75      5072696E 
  75      74207468 
  75      6973206D 
  75      656E750A 
  76              		.section	.text.printMenuOptions,"ax",%progbits
  77              		.align	2
  78              		.global	printMenuOptions
  79              		.thumb
  80              		.thumb_func
  81              		.type	printMenuOptions, %function
  82              	printMenuOptions:
  83              	.LFB63:
  84              		.file 1 "PSoC_Menu.c"
   1:PSoC_Menu.c   **** /* ========================================
   2:PSoC_Menu.c   ****  *
   3:PSoC_Menu.c   ****  * Copyright LAND BOARDS, LLC, 2019
   4:PSoC_Menu.c   ****  * All Rights Reserved
   5:PSoC_Menu.c   ****  * UNPUBLISHED, LICENSED SOFTWARE.
   6:PSoC_Menu.c   ****  *
   7:PSoC_Menu.c   ****  * CONFIDENTIAL AND PROPRIETARY INFORMATION
   8:PSoC_Menu.c   ****  * WHICH IS THE PROPERTY OF Land Boards.
   9:PSoC_Menu.c   ****  *
  10:PSoC_Menu.c   ****  * Menu for the card testing software
  11:PSoC_Menu.c   ****  *
  12:PSoC_Menu.c   ****  * ========================================
  13:PSoC_Menu.c   **** */
  14:PSoC_Menu.c   **** 
  15:PSoC_Menu.c   **** #include "RPI_PSOC5.h"
  16:PSoC_Menu.c   **** #include <project.h>
  17:PSoC_Menu.c   **** 
  18:PSoC_Menu.c   **** uint8 receiveBuffer[80];
  19:PSoC_Menu.c   **** uint8 receiveBufferPtr;
  20:PSoC_Menu.c   **** uint8 gotCRorLF;
  21:PSoC_Menu.c   **** uint16 cardType = UNSELECTED_CARD;
  22:PSoC_Menu.c   **** 
  23:PSoC_Menu.c   **** ////////////////////////////////////////////////////////////////////////////
  24:PSoC_Menu.c   **** // void printMenu(void) - Print the menu
  25:PSoC_Menu.c   **** 
  26:PSoC_Menu.c   **** void printMenuOptions(void)
  27:PSoC_Menu.c   **** {
  85              		.loc 1 27 0
ARM GAS  C:\Users\HPz420\AppData\Local\Temp\ccYjbW4Q.s 			page 4


  86              		.cfi_startproc
  87              		@ args = 0, pretend = 0, frame = 0
  88              		@ frame_needed = 1, uses_anonymous_args = 0
  89 0000 80B5     		push	{r7, lr}
  90              		.cfi_def_cfa_offset 8
  91              		.cfi_offset 7, -8
  92              		.cfi_offset 14, -4
  93 0002 00AF     		add	r7, sp, #0
  94              		.cfi_def_cfa_register 7
  28:PSoC_Menu.c   ****     putStringToUSB("\n\rLand Boards, LLC - RPi Card Test Station\n\r");
  95              		.loc 1 28 0
  96 0004 1748     		ldr	r0, .L2
  97 0006 FFF7FEFF 		bl	putStringToUSB
  29:PSoC_Menu.c   ****     putStringToUSB("1 - Select RPP-UIO-16 Card\n\r");
  98              		.loc 1 29 0
  99 000a 1748     		ldr	r0, .L2+4
 100 000c FFF7FEFF 		bl	putStringToUSB
  30:PSoC_Menu.c   ****     putStringToUSB("2 - Select RPPSOC Card\n\r");
 101              		.loc 1 30 0
 102 0010 1648     		ldr	r0, .L2+8
 103 0012 FFF7FEFF 		bl	putStringToUSB
  31:PSoC_Menu.c   ****     putStringToUSB("3 - Select RASPI-PLUS-GVS-CFG Card\n\r");
 104              		.loc 1 31 0
 105 0016 1648     		ldr	r0, .L2+12
 106 0018 FFF7FEFF 		bl	putStringToUSB
  32:PSoC_Menu.c   ****     putStringToUSB("4 - Select RASPI-GVS Card\n\r");
 107              		.loc 1 32 0
 108 001c 1548     		ldr	r0, .L2+16
 109 001e FFF7FEFF 		bl	putStringToUSB
  33:PSoC_Menu.c   ****     putStringToUSB("5 - Select RASPI-PLUS-GVS Card\n\r");
 110              		.loc 1 33 0
 111 0022 1548     		ldr	r0, .L2+20
 112 0024 FFF7FEFF 		bl	putStringToUSB
  34:PSoC_Menu.c   ****     putStringToUSB("6 - Select RPI-I2C-HUB Card\n\r");
 113              		.loc 1 34 0
 114 0028 1448     		ldr	r0, .L2+24
 115 002a FFF7FEFF 		bl	putStringToUSB
  35:PSoC_Menu.c   ****     putStringToUSB("7 - Select RPI-SPI8 Card\n\r");
 116              		.loc 1 35 0
 117 002e 1448     		ldr	r0, .L2+28
 118 0030 FFF7FEFF 		bl	putStringToUSB
  36:PSoC_Menu.c   ****     putStringToUSB("8 - Select SPI-POTX2 Card (via RPI-SPI8)\n\r");
 119              		.loc 1 36 0
 120 0034 1348     		ldr	r0, .L2+32
 121 0036 FFF7FEFF 		bl	putStringToUSB
  37:PSoC_Menu.c   ****     putStringToUSB("R - Read EEPROM\n\r");
 122              		.loc 1 37 0
 123 003a 1348     		ldr	r0, .L2+36
 124 003c FFF7FEFF 		bl	putStringToUSB
  38:PSoC_Menu.c   ****     putStringToUSB("W - Write EEPROM\n\r");
 125              		.loc 1 38 0
 126 0040 1248     		ldr	r0, .L2+40
 127 0042 FFF7FEFF 		bl	putStringToUSB
  39:PSoC_Menu.c   ****     putStringToUSB("B - Bounce LED across Card GPIOs\n\r");
 128              		.loc 1 39 0
 129 0046 1248     		ldr	r0, .L2+44
 130 0048 FFF7FEFF 		bl	putStringToUSB
ARM GAS  C:\Users\HPz420\AppData\Local\Temp\ccYjbW4Q.s 			page 5


  40:PSoC_Menu.c   ****     putStringToUSB("T - Test Card\n\r");
 131              		.loc 1 40 0
 132 004c 1148     		ldr	r0, .L2+48
 133 004e FFF7FEFF 		bl	putStringToUSB
  41:PSoC_Menu.c   ****     putStringToUSB("D - Debug Card\n\r");
 134              		.loc 1 41 0
 135 0052 1148     		ldr	r0, .L2+52
 136 0054 FFF7FEFF 		bl	putStringToUSB
  42:PSoC_Menu.c   ****     putStringToUSB("? - Print this menu\n\r");
 137              		.loc 1 42 0
 138 0058 1048     		ldr	r0, .L2+56
 139 005a FFF7FEFF 		bl	putStringToUSB
  43:PSoC_Menu.c   **** }
 140              		.loc 1 43 0
 141 005e 00BF     		nop
 142 0060 80BD     		pop	{r7, pc}
 143              	.L3:
 144 0062 00BF     		.align	2
 145              	.L2:
 146 0064 00000000 		.word	.LC0
 147 0068 30000000 		.word	.LC1
 148 006c 50000000 		.word	.LC2
 149 0070 6C000000 		.word	.LC3
 150 0074 94000000 		.word	.LC4
 151 0078 B0000000 		.word	.LC5
 152 007c D4000000 		.word	.LC6
 153 0080 F4000000 		.word	.LC7
 154 0084 10010000 		.word	.LC8
 155 0088 3C010000 		.word	.LC9
 156 008c 50010000 		.word	.LC10
 157 0090 64010000 		.word	.LC11
 158 0094 88010000 		.word	.LC12
 159 0098 98010000 		.word	.LC13
 160 009c AC010000 		.word	.LC14
 161              		.cfi_endproc
 162              	.LFE63:
 163              		.size	printMenuOptions, .-printMenuOptions
 164              		.section	.rodata
 165 01c2 0000     		.align	2
 166              	.LC15:
 167 01c4 52656164 		.ascii	"Read from the EEPROM\012\015\000"
 167      2066726F 
 167      6D207468 
 167      65204545 
 167      50524F4D 
 168 01db 00       		.align	2
 169              	.LC16:
 170 01dc 4D757374 		.ascii	"Must first select card type\012\015\000"
 170      20666972 
 170      73742073 
 170      656C6563 
 170      74206361 
 171 01fa 0000     		.align	2
 172              	.LC17:
 173 01fc 57726974 		.ascii	"Write to the EEPROM...\000"
 173      6520746F 
 173      20746865 
ARM GAS  C:\Users\HPz420\AppData\Local\Temp\ccYjbW4Q.s 			page 6


 173      20454550 
 173      524F4D2E 
 174 0213 00       		.align	2
 175              	.LC18:
 176 0214 436F6D70 		.ascii	"Completed EEPROM write\012\015\000"
 176      6C657465 
 176      64204545 
 176      50524F4D 
 176      20777269 
 177 022d 000000   		.align	2
 178              	.LC19:
 179 0230 45455052 		.ascii	"EEPROM write failed (does this card have an EEPROM?"
 179      4F4D2077 
 179      72697465 
 179      20666169 
 179      6C656420 
 180 0263 0A0D00   		.ascii	"\012\015\000"
 181 0266 0000     		.align	2
 182              	.LC20:
 183 0268 54657374 		.ascii	"Testing RPI-I2C-HUB input, please wait\012\015\000"
 183      696E6720 
 183      5250492D 
 183      4932432D 
 183      48554220 
 184 0291 000000   		.align	2
 185              	.LC21:
 186 0294 436F6D70 		.ascii	"Completed Testing RPI-I2C-HUB input\012\015\000"
 186      6C657465 
 186      64205465 
 186      7374696E 
 186      67205250 
 187 02ba 0000     		.align	2
 188              	.LC22:
 189 02bc 54657374 		.ascii	"Testing RPI-SPI8 input, please wait\012\015\000"
 189      696E6720 
 189      5250492D 
 189      53504938 
 189      20696E70 
 190 02e2 0000     		.align	2
 191              	.LC23:
 192 02e4 436F6D70 		.ascii	"Completed Testing RPI-SPI8 input\012\015\000"
 192      6C657465 
 192      64205465 
 192      7374696E 
 192      67205250 
 193 0307 00       		.align	2
 194              	.LC24:
 195 0308 54657374 		.ascii	"Testing SPI-POTX2 card (via RPI-SPI8), please wait\012"
 195      696E6720 
 195      5350492D 
 195      504F5458 
 195      32206361 
 196 033b 0D00     		.ascii	"\015\000"
 197 033d 000000   		.align	2
 198              	.LC25:
 199 0340 436F6D70 		.ascii	"Completed Testing SPI-POTX2 card (via RPI-SPI8)\012"
 199      6C657465 
ARM GAS  C:\Users\HPz420\AppData\Local\Temp\ccYjbW4Q.s 			page 7


 199      64205465 
 199      7374696E 
 199      67205350 
 200 0370 0D00     		.ascii	"\015\000"
 201 0372 0000     		.align	2
 202              	.LC26:
 203 0374 43617264 		.ascii	"Card not yet implemented\012\015\000"
 203      206E6F74 
 203      20796574 
 203      20696D70 
 203      6C656D65 
 204 038f 00       		.align	2
 205              	.LC27:
 206 0390 426C696E 		.ascii	"Blinking the LEDs on the RasPI-PLUS-GVS-CFG card, p"
 206      6B696E67 
 206      20746865 
 206      204C4544 
 206      73206F6E 
 207 03c3 6C656173 		.ascii	"lease wait\012\015\000"
 207      65207761 
 207      69740A0D 
 207      00
 208              		.align	2
 209              	.LC28:
 210 03d0 436F6D70 		.ascii	"Completed blinking the LEDs on the RasPI-PLUS-GVS-C"
 210      6C657465 
 210      6420626C 
 210      696E6B69 
 210      6E672074 
 211 0403 46472063 		.ascii	"FG card\012\015\000"
 211      6172640A 
 211      0D00
 212 040d 000000   		.align	2
 213              	.LC29:
 214 0410 426C696E 		.ascii	"Blinking the LEDs on the RASPI-PLUS-GVS card, pleas"
 214      6B696E67 
 214      20746865 
 214      204C4544 
 214      73206F6E 
 215 0443 65207761 		.ascii	"e wait\012\015\000"
 215      69740A0D 
 215      00
 216              		.align	2
 217              	.LC30:
 218 044c 436F6D70 		.ascii	"Completed blinking the LEDs on the RASPI-PLUS-GVS c"
 218      6C657465 
 218      6420626C 
 218      696E6B69 
 218      6E672074 
 219 047f 6172640A 		.ascii	"ard\012\015\000"
 219      0D00
 220 0485 000000   		.align	2
 221              	.LC31:
 222 0488 426C696E 		.ascii	"Blinking the LEDs on the RASPI-GVS card, please wai"
 222      6B696E67 
 222      20746865 
 222      204C4544 
ARM GAS  C:\Users\HPz420\AppData\Local\Temp\ccYjbW4Q.s 			page 8


 222      73206F6E 
 223 04bb 740A0D00 		.ascii	"t\012\015\000"
 224 04bf 00       		.align	2
 225              	.LC32:
 226 04c0 436F6D70 		.ascii	"Completed blinking the LEDs on the RASPI-GVS card\012"
 226      6C657465 
 226      6420626C 
 226      696E6B69 
 226      6E672074 
 227 04f2 0D00     		.ascii	"\015\000"
 228              		.align	2
 229              	.LC33:
 230 04f4 426C696E 		.ascii	"Blinking the LEDs on the RPP-UIO-16 card, please wa"
 230      6B696E67 
 230      20746865 
 230      204C4544 
 230      73206F6E 
 231 0527 69740A0D 		.ascii	"it\012\015\000"
 231      00
 232              		.align	2
 233              	.LC34:
 234 052c 436F6D70 		.ascii	"Completed blinking the LEDs on the RPP-UIO-16 card\012"
 234      6C657465 
 234      6420626C 
 234      696E6B69 
 234      6E672074 
 235 055f 0D00     		.ascii	"\015\000"
 236 0561 000000   		.align	2
 237              	.LC35:
 238 0564 426C696E 		.ascii	"Blinking the DIGIO-8 Card LEDs, please wait\012\015"
 238      6B696E67 
 238      20746865 
 238      20444947 
 238      494F2D38 
 239 0591 00       		.ascii	"\000"
 240 0592 0000     		.align	2
 241              	.LC36:
 242 0594 436F6D70 		.ascii	"Completed blinking the LEDs\012\015\000"
 242      6C657465 
 242      6420626C 
 242      696E6B69 
 242      6E672074 
 243 05b2 0000     		.align	2
 244              	.LC37:
 245 05b4 426C696E 		.ascii	"Blinking the RPI-SPI8 Card LEDs, hit ENTER to exit\012"
 245      6B696E67 
 245      20746865 
 245      20525049 
 245      2D535049 
 246 05e7 0D00     		.ascii	"\015\000"
 247 05e9 000000   		.align	2
 248              	.LC38:
 249 05ec 4E6F7420 		.ascii	"Not supported\012\015\000"
 249      73757070 
 249      6F727465 
 249      640A0D00 
 250              		.align	2
ARM GAS  C:\Users\HPz420\AppData\Local\Temp\ccYjbW4Q.s 			page 9


 251              	.LC39:
 252 05fc 44656275 		.ascii	"Debugging the RasPI-PLUS-GVS-CFG card\012\015\000"
 252      6767696E 
 252      67207468 
 252      65205261 
 252      7350492D 
 253              		.align	2
 254              	.LC40:
 255 0624 436F6D70 		.ascii	"Completed debugging the RasPI-PLUS-GVS-CFG card\012"
 255      6C657465 
 255      64206465 
 255      62756767 
 255      696E6720 
 256 0654 0D00     		.ascii	"\015\000"
 257 0656 0000     		.align	2
 258              	.LC41:
 259 0658 44656275 		.ascii	"Debugging the RASPI-PLUS-GVS card\012\015\000"
 259      6767696E 
 259      67207468 
 259      65205241 
 259      5350492D 
 260              		.align	2
 261              	.LC42:
 262 067c 436F6D70 		.ascii	"Completed debugging the RASPI-PLUS-GVS card\012\015"
 262      6C657465 
 262      64206465 
 262      62756767 
 262      696E6720 
 263 06a9 00       		.ascii	"\000"
 264 06aa 0000     		.align	2
 265              	.LC43:
 266 06ac 44656275 		.ascii	"Debugging the RASPI-GVS card\012\015\000"
 266      6767696E 
 266      67207468 
 266      65205241 
 266      5350492D 
 267 06cb 00       		.align	2
 268              	.LC44:
 269 06cc 436F6D70 		.ascii	"Completed debugging the RASPI-GVS card\012\015\000"
 269      6C657465 
 269      64206465 
 269      62756767 
 269      696E6720 
 270 06f5 000000   		.align	2
 271              	.LC45:
 272 06f8 44656275 		.ascii	"Debugging the RPP-UIO-16 card\012\015\000"
 272      6767696E 
 272      67207468 
 272      65205250 
 272      502D5549 
 273              		.align	2
 274              	.LC46:
 275 0718 436F6D70 		.ascii	"Completed debugging the RPP-UIO-16 card\012\015\000"
 275      6C657465 
 275      64206465 
 275      62756767 
 275      696E6720 
ARM GAS  C:\Users\HPz420\AppData\Local\Temp\ccYjbW4Q.s 			page 10


 276 0742 0000     		.align	2
 277              	.LC47:
 278 0744 44656275 		.ascii	"Debugging the RPI-I2C-HUB card\012\015\000"
 278      6767696E 
 278      67207468 
 278      65205250 
 278      492D4932 
 279 0765 000000   		.align	2
 280              	.LC48:
 281 0768 436F6D70 		.ascii	"Completed debugging the RPI-I2C-HUB Card\012\015\000"
 281      6C657465 
 281      64206465 
 281      62756767 
 281      696E6720 
 282 0793 00       		.align	2
 283              	.LC49:
 284 0794 44656275 		.ascii	"Debugging the RPI-SPI8 card\012\015\000"
 284      6767696E 
 284      67207468 
 284      65205250 
 284      492D5350 
 285 07b2 0000     		.align	2
 286              	.LC50:
 287 07b4 436F6D70 		.ascii	"Completed debugging the RPI-SPI8 Card\012\015\000"
 287      6C657465 
 287      64206465 
 287      62756767 
 287      696E6720 
 288              		.align	2
 289              	.LC51:
 290 07dc 53656C65 		.ascii	"Selected RPP-UIO-16 card\012\015\000"
 290      63746564 
 290      20525050 
 290      2D55494F 
 290      2D313620 
 291 07f7 00       		.align	2
 292              	.LC52:
 293 07f8 53656C65 		.ascii	"Selected RPPSOC card\012\015\000"
 293      63746564 
 293      20525050 
 293      534F4320 
 293      63617264 
 294 080f 00       		.align	2
 295              	.LC53:
 296 0810 53656C65 		.ascii	"Selected RASPI-PLUS-GVS-CFG card\012\015\000"
 296      63746564 
 296      20524153 
 296      50492D50 
 296      4C55532D 
 297 0833 00       		.align	2
 298              	.LC54:
 299 0834 53656C65 		.ascii	"Selected RASPIGVS card\012\015\000"
 299      63746564 
 299      20524153 
 299      50494756 
 299      53206361 
 300 084d 000000   		.align	2
ARM GAS  C:\Users\HPz420\AppData\Local\Temp\ccYjbW4Q.s 			page 11


 301              	.LC55:
 302 0850 53656C65 		.ascii	"Selected RASPI-PLUS-GVS card\012\015\000"
 302      63746564 
 302      20524153 
 302      50492D50 
 302      4C55532D 
 303 086f 00       		.align	2
 304              	.LC56:
 305 0870 53656C65 		.ascii	"Selected RPI-I2C-HUB card\012\015\000"
 305      63746564 
 305      20525049 
 305      2D493243 
 305      2D485542 
 306              		.align	2
 307              	.LC57:
 308 088c 53656C65 		.ascii	"Selected RPI-SPI8 card\012\015\000"
 308      63746564 
 308      20525049 
 308      2D535049 
 308      38206361 
 309 08a5 000000   		.align	2
 310              	.LC58:
 311 08a8 53656C65 		.ascii	"Selected SPI-POTX2 card (vis RPI-SPI8)\012\015\000"
 311      63746564 
 311      20535049 
 311      2D504F54 
 311      58322063 
 312 08d1 000000   		.align	2
 313              	.LC59:
 314 08d4 4552524F 		.ascii	"ERROR - Unrecognized option\000"
 314      52202D20 
 314      556E7265 
 314      636F676E 
 314      697A6564 
 315              		.section	.text.psocMenu,"ax",%progbits
 316              		.align	2
 317              		.global	psocMenu
 318              		.thumb
 319              		.thumb_func
 320              		.type	psocMenu, %function
 321              	psocMenu:
 322              	.LFB64:
  44:PSoC_Menu.c   **** 
  45:PSoC_Menu.c   **** ////////////////////////////////////////////////////////////////////////////
  46:PSoC_Menu.c   **** // void psocMenu(void)
  47:PSoC_Menu.c   **** //	uint8 uartReadBuffer[USBUART_Buffer_SIZE];
  48:PSoC_Menu.c   **** //    uint16 uartReadBufferOff = 0;
  49:PSoC_Menu.c   **** 
  50:PSoC_Menu.c   **** void psocMenu(void)
  51:PSoC_Menu.c   **** {
 323              		.loc 1 51 0
 324              		.cfi_startproc
 325              		@ args = 0, pretend = 0, frame = 256
 326              		@ frame_needed = 1, uses_anonymous_args = 0
 327 0000 80B5     		push	{r7, lr}
 328              		.cfi_def_cfa_offset 8
 329              		.cfi_offset 7, -8
ARM GAS  C:\Users\HPz420\AppData\Local\Temp\ccYjbW4Q.s 			page 12


 330              		.cfi_offset 14, -4
 331 0002 C0B0     		sub	sp, sp, #256
 332              		.cfi_def_cfa_offset 264
 333 0004 00AF     		add	r7, sp, #0
 334              		.cfi_def_cfa_register 7
  52:PSoC_Menu.c   ****     uint8 eepromBuffer[256];
  53:PSoC_Menu.c   **** 
  54:PSoC_Menu.c   ****     while (0u == USBUART_CDCIsReady());
 335              		.loc 1 54 0
 336 0006 00BF     		nop
 337              	.L5:
 338              		.loc 1 54 0 is_stmt 0 discriminator 1
 339 0008 FFF7FEFF 		bl	USBUART_CDCIsReady
 340 000c 0346     		mov	r3, r0
 341 000e 002B     		cmp	r3, #0
 342 0010 FAD0     		beq	.L5
  55:PSoC_Menu.c   ****     if ((receiveBuffer[0] == 'r') || (receiveBuffer[0] == 'R'))
 343              		.loc 1 55 0 is_stmt 1
 344 0012 A64B     		ldr	r3, .L51
 345 0014 1B78     		ldrb	r3, [r3]	@ zero_extendqisi2
 346 0016 722B     		cmp	r3, #114
 347 0018 03D0     		beq	.L6
 348              		.loc 1 55 0 is_stmt 0 discriminator 1
 349 001a A44B     		ldr	r3, .L51
 350 001c 1B78     		ldrb	r3, [r3]	@ zero_extendqisi2
 351 001e 522B     		cmp	r3, #82
 352 0020 11D1     		bne	.L7
 353              	.L6:
  56:PSoC_Menu.c   ****     {
  57:PSoC_Menu.c   ****         putStringToUSB("Read from the EEPROM\n\r");
 354              		.loc 1 57 0 is_stmt 1
 355 0022 A348     		ldr	r0, .L51+4
 356 0024 FFF7FEFF 		bl	putStringToUSB
  58:PSoC_Menu.c   ****         readEEPROM(eepromBuffer);
 357              		.loc 1 58 0
 358 0028 3B46     		mov	r3, r7
 359 002a 1846     		mov	r0, r3
 360 002c FFF7FEFF 		bl	readEEPROM
  59:PSoC_Menu.c   ****         dumpEEPROM(eepromBuffer);
 361              		.loc 1 59 0
 362 0030 3B46     		mov	r3, r7
 363 0032 1846     		mov	r0, r3
 364 0034 FFF7FEFF 		bl	dumpEEPROM
  60:PSoC_Menu.c   ****         while (0u == USBUART_CDCIsReady());
 365              		.loc 1 60 0
 366 0038 00BF     		nop
 367              	.L8:
 368              		.loc 1 60 0 is_stmt 0 discriminator 1
 369 003a FFF7FEFF 		bl	USBUART_CDCIsReady
 370 003e 0346     		mov	r3, r0
 371 0040 002B     		cmp	r3, #0
 372 0042 FAD0     		beq	.L8
  55:PSoC_Menu.c   ****     {
 373              		.loc 1 55 0 is_stmt 1
 374 0044 D2E1     		b	.L9
 375              	.L7:
  61:PSoC_Menu.c   ****     }
ARM GAS  C:\Users\HPz420\AppData\Local\Temp\ccYjbW4Q.s 			page 13


  62:PSoC_Menu.c   ****     else if ((receiveBuffer[0] == 'w') || (receiveBuffer[0] == 'W'))
 376              		.loc 1 62 0
 377 0046 994B     		ldr	r3, .L51
 378 0048 1B78     		ldrb	r3, [r3]	@ zero_extendqisi2
 379 004a 772B     		cmp	r3, #119
 380 004c 03D0     		beq	.L10
 381              		.loc 1 62 0 is_stmt 0 discriminator 1
 382 004e 974B     		ldr	r3, .L51
 383 0050 1B78     		ldrb	r3, [r3]	@ zero_extendqisi2
 384 0052 572B     		cmp	r3, #87
 385 0054 1AD1     		bne	.L11
 386              	.L10:
  63:PSoC_Menu.c   ****     {
  64:PSoC_Menu.c   ****         if (cardType == UNSELECTED_CARD)
 387              		.loc 1 64 0 is_stmt 1
 388 0056 974B     		ldr	r3, .L51+8
 389 0058 1B88     		ldrh	r3, [r3]
 390 005a 002B     		cmp	r3, #0
 391 005c 03D1     		bne	.L12
  65:PSoC_Menu.c   ****         {
  66:PSoC_Menu.c   ****             putStringToUSB("Must first select card type\n\r");
 392              		.loc 1 66 0
 393 005e 9648     		ldr	r0, .L51+12
 394 0060 FFF7FEFF 		bl	putStringToUSB
  64:PSoC_Menu.c   ****         {
 395              		.loc 1 64 0
 396 0064 C2E1     		b	.L9
 397              	.L12:
  67:PSoC_Menu.c   ****         }
  68:PSoC_Menu.c   ****         else
  69:PSoC_Menu.c   ****         {
  70:PSoC_Menu.c   ****             putStringToUSB("Write to the EEPROM...");
 398              		.loc 1 70 0
 399 0066 9548     		ldr	r0, .L51+16
 400 0068 FFF7FEFF 		bl	putStringToUSB
  71:PSoC_Menu.c   ****             if (writeEEPROM(cardType) == 1)
 401              		.loc 1 71 0
 402 006c 914B     		ldr	r3, .L51+8
 403 006e 1B88     		ldrh	r3, [r3]
 404 0070 1846     		mov	r0, r3
 405 0072 FFF7FEFF 		bl	writeEEPROM
 406 0076 0346     		mov	r3, r0
 407 0078 012B     		cmp	r3, #1
 408 007a 03D1     		bne	.L14
  72:PSoC_Menu.c   ****                 putStringToUSB("Completed EEPROM write\n\r");
 409              		.loc 1 72 0
 410 007c 9048     		ldr	r0, .L51+20
 411 007e FFF7FEFF 		bl	putStringToUSB
  64:PSoC_Menu.c   ****         {
 412              		.loc 1 64 0
 413 0082 B3E1     		b	.L9
 414              	.L14:
  73:PSoC_Menu.c   ****             else
  74:PSoC_Menu.c   ****                 putStringToUSB("EEPROM write failed (does this card have an EEPROM?\n\r");
 415              		.loc 1 74 0
 416 0084 8F48     		ldr	r0, .L51+24
 417 0086 FFF7FEFF 		bl	putStringToUSB
ARM GAS  C:\Users\HPz420\AppData\Local\Temp\ccYjbW4Q.s 			page 14


  64:PSoC_Menu.c   ****         {
 418              		.loc 1 64 0
 419 008a AFE1     		b	.L9
 420              	.L11:
  75:PSoC_Menu.c   ****         }
  76:PSoC_Menu.c   ****     }
  77:PSoC_Menu.c   ****     else if ((receiveBuffer[0] == 't') || (receiveBuffer[0] == 'T'))
 421              		.loc 1 77 0
 422 008c 874B     		ldr	r3, .L51
 423 008e 1B78     		ldrb	r3, [r3]	@ zero_extendqisi2
 424 0090 742B     		cmp	r3, #116
 425 0092 03D0     		beq	.L15
 426              		.loc 1 77 0 is_stmt 0 discriminator 1
 427 0094 854B     		ldr	r3, .L51
 428 0096 1B78     		ldrb	r3, [r3]	@ zero_extendqisi2
 429 0098 542B     		cmp	r3, #84
 430 009a 30D1     		bne	.L16
 431              	.L15:
  78:PSoC_Menu.c   ****     {
  79:PSoC_Menu.c   ****         if (cardType == UNSELECTED_CARD)
 432              		.loc 1 79 0 is_stmt 1
 433 009c 854B     		ldr	r3, .L51+8
 434 009e 1B88     		ldrh	r3, [r3]
 435 00a0 002B     		cmp	r3, #0
 436 00a2 03D1     		bne	.L17
  80:PSoC_Menu.c   ****         {
  81:PSoC_Menu.c   ****             putStringToUSB("Must first select card type\n\r");
 437              		.loc 1 81 0
 438 00a4 8448     		ldr	r0, .L51+12
 439 00a6 FFF7FEFF 		bl	putStringToUSB
  79:PSoC_Menu.c   ****         {
 440              		.loc 1 79 0
 441 00aa 9FE1     		b	.L9
 442              	.L17:
  82:PSoC_Menu.c   ****         }
  83:PSoC_Menu.c   ****         else if (cardType == RPII2CHUB)
 443              		.loc 1 83 0
 444 00ac 814B     		ldr	r3, .L51+8
 445 00ae 1B88     		ldrh	r3, [r3]
 446 00b0 062B     		cmp	r3, #6
 447 00b2 08D1     		bne	.L19
  84:PSoC_Menu.c   ****         {
  85:PSoC_Menu.c   ****             putStringToUSB("Testing RPI-I2C-HUB input, please wait\n\r");
 448              		.loc 1 85 0
 449 00b4 8448     		ldr	r0, .L51+28
 450 00b6 FFF7FEFF 		bl	putStringToUSB
  86:PSoC_Menu.c   ****             test_RPII2CHUB();
 451              		.loc 1 86 0
 452 00ba FFF7FEFF 		bl	test_RPII2CHUB
  87:PSoC_Menu.c   ****             putStringToUSB("Completed Testing RPI-I2C-HUB input\n\r");
 453              		.loc 1 87 0
 454 00be 8348     		ldr	r0, .L51+32
 455 00c0 FFF7FEFF 		bl	putStringToUSB
  79:PSoC_Menu.c   ****         {
 456              		.loc 1 79 0
 457 00c4 92E1     		b	.L9
 458              	.L19:
ARM GAS  C:\Users\HPz420\AppData\Local\Temp\ccYjbW4Q.s 			page 15


  88:PSoC_Menu.c   ****         }
  89:PSoC_Menu.c   ****         else if (cardType == RPISPI8)
 459              		.loc 1 89 0
 460 00c6 7B4B     		ldr	r3, .L51+8
 461 00c8 1B88     		ldrh	r3, [r3]
 462 00ca 072B     		cmp	r3, #7
 463 00cc 08D1     		bne	.L20
  90:PSoC_Menu.c   ****         {
  91:PSoC_Menu.c   ****             putStringToUSB("Testing RPI-SPI8 input, please wait\n\r");
 464              		.loc 1 91 0
 465 00ce 8048     		ldr	r0, .L51+36
 466 00d0 FFF7FEFF 		bl	putStringToUSB
  92:PSoC_Menu.c   ****             testRPISPI8();
 467              		.loc 1 92 0
 468 00d4 FFF7FEFF 		bl	testRPISPI8
  93:PSoC_Menu.c   ****             putStringToUSB("Completed Testing RPI-SPI8 input\n\r");
 469              		.loc 1 93 0
 470 00d8 7E48     		ldr	r0, .L51+40
 471 00da FFF7FEFF 		bl	putStringToUSB
  79:PSoC_Menu.c   ****         {
 472              		.loc 1 79 0
 473 00de 85E1     		b	.L9
 474              	.L20:
  94:PSoC_Menu.c   ****         }
  95:PSoC_Menu.c   ****         else if (cardType == SPIPOTX2)
 475              		.loc 1 95 0
 476 00e0 744B     		ldr	r3, .L51+8
 477 00e2 1B88     		ldrh	r3, [r3]
 478 00e4 082B     		cmp	r3, #8
 479 00e6 06D1     		bne	.L21
  96:PSoC_Menu.c   ****         {
  97:PSoC_Menu.c   ****             putStringToUSB("Testing SPI-POTX2 card (via RPI-SPI8), please wait\n\r");
 480              		.loc 1 97 0
 481 00e8 7B48     		ldr	r0, .L51+44
 482 00ea FFF7FEFF 		bl	putStringToUSB
  98:PSoC_Menu.c   ****             // test_SPI_POTX2();
  99:PSoC_Menu.c   ****             putStringToUSB("Completed Testing SPI-POTX2 card (via RPI-SPI8)\n\r");
 483              		.loc 1 99 0
 484 00ee 7B48     		ldr	r0, .L51+48
 485 00f0 FFF7FEFF 		bl	putStringToUSB
  79:PSoC_Menu.c   ****         {
 486              		.loc 1 79 0
 487 00f4 7AE1     		b	.L9
 488              	.L21:
 100:PSoC_Menu.c   ****         }
 101:PSoC_Menu.c   ****         else
 102:PSoC_Menu.c   ****         {
 103:PSoC_Menu.c   ****             putStringToUSB("Card not yet implemented\n\r");
 489              		.loc 1 103 0
 490 00f6 7A48     		ldr	r0, .L51+52
 491 00f8 FFF7FEFF 		bl	putStringToUSB
  79:PSoC_Menu.c   ****         {
 492              		.loc 1 79 0
 493 00fc 76E1     		b	.L9
 494              	.L16:
 104:PSoC_Menu.c   ****         }
 105:PSoC_Menu.c   ****     }
ARM GAS  C:\Users\HPz420\AppData\Local\Temp\ccYjbW4Q.s 			page 16


 106:PSoC_Menu.c   ****     else if ((receiveBuffer[0] == 'b') || (receiveBuffer[0] == 'B'))
 495              		.loc 1 106 0
 496 00fe 6B4B     		ldr	r3, .L51
 497 0100 1B78     		ldrb	r3, [r3]	@ zero_extendqisi2
 498 0102 622B     		cmp	r3, #98
 499 0104 03D0     		beq	.L22
 500              		.loc 1 106 0 is_stmt 0 discriminator 1
 501 0106 694B     		ldr	r3, .L51
 502 0108 1B78     		ldrb	r3, [r3]	@ zero_extendqisi2
 503 010a 422B     		cmp	r3, #66
 504 010c 61D1     		bne	.L23
 505              	.L22:
 107:PSoC_Menu.c   ****     {
 108:PSoC_Menu.c   ****         if (cardType == UNSELECTED_CARD)
 506              		.loc 1 108 0 is_stmt 1
 507 010e 694B     		ldr	r3, .L51+8
 508 0110 1B88     		ldrh	r3, [r3]
 509 0112 002B     		cmp	r3, #0
 510 0114 03D1     		bne	.L24
 109:PSoC_Menu.c   ****         {
 110:PSoC_Menu.c   ****             putStringToUSB("Must first select card type\n\r");
 511              		.loc 1 110 0
 512 0116 6848     		ldr	r0, .L51+12
 513 0118 FFF7FEFF 		bl	putStringToUSB
 108:PSoC_Menu.c   ****         {
 514              		.loc 1 108 0
 515 011c 66E1     		b	.L9
 516              	.L24:
 111:PSoC_Menu.c   ****         }
 112:PSoC_Menu.c   ****         else if (cardType == RPPGVSCFG)
 517              		.loc 1 112 0
 518 011e 654B     		ldr	r3, .L51+8
 519 0120 1B88     		ldrh	r3, [r3]
 520 0122 022B     		cmp	r3, #2
 521 0124 08D1     		bne	.L26
 113:PSoC_Menu.c   ****         {
 114:PSoC_Menu.c   ****             putStringToUSB("Blinking the LEDs on the RasPI-PLUS-GVS-CFG card, please wait\n\r");
 522              		.loc 1 114 0
 523 0126 6F48     		ldr	r0, .L51+56
 524 0128 FFF7FEFF 		bl	putStringToUSB
 115:PSoC_Menu.c   ****             testRPPUIO16();
 525              		.loc 1 115 0
 526 012c FFF7FEFF 		bl	testRPPUIO16
 116:PSoC_Menu.c   ****             putStringToUSB("Completed blinking the LEDs on the RasPI-PLUS-GVS-CFG card\n\r");
 527              		.loc 1 116 0
 528 0130 6D48     		ldr	r0, .L51+60
 529 0132 FFF7FEFF 		bl	putStringToUSB
 108:PSoC_Menu.c   ****         {
 530              		.loc 1 108 0
 531 0136 59E1     		b	.L9
 532              	.L26:
 117:PSoC_Menu.c   ****         }
 118:PSoC_Menu.c   ****         else if (cardType == RASPIPLUSGVS)
 533              		.loc 1 118 0
 534 0138 5E4B     		ldr	r3, .L51+8
 535 013a 1B88     		ldrh	r3, [r3]
 536 013c 052B     		cmp	r3, #5
ARM GAS  C:\Users\HPz420\AppData\Local\Temp\ccYjbW4Q.s 			page 17


 537 013e 08D1     		bne	.L27
 119:PSoC_Menu.c   ****         {
 120:PSoC_Menu.c   ****             putStringToUSB("Blinking the LEDs on the RASPI-PLUS-GVS card, please wait\n\r");
 538              		.loc 1 120 0
 539 0140 6A48     		ldr	r0, .L51+64
 540 0142 FFF7FEFF 		bl	putStringToUSB
 121:PSoC_Menu.c   ****             testRPPGVS();
 541              		.loc 1 121 0
 542 0146 FFF7FEFF 		bl	testRPPGVS
 122:PSoC_Menu.c   ****             putStringToUSB("Completed blinking the LEDs on the RASPI-PLUS-GVS card\n\r");
 543              		.loc 1 122 0
 544 014a 6948     		ldr	r0, .L51+68
 545 014c FFF7FEFF 		bl	putStringToUSB
 108:PSoC_Menu.c   ****         {
 546              		.loc 1 108 0
 547 0150 4CE1     		b	.L9
 548              	.L27:
 123:PSoC_Menu.c   ****         }
 124:PSoC_Menu.c   ****         else if (cardType == RASPIGVS)
 549              		.loc 1 124 0
 550 0152 584B     		ldr	r3, .L51+8
 551 0154 1B88     		ldrh	r3, [r3]
 552 0156 042B     		cmp	r3, #4
 553 0158 08D1     		bne	.L28
 125:PSoC_Menu.c   ****         {
 126:PSoC_Menu.c   ****             putStringToUSB("Blinking the LEDs on the RASPI-GVS card, please wait\n\r");
 554              		.loc 1 126 0
 555 015a 6648     		ldr	r0, .L51+72
 556 015c FFF7FEFF 		bl	putStringToUSB
 127:PSoC_Menu.c   ****             testRASPIGVS();
 557              		.loc 1 127 0
 558 0160 FFF7FEFF 		bl	testRASPIGVS
 128:PSoC_Menu.c   ****             putStringToUSB("Completed blinking the LEDs on the RASPI-GVS card\n\r");
 559              		.loc 1 128 0
 560 0164 6448     		ldr	r0, .L51+76
 561 0166 FFF7FEFF 		bl	putStringToUSB
 108:PSoC_Menu.c   ****         {
 562              		.loc 1 108 0
 563 016a 3FE1     		b	.L9
 564              	.L28:
 129:PSoC_Menu.c   ****         }
 130:PSoC_Menu.c   ****         else if (cardType == RPPUIO16)
 565              		.loc 1 130 0
 566 016c 514B     		ldr	r3, .L51+8
 567 016e 1B88     		ldrh	r3, [r3]
 568 0170 012B     		cmp	r3, #1
 569 0172 08D1     		bne	.L29
 131:PSoC_Menu.c   ****         {
 132:PSoC_Menu.c   ****             putStringToUSB("Blinking the LEDs on the RPP-UIO-16 card, please wait\n\r");
 570              		.loc 1 132 0
 571 0174 6148     		ldr	r0, .L51+80
 572 0176 FFF7FEFF 		bl	putStringToUSB
 133:PSoC_Menu.c   ****             testRPPUIO16();
 573              		.loc 1 133 0
 574 017a FFF7FEFF 		bl	testRPPUIO16
 134:PSoC_Menu.c   ****             putStringToUSB("Completed blinking the LEDs on the RPP-UIO-16 card\n\r");
 575              		.loc 1 134 0
ARM GAS  C:\Users\HPz420\AppData\Local\Temp\ccYjbW4Q.s 			page 18


 576 017e 6048     		ldr	r0, .L51+84
 577 0180 FFF7FEFF 		bl	putStringToUSB
 108:PSoC_Menu.c   ****         {
 578              		.loc 1 108 0
 579 0184 32E1     		b	.L9
 580              	.L29:
 135:PSoC_Menu.c   ****         }
 136:PSoC_Menu.c   ****         else if (cardType == RPII2CHUB)
 581              		.loc 1 136 0
 582 0186 4B4B     		ldr	r3, .L51+8
 583 0188 1B88     		ldrh	r3, [r3]
 584 018a 062B     		cmp	r3, #6
 585 018c 08D1     		bne	.L30
 137:PSoC_Menu.c   ****         {
 138:PSoC_Menu.c   ****             putStringToUSB("Blinking the DIGIO-8 Card LEDs, please wait\n\r");
 586              		.loc 1 138 0
 587 018e 5D48     		ldr	r0, .L51+88
 588 0190 FFF7FEFF 		bl	putStringToUSB
 139:PSoC_Menu.c   ****             bounceRPIHubLEDs();
 589              		.loc 1 139 0
 590 0194 FFF7FEFF 		bl	bounceRPIHubLEDs
 140:PSoC_Menu.c   ****             putStringToUSB("Completed blinking the LEDs\n\r");
 591              		.loc 1 140 0
 592 0198 5B48     		ldr	r0, .L51+92
 593 019a FFF7FEFF 		bl	putStringToUSB
 108:PSoC_Menu.c   ****         {
 594              		.loc 1 108 0
 595 019e 25E1     		b	.L9
 596              	.L30:
 141:PSoC_Menu.c   ****         }
 142:PSoC_Menu.c   ****         else if (cardType == RPISPI8)
 597              		.loc 1 142 0
 598 01a0 444B     		ldr	r3, .L51+8
 599 01a2 1B88     		ldrh	r3, [r3]
 600 01a4 072B     		cmp	r3, #7
 601 01a6 08D1     		bne	.L31
 143:PSoC_Menu.c   ****         {
 144:PSoC_Menu.c   ****             putStringToUSB("Blinking the RPI-SPI8 Card LEDs, hit ENTER to exit\n\r");
 602              		.loc 1 144 0
 603 01a8 5848     		ldr	r0, .L51+96
 604 01aa FFF7FEFF 		bl	putStringToUSB
 145:PSoC_Menu.c   ****             testRPISPI8();
 605              		.loc 1 145 0
 606 01ae FFF7FEFF 		bl	testRPISPI8
 146:PSoC_Menu.c   ****             putStringToUSB("Completed blinking the LEDs\n\r");
 607              		.loc 1 146 0
 608 01b2 5548     		ldr	r0, .L51+92
 609 01b4 FFF7FEFF 		bl	putStringToUSB
 108:PSoC_Menu.c   ****         {
 610              		.loc 1 108 0
 611 01b8 18E1     		b	.L9
 612              	.L31:
 147:PSoC_Menu.c   ****         }
 148:PSoC_Menu.c   ****         else if (cardType == SPIPOTX2)
 613              		.loc 1 148 0
 614 01ba 3E4B     		ldr	r3, .L51+8
 615 01bc 1B88     		ldrh	r3, [r3]
ARM GAS  C:\Users\HPz420\AppData\Local\Temp\ccYjbW4Q.s 			page 19


 616 01be 082B     		cmp	r3, #8
 617 01c0 03D1     		bne	.L32
 149:PSoC_Menu.c   ****         {
 150:PSoC_Menu.c   ****             putStringToUSB("Not supported\n\r");
 618              		.loc 1 150 0
 619 01c2 5348     		ldr	r0, .L51+100
 620 01c4 FFF7FEFF 		bl	putStringToUSB
 108:PSoC_Menu.c   ****         {
 621              		.loc 1 108 0
 622 01c8 10E1     		b	.L9
 623              	.L32:
 151:PSoC_Menu.c   ****         }
 152:PSoC_Menu.c   ****         
 153:PSoC_Menu.c   ****         else
 154:PSoC_Menu.c   ****         {
 155:PSoC_Menu.c   ****             putStringToUSB("Card not yet implemented\n\r");
 624              		.loc 1 155 0
 625 01ca 4548     		ldr	r0, .L51+52
 626 01cc FFF7FEFF 		bl	putStringToUSB
 108:PSoC_Menu.c   ****         {
 627              		.loc 1 108 0
 628 01d0 0CE1     		b	.L9
 629              	.L23:
 156:PSoC_Menu.c   ****         }
 157:PSoC_Menu.c   ****     }
 158:PSoC_Menu.c   ****     else if ((receiveBuffer[0] == 'd') || (receiveBuffer[0] == 'D'))
 630              		.loc 1 158 0
 631 01d2 364B     		ldr	r3, .L51
 632 01d4 1B78     		ldrb	r3, [r3]	@ zero_extendqisi2
 633 01d6 642B     		cmp	r3, #100
 634 01d8 03D0     		beq	.L33
 635              		.loc 1 158 0 is_stmt 0 discriminator 1
 636 01da 344B     		ldr	r3, .L51
 637 01dc 1B78     		ldrb	r3, [r3]	@ zero_extendqisi2
 638 01de 442B     		cmp	r3, #68
 639 01e0 59D1     		bne	.L34
 640              	.L33:
 159:PSoC_Menu.c   ****     {
 160:PSoC_Menu.c   ****         if (cardType == UNSELECTED_CARD)
 641              		.loc 1 160 0 is_stmt 1
 642 01e2 344B     		ldr	r3, .L51+8
 643 01e4 1B88     		ldrh	r3, [r3]
 644 01e6 002B     		cmp	r3, #0
 645 01e8 03D1     		bne	.L35
 161:PSoC_Menu.c   ****         {
 162:PSoC_Menu.c   ****             putStringToUSB("Must first select card type\n\r");
 646              		.loc 1 162 0
 647 01ea 3348     		ldr	r0, .L51+12
 648 01ec FFF7FEFF 		bl	putStringToUSB
 160:PSoC_Menu.c   ****         {
 649              		.loc 1 160 0
 650 01f0 FCE0     		b	.L9
 651              	.L35:
 163:PSoC_Menu.c   ****         }
 164:PSoC_Menu.c   ****         else if (cardType == RPPGVSCFG)
 652              		.loc 1 164 0
 653 01f2 304B     		ldr	r3, .L51+8
ARM GAS  C:\Users\HPz420\AppData\Local\Temp\ccYjbW4Q.s 			page 20


 654 01f4 1B88     		ldrh	r3, [r3]
 655 01f6 022B     		cmp	r3, #2
 656 01f8 08D1     		bne	.L37
 165:PSoC_Menu.c   ****         {
 166:PSoC_Menu.c   ****             putStringToUSB("Debugging the RasPI-PLUS-GVS-CFG card\n\r");
 657              		.loc 1 166 0
 658 01fa 4648     		ldr	r0, .L51+104
 659 01fc FFF7FEFF 		bl	putStringToUSB
 167:PSoC_Menu.c   ****             debugRPPGVSCFG();
 660              		.loc 1 167 0
 661 0200 FFF7FEFF 		bl	debugRPPGVSCFG
 168:PSoC_Menu.c   ****             putStringToUSB("Completed debugging the RasPI-PLUS-GVS-CFG card\n\r");
 662              		.loc 1 168 0
 663 0204 4448     		ldr	r0, .L51+108
 664 0206 FFF7FEFF 		bl	putStringToUSB
 160:PSoC_Menu.c   ****         {
 665              		.loc 1 160 0
 666 020a EFE0     		b	.L9
 667              	.L37:
 169:PSoC_Menu.c   ****         }
 170:PSoC_Menu.c   ****         else if (cardType == RASPIPLUSGVS)
 668              		.loc 1 170 0
 669 020c 294B     		ldr	r3, .L51+8
 670 020e 1B88     		ldrh	r3, [r3]
 671 0210 052B     		cmp	r3, #5
 672 0212 08D1     		bne	.L38
 171:PSoC_Menu.c   ****         {
 172:PSoC_Menu.c   ****             putStringToUSB("Debugging the RASPI-PLUS-GVS card\n\r");
 673              		.loc 1 172 0
 674 0214 4148     		ldr	r0, .L51+112
 675 0216 FFF7FEFF 		bl	putStringToUSB
 173:PSoC_Menu.c   ****             debugRPPGVS();
 676              		.loc 1 173 0
 677 021a FFF7FEFF 		bl	debugRPPGVS
 174:PSoC_Menu.c   ****             putStringToUSB("Completed debugging the RASPI-PLUS-GVS card\n\r");
 678              		.loc 1 174 0
 679 021e 4048     		ldr	r0, .L51+116
 680 0220 FFF7FEFF 		bl	putStringToUSB
 160:PSoC_Menu.c   ****         {
 681              		.loc 1 160 0
 682 0224 E2E0     		b	.L9
 683              	.L38:
 175:PSoC_Menu.c   ****         }
 176:PSoC_Menu.c   ****         else if (cardType == RASPIGVS)
 684              		.loc 1 176 0
 685 0226 234B     		ldr	r3, .L51+8
 686 0228 1B88     		ldrh	r3, [r3]
 687 022a 042B     		cmp	r3, #4
 688 022c 08D1     		bne	.L39
 177:PSoC_Menu.c   ****         {
 178:PSoC_Menu.c   ****             putStringToUSB("Debugging the RASPI-GVS card\n\r");
 689              		.loc 1 178 0
 690 022e 3D48     		ldr	r0, .L51+120
 691 0230 FFF7FEFF 		bl	putStringToUSB
 179:PSoC_Menu.c   ****             debugRASPIGVS();
 692              		.loc 1 179 0
 693 0234 FFF7FEFF 		bl	debugRASPIGVS
ARM GAS  C:\Users\HPz420\AppData\Local\Temp\ccYjbW4Q.s 			page 21


 180:PSoC_Menu.c   ****             putStringToUSB("Completed debugging the RASPI-GVS card\n\r");
 694              		.loc 1 180 0
 695 0238 3B48     		ldr	r0, .L51+124
 696 023a FFF7FEFF 		bl	putStringToUSB
 160:PSoC_Menu.c   ****         {
 697              		.loc 1 160 0
 698 023e D5E0     		b	.L9
 699              	.L39:
 181:PSoC_Menu.c   ****         }
 182:PSoC_Menu.c   ****         else if (cardType == RPPUIO16)
 700              		.loc 1 182 0
 701 0240 1C4B     		ldr	r3, .L51+8
 702 0242 1B88     		ldrh	r3, [r3]
 703 0244 012B     		cmp	r3, #1
 704 0246 08D1     		bne	.L40
 183:PSoC_Menu.c   ****         {
 184:PSoC_Menu.c   ****             putStringToUSB("Debugging the RPP-UIO-16 card\n\r");
 705              		.loc 1 184 0
 706 0248 3848     		ldr	r0, .L51+128
 707 024a FFF7FEFF 		bl	putStringToUSB
 185:PSoC_Menu.c   ****             debugRPPUIO16();
 708              		.loc 1 185 0
 709 024e FFF7FEFF 		bl	debugRPPUIO16
 186:PSoC_Menu.c   ****             putStringToUSB("Completed debugging the RPP-UIO-16 card\n\r");
 710              		.loc 1 186 0
 711 0252 3748     		ldr	r0, .L51+132
 712 0254 FFF7FEFF 		bl	putStringToUSB
 160:PSoC_Menu.c   ****         {
 713              		.loc 1 160 0
 714 0258 C8E0     		b	.L9
 715              	.L40:
 187:PSoC_Menu.c   ****         }
 188:PSoC_Menu.c   ****         else if (cardType == RPII2CHUB)
 716              		.loc 1 188 0
 717 025a 164B     		ldr	r3, .L51+8
 718 025c 1B88     		ldrh	r3, [r3]
 719 025e 062B     		cmp	r3, #6
 720 0260 08D1     		bne	.L41
 189:PSoC_Menu.c   ****         {
 190:PSoC_Menu.c   ****             putStringToUSB("Debugging the RPI-I2C-HUB card\n\r");
 721              		.loc 1 190 0
 722 0262 3448     		ldr	r0, .L51+136
 723 0264 FFF7FEFF 		bl	putStringToUSB
 191:PSoC_Menu.c   ****             debugRPIHub();
 724              		.loc 1 191 0
 725 0268 FFF7FEFF 		bl	debugRPIHub
 192:PSoC_Menu.c   ****             putStringToUSB("Completed debugging the RPI-I2C-HUB Card\n\r");
 726              		.loc 1 192 0
 727 026c 3248     		ldr	r0, .L51+140
 728 026e FFF7FEFF 		bl	putStringToUSB
 160:PSoC_Menu.c   ****         {
 729              		.loc 1 160 0
 730 0272 BBE0     		b	.L9
 731              	.L41:
 193:PSoC_Menu.c   ****         }
 194:PSoC_Menu.c   ****         else if (cardType == RPISPI8)
 732              		.loc 1 194 0
ARM GAS  C:\Users\HPz420\AppData\Local\Temp\ccYjbW4Q.s 			page 22


 733 0274 0F4B     		ldr	r3, .L51+8
 734 0276 1B88     		ldrh	r3, [r3]
 735 0278 072B     		cmp	r3, #7
 736 027a 08D1     		bne	.L42
 195:PSoC_Menu.c   ****         {
 196:PSoC_Menu.c   ****             putStringToUSB("Debugging the RPI-SPI8 card\n\r");
 737              		.loc 1 196 0
 738 027c 2F48     		ldr	r0, .L51+144
 739 027e FFF7FEFF 		bl	putStringToUSB
 197:PSoC_Menu.c   ****             debugRPISPI8();
 740              		.loc 1 197 0
 741 0282 FFF7FEFF 		bl	debugRPISPI8
 198:PSoC_Menu.c   ****             putStringToUSB("Completed debugging the RPI-SPI8 Card\n\r");
 742              		.loc 1 198 0
 743 0286 2E48     		ldr	r0, .L51+148
 744 0288 FFF7FEFF 		bl	putStringToUSB
 160:PSoC_Menu.c   ****         {
 745              		.loc 1 160 0
 746 028c AEE0     		b	.L9
 747              	.L42:
 199:PSoC_Menu.c   ****         }
 200:PSoC_Menu.c   ****         else
 201:PSoC_Menu.c   ****         {
 202:PSoC_Menu.c   ****             putStringToUSB("Card not yet implemented\n\r");
 748              		.loc 1 202 0
 749 028e 1448     		ldr	r0, .L51+52
 750 0290 FFF7FEFF 		bl	putStringToUSB
 160:PSoC_Menu.c   ****         {
 751              		.loc 1 160 0
 752 0294 AAE0     		b	.L9
 753              	.L34:
 203:PSoC_Menu.c   ****         }
 204:PSoC_Menu.c   ****     }
 205:PSoC_Menu.c   ****     else if (receiveBuffer[0] == '1')
 754              		.loc 1 205 0
 755 0296 054B     		ldr	r3, .L51
 756 0298 1B78     		ldrb	r3, [r3]	@ zero_extendqisi2
 757 029a 312B     		cmp	r3, #49
 758 029c 54D1     		bne	.L43
 206:PSoC_Menu.c   ****     {
 207:PSoC_Menu.c   ****         cardType = RPPUIO16;
 759              		.loc 1 207 0
 760 029e 054B     		ldr	r3, .L51+8
 761 02a0 0122     		movs	r2, #1
 762 02a2 1A80     		strh	r2, [r3]	@ movhi
 208:PSoC_Menu.c   ****         putStringToUSB("Selected RPP-UIO-16 card\n\r");
 763              		.loc 1 208 0
 764 02a4 2748     		ldr	r0, .L51+152
 765 02a6 FFF7FEFF 		bl	putStringToUSB
 766 02aa 9FE0     		b	.L9
 767              	.L52:
 768              		.align	2
 769              	.L51:
 770 02ac 00000000 		.word	receiveBuffer
 771 02b0 C4010000 		.word	.LC15
 772 02b4 00000000 		.word	cardType
 773 02b8 DC010000 		.word	.LC16
ARM GAS  C:\Users\HPz420\AppData\Local\Temp\ccYjbW4Q.s 			page 23


 774 02bc FC010000 		.word	.LC17
 775 02c0 14020000 		.word	.LC18
 776 02c4 30020000 		.word	.LC19
 777 02c8 68020000 		.word	.LC20
 778 02cc 94020000 		.word	.LC21
 779 02d0 BC020000 		.word	.LC22
 780 02d4 E4020000 		.word	.LC23
 781 02d8 08030000 		.word	.LC24
 782 02dc 40030000 		.word	.LC25
 783 02e0 74030000 		.word	.LC26
 784 02e4 90030000 		.word	.LC27
 785 02e8 D0030000 		.word	.LC28
 786 02ec 10040000 		.word	.LC29
 787 02f0 4C040000 		.word	.LC30
 788 02f4 88040000 		.word	.LC31
 789 02f8 C0040000 		.word	.LC32
 790 02fc F4040000 		.word	.LC33
 791 0300 2C050000 		.word	.LC34
 792 0304 64050000 		.word	.LC35
 793 0308 94050000 		.word	.LC36
 794 030c B4050000 		.word	.LC37
 795 0310 EC050000 		.word	.LC38
 796 0314 FC050000 		.word	.LC39
 797 0318 24060000 		.word	.LC40
 798 031c 58060000 		.word	.LC41
 799 0320 7C060000 		.word	.LC42
 800 0324 AC060000 		.word	.LC43
 801 0328 CC060000 		.word	.LC44
 802 032c F8060000 		.word	.LC45
 803 0330 18070000 		.word	.LC46
 804 0334 44070000 		.word	.LC47
 805 0338 68070000 		.word	.LC48
 806 033c 94070000 		.word	.LC49
 807 0340 B4070000 		.word	.LC50
 808 0344 DC070000 		.word	.LC51
 809              	.L43:
 209:PSoC_Menu.c   ****     }
 210:PSoC_Menu.c   ****     else if (receiveBuffer[0] == '2')
 810              		.loc 1 210 0
 811 0348 2C4B     		ldr	r3, .L53
 812 034a 1B78     		ldrb	r3, [r3]	@ zero_extendqisi2
 813 034c 322B     		cmp	r3, #50
 814 034e 06D1     		bne	.L44
 211:PSoC_Menu.c   ****     {
 212:PSoC_Menu.c   ****         cardType = RPPSOC;
 815              		.loc 1 212 0
 816 0350 2B4B     		ldr	r3, .L53+4
 817 0352 0322     		movs	r2, #3
 818 0354 1A80     		strh	r2, [r3]	@ movhi
 213:PSoC_Menu.c   ****         putStringToUSB("Selected RPPSOC card\n\r");
 819              		.loc 1 213 0
 820 0356 2B48     		ldr	r0, .L53+8
 821 0358 FFF7FEFF 		bl	putStringToUSB
 822 035c 46E0     		b	.L9
 823              	.L44:
 214:PSoC_Menu.c   ****     }
 215:PSoC_Menu.c   ****     else if (receiveBuffer[0] == '3')
ARM GAS  C:\Users\HPz420\AppData\Local\Temp\ccYjbW4Q.s 			page 24


 824              		.loc 1 215 0
 825 035e 274B     		ldr	r3, .L53
 826 0360 1B78     		ldrb	r3, [r3]	@ zero_extendqisi2
 827 0362 332B     		cmp	r3, #51
 828 0364 06D1     		bne	.L45
 216:PSoC_Menu.c   ****     {
 217:PSoC_Menu.c   ****         cardType = RPPGVSCFG;
 829              		.loc 1 217 0
 830 0366 264B     		ldr	r3, .L53+4
 831 0368 0222     		movs	r2, #2
 832 036a 1A80     		strh	r2, [r3]	@ movhi
 218:PSoC_Menu.c   ****         putStringToUSB("Selected RASPI-PLUS-GVS-CFG card\n\r");
 833              		.loc 1 218 0
 834 036c 2648     		ldr	r0, .L53+12
 835 036e FFF7FEFF 		bl	putStringToUSB
 836 0372 3BE0     		b	.L9
 837              	.L45:
 219:PSoC_Menu.c   ****     }
 220:PSoC_Menu.c   ****     else if (receiveBuffer[0] == '4')
 838              		.loc 1 220 0
 839 0374 214B     		ldr	r3, .L53
 840 0376 1B78     		ldrb	r3, [r3]	@ zero_extendqisi2
 841 0378 342B     		cmp	r3, #52
 842 037a 06D1     		bne	.L46
 221:PSoC_Menu.c   ****     {
 222:PSoC_Menu.c   ****         cardType = RASPIGVS;
 843              		.loc 1 222 0
 844 037c 204B     		ldr	r3, .L53+4
 845 037e 0422     		movs	r2, #4
 846 0380 1A80     		strh	r2, [r3]	@ movhi
 223:PSoC_Menu.c   ****         putStringToUSB("Selected RASPIGVS card\n\r");
 847              		.loc 1 223 0
 848 0382 2248     		ldr	r0, .L53+16
 849 0384 FFF7FEFF 		bl	putStringToUSB
 850 0388 30E0     		b	.L9
 851              	.L46:
 224:PSoC_Menu.c   ****     }
 225:PSoC_Menu.c   ****     else if (receiveBuffer[0] == '5')
 852              		.loc 1 225 0
 853 038a 1C4B     		ldr	r3, .L53
 854 038c 1B78     		ldrb	r3, [r3]	@ zero_extendqisi2
 855 038e 352B     		cmp	r3, #53
 856 0390 06D1     		bne	.L47
 226:PSoC_Menu.c   ****     {
 227:PSoC_Menu.c   ****         cardType = RASPIPLUSGVS;
 857              		.loc 1 227 0
 858 0392 1B4B     		ldr	r3, .L53+4
 859 0394 0522     		movs	r2, #5
 860 0396 1A80     		strh	r2, [r3]	@ movhi
 228:PSoC_Menu.c   ****         putStringToUSB("Selected RASPI-PLUS-GVS card\n\r");
 861              		.loc 1 228 0
 862 0398 1D48     		ldr	r0, .L53+20
 863 039a FFF7FEFF 		bl	putStringToUSB
 864 039e 25E0     		b	.L9
 865              	.L47:
 229:PSoC_Menu.c   ****     }
 230:PSoC_Menu.c   ****     else if (receiveBuffer[0] == '6')
ARM GAS  C:\Users\HPz420\AppData\Local\Temp\ccYjbW4Q.s 			page 25


 866              		.loc 1 230 0
 867 03a0 164B     		ldr	r3, .L53
 868 03a2 1B78     		ldrb	r3, [r3]	@ zero_extendqisi2
 869 03a4 362B     		cmp	r3, #54
 870 03a6 06D1     		bne	.L48
 231:PSoC_Menu.c   ****     {
 232:PSoC_Menu.c   ****         cardType = RPII2CHUB;
 871              		.loc 1 232 0
 872 03a8 154B     		ldr	r3, .L53+4
 873 03aa 0622     		movs	r2, #6
 874 03ac 1A80     		strh	r2, [r3]	@ movhi
 233:PSoC_Menu.c   ****         putStringToUSB("Selected RPI-I2C-HUB card\n\r");
 875              		.loc 1 233 0
 876 03ae 1948     		ldr	r0, .L53+24
 877 03b0 FFF7FEFF 		bl	putStringToUSB
 878 03b4 1AE0     		b	.L9
 879              	.L48:
 234:PSoC_Menu.c   ****     }
 235:PSoC_Menu.c   ****     else if (receiveBuffer[0] == '7')
 880              		.loc 1 235 0
 881 03b6 114B     		ldr	r3, .L53
 882 03b8 1B78     		ldrb	r3, [r3]	@ zero_extendqisi2
 883 03ba 372B     		cmp	r3, #55
 884 03bc 06D1     		bne	.L49
 236:PSoC_Menu.c   ****     {
 237:PSoC_Menu.c   ****         cardType = RPISPI8;
 885              		.loc 1 237 0
 886 03be 104B     		ldr	r3, .L53+4
 887 03c0 0722     		movs	r2, #7
 888 03c2 1A80     		strh	r2, [r3]	@ movhi
 238:PSoC_Menu.c   ****         putStringToUSB("Selected RPI-SPI8 card\n\r");
 889              		.loc 1 238 0
 890 03c4 1448     		ldr	r0, .L53+28
 891 03c6 FFF7FEFF 		bl	putStringToUSB
 892 03ca 0FE0     		b	.L9
 893              	.L49:
 239:PSoC_Menu.c   ****     }
 240:PSoC_Menu.c   ****     else if (receiveBuffer[0] == '8')
 894              		.loc 1 240 0
 895 03cc 0B4B     		ldr	r3, .L53
 896 03ce 1B78     		ldrb	r3, [r3]	@ zero_extendqisi2
 897 03d0 382B     		cmp	r3, #56
 898 03d2 06D1     		bne	.L50
 241:PSoC_Menu.c   ****     {
 242:PSoC_Menu.c   ****         cardType = SPIPOTX2;
 899              		.loc 1 242 0
 900 03d4 0A4B     		ldr	r3, .L53+4
 901 03d6 0822     		movs	r2, #8
 902 03d8 1A80     		strh	r2, [r3]	@ movhi
 243:PSoC_Menu.c   ****         putStringToUSB("Selected SPI-POTX2 card (vis RPI-SPI8)\n\r");
 903              		.loc 1 243 0
 904 03da 1048     		ldr	r0, .L53+32
 905 03dc FFF7FEFF 		bl	putStringToUSB
 906 03e0 04E0     		b	.L9
 907              	.L50:
 244:PSoC_Menu.c   ****     }
 245:PSoC_Menu.c   ****     
ARM GAS  C:\Users\HPz420\AppData\Local\Temp\ccYjbW4Q.s 			page 26


 246:PSoC_Menu.c   ****     else
 247:PSoC_Menu.c   ****     {
 248:PSoC_Menu.c   ****         putStringToUSB("ERROR - Unrecognized option");
 908              		.loc 1 248 0
 909 03e2 0F48     		ldr	r0, .L53+36
 910 03e4 FFF7FEFF 		bl	putStringToUSB
 249:PSoC_Menu.c   ****         printMenuOptions();
 911              		.loc 1 249 0
 912 03e8 FFF7FEFF 		bl	printMenuOptions
 913              	.L9:
 250:PSoC_Menu.c   ****     }
 251:PSoC_Menu.c   ****     clearReceiveBuffer();
 914              		.loc 1 251 0
 915 03ec FFF7FEFF 		bl	clearReceiveBuffer
 252:PSoC_Menu.c   **** }
 916              		.loc 1 252 0
 917 03f0 00BF     		nop
 918 03f2 07F58077 		add	r7, r7, #256
 919              		.cfi_def_cfa_offset 8
 920 03f6 BD46     		mov	sp, r7
 921              		.cfi_def_cfa_register 13
 922              		@ sp needed
 923 03f8 80BD     		pop	{r7, pc}
 924              	.L54:
 925 03fa 00BF     		.align	2
 926              	.L53:
 927 03fc 00000000 		.word	receiveBuffer
 928 0400 00000000 		.word	cardType
 929 0404 F8070000 		.word	.LC52
 930 0408 10080000 		.word	.LC53
 931 040c 34080000 		.word	.LC54
 932 0410 50080000 		.word	.LC55
 933 0414 70080000 		.word	.LC56
 934 0418 8C080000 		.word	.LC57
 935 041c A8080000 		.word	.LC58
 936 0420 D4080000 		.word	.LC59
 937              		.cfi_endproc
 938              	.LFE64:
 939              		.size	psocMenu, .-psocMenu
 940              		.section	.text.clearReceiveBuffer,"ax",%progbits
 941              		.align	2
 942              		.global	clearReceiveBuffer
 943              		.thumb
 944              		.thumb_func
 945              		.type	clearReceiveBuffer, %function
 946              	clearReceiveBuffer:
 947              	.LFB65:
 253:PSoC_Menu.c   **** 
 254:PSoC_Menu.c   **** ////////////////////////////////////////////////////////////////////////////
 255:PSoC_Menu.c   **** // void clearReceiveBuffer(void)
 256:PSoC_Menu.c   **** 
 257:PSoC_Menu.c   **** void clearReceiveBuffer(void)
 258:PSoC_Menu.c   **** {
 948              		.loc 1 258 0
 949              		.cfi_startproc
 950              		@ args = 0, pretend = 0, frame = 0
 951              		@ frame_needed = 1, uses_anonymous_args = 0
ARM GAS  C:\Users\HPz420\AppData\Local\Temp\ccYjbW4Q.s 			page 27


 952              		@ link register save eliminated.
 953 0000 80B4     		push	{r7}
 954              		.cfi_def_cfa_offset 4
 955              		.cfi_offset 7, -4
 956 0002 00AF     		add	r7, sp, #0
 957              		.cfi_def_cfa_register 7
 259:PSoC_Menu.c   ****     receiveBufferPtr = 0;
 958              		.loc 1 259 0
 959 0004 064B     		ldr	r3, .L56
 960 0006 0022     		movs	r2, #0
 961 0008 1A70     		strb	r2, [r3]
 260:PSoC_Menu.c   ****     receiveBuffer[0] = 0;
 962              		.loc 1 260 0
 963 000a 064B     		ldr	r3, .L56+4
 964 000c 0022     		movs	r2, #0
 965 000e 1A70     		strb	r2, [r3]
 261:PSoC_Menu.c   ****     gotCRorLF = 0;
 966              		.loc 1 261 0
 967 0010 054B     		ldr	r3, .L56+8
 968 0012 0022     		movs	r2, #0
 969 0014 1A70     		strb	r2, [r3]
 262:PSoC_Menu.c   **** }
 970              		.loc 1 262 0
 971 0016 00BF     		nop
 972 0018 BD46     		mov	sp, r7
 973              		.cfi_def_cfa_register 13
 974              		@ sp needed
 975 001a 80BC     		pop	{r7}
 976              		.cfi_restore 7
 977              		.cfi_def_cfa_offset 0
 978 001c 7047     		bx	lr
 979              	.L57:
 980 001e 00BF     		.align	2
 981              	.L56:
 982 0020 00000000 		.word	receiveBufferPtr
 983 0024 00000000 		.word	receiveBuffer
 984 0028 00000000 		.word	gotCRorLF
 985              		.cfi_endproc
 986              	.LFE65:
 987              		.size	clearReceiveBuffer, .-clearReceiveBuffer
 988              		.section	.rodata
 989              		.align	2
 990              	.LC60:
 991 08f0 0A0D00   		.ascii	"\012\015\000"
 992              		.section	.text.addToReceiveBuffer,"ax",%progbits
 993              		.align	2
 994              		.global	addToReceiveBuffer
 995              		.thumb
 996              		.thumb_func
 997              		.type	addToReceiveBuffer, %function
 998              	addToReceiveBuffer:
 999              	.LFB66:
 263:PSoC_Menu.c   **** 
 264:PSoC_Menu.c   **** ////////////////////////////////////////////////////////////////////////////
 265:PSoC_Menu.c   **** // void addToReceiveBuffer(uint16, uint8 *)
 266:PSoC_Menu.c   **** 
 267:PSoC_Menu.c   **** void addToReceiveBuffer(uint16 inCount, uint8 * inBuffer)
ARM GAS  C:\Users\HPz420\AppData\Local\Temp\ccYjbW4Q.s 			page 28


 268:PSoC_Menu.c   **** {
 1000              		.loc 1 268 0
 1001              		.cfi_startproc
 1002              		@ args = 0, pretend = 0, frame = 96
 1003              		@ frame_needed = 1, uses_anonymous_args = 0
 1004 0000 80B5     		push	{r7, lr}
 1005              		.cfi_def_cfa_offset 8
 1006              		.cfi_offset 7, -8
 1007              		.cfi_offset 14, -4
 1008 0002 98B0     		sub	sp, sp, #96
 1009              		.cfi_def_cfa_offset 104
 1010 0004 00AF     		add	r7, sp, #0
 1011              		.cfi_def_cfa_register 7
 1012 0006 0346     		mov	r3, r0
 1013 0008 3960     		str	r1, [r7]
 1014 000a FB80     		strh	r3, [r7, #6]	@ movhi
 269:PSoC_Menu.c   ****     uint8 echoString[80];
 270:PSoC_Menu.c   ****     echoString[0] = 0;
 1015              		.loc 1 270 0
 1016 000c 0023     		movs	r3, #0
 1017 000e 3B73     		strb	r3, [r7, #12]
 1018              	.LBB2:
 271:PSoC_Menu.c   ****     for (uint8 receiveCt = 0; receiveCt < inCount; receiveCt++)
 1019              		.loc 1 271 0
 1020 0010 0023     		movs	r3, #0
 1021 0012 87F85F30 		strb	r3, [r7, #95]
 1022 0016 74E0     		b	.L59
 1023              	.L64:
 272:PSoC_Menu.c   ****     {
 273:PSoC_Menu.c   ****         // First check if the character is an end of line
 274:PSoC_Menu.c   ****         if ((inBuffer[receiveCt] == 0x0a) || (inBuffer[receiveCt] == 0x0d))
 1024              		.loc 1 274 0
 1025 0018 97F85F30 		ldrb	r3, [r7, #95]	@ zero_extendqisi2
 1026 001c 3A68     		ldr	r2, [r7]
 1027 001e 1344     		add	r3, r3, r2
 1028 0020 1B78     		ldrb	r3, [r3]	@ zero_extendqisi2
 1029 0022 0A2B     		cmp	r3, #10
 1030 0024 06D0     		beq	.L60
 1031              		.loc 1 274 0 is_stmt 0 discriminator 1
 1032 0026 97F85F30 		ldrb	r3, [r7, #95]	@ zero_extendqisi2
 1033 002a 3A68     		ldr	r2, [r7]
 1034 002c 1344     		add	r3, r3, r2
 1035 002e 1B78     		ldrb	r3, [r3]	@ zero_extendqisi2
 1036 0030 0D2B     		cmp	r3, #13
 1037 0032 06D1     		bne	.L61
 1038              	.L60:
 275:PSoC_Menu.c   ****         {
 276:PSoC_Menu.c   ****             gotCRorLF = 1;
 1039              		.loc 1 276 0 is_stmt 1
 1040 0034 384B     		ldr	r3, .L65
 1041 0036 0122     		movs	r2, #1
 1042 0038 1A70     		strb	r2, [r3]
 277:PSoC_Menu.c   ****             putStringToUSB("\n\r");
 1043              		.loc 1 277 0
 1044 003a 3848     		ldr	r0, .L65+4
 1045 003c FFF7FEFF 		bl	putStringToUSB
 1046 0040 5AE0     		b	.L62
ARM GAS  C:\Users\HPz420\AppData\Local\Temp\ccYjbW4Q.s 			page 29


 1047              	.L61:
 278:PSoC_Menu.c   ****         }
 279:PSoC_Menu.c   ****         // check if the character is not a RUBOUT and if the line length is OK
 280:PSoC_Menu.c   ****         else if ((inBuffer[receiveCt] != 0x7f) && (receiveCt < 80))
 1048              		.loc 1 280 0
 1049 0042 97F85F30 		ldrb	r3, [r7, #95]	@ zero_extendqisi2
 1050 0046 3A68     		ldr	r2, [r7]
 1051 0048 1344     		add	r3, r3, r2
 1052 004a 1B78     		ldrb	r3, [r3]	@ zero_extendqisi2
 1053 004c 7F2B     		cmp	r3, #127
 1054 004e 35D0     		beq	.L63
 1055              		.loc 1 280 0 is_stmt 0 discriminator 1
 1056 0050 97F85F30 		ldrb	r3, [r7, #95]	@ zero_extendqisi2
 1057 0054 4F2B     		cmp	r3, #79
 1058 0056 31D8     		bhi	.L63
 281:PSoC_Menu.c   ****         {
 282:PSoC_Menu.c   ****             receiveBuffer[receiveBufferPtr] = inBuffer[receiveCt];
 1059              		.loc 1 282 0 is_stmt 1
 1060 0058 314B     		ldr	r3, .L65+8
 1061 005a 1B78     		ldrb	r3, [r3]	@ zero_extendqisi2
 1062 005c 1946     		mov	r1, r3
 1063 005e 97F85F30 		ldrb	r3, [r7, #95]	@ zero_extendqisi2
 1064 0062 3A68     		ldr	r2, [r7]
 1065 0064 1344     		add	r3, r3, r2
 1066 0066 1A78     		ldrb	r2, [r3]	@ zero_extendqisi2
 1067 0068 2E4B     		ldr	r3, .L65+12
 1068 006a 5A54     		strb	r2, [r3, r1]
 283:PSoC_Menu.c   ****             receiveBufferPtr++;
 1069              		.loc 1 283 0
 1070 006c 2C4B     		ldr	r3, .L65+8
 1071 006e 1B78     		ldrb	r3, [r3]	@ zero_extendqisi2
 1072 0070 0133     		adds	r3, r3, #1
 1073 0072 DAB2     		uxtb	r2, r3
 1074 0074 2A4B     		ldr	r3, .L65+8
 1075 0076 1A70     		strb	r2, [r3]
 284:PSoC_Menu.c   ****             echoString[inCount] = 0;
 1076              		.loc 1 284 0
 1077 0078 FB88     		ldrh	r3, [r7, #6]
 1078 007a 07F16002 		add	r2, r7, #96
 1079 007e 1344     		add	r3, r3, r2
 1080 0080 0022     		movs	r2, #0
 1081 0082 03F8542C 		strb	r2, [r3, #-84]
 285:PSoC_Menu.c   ****             echoString[receiveCt] = inBuffer[receiveCt];
 1082              		.loc 1 285 0
 1083 0086 97F85F30 		ldrb	r3, [r7, #95]	@ zero_extendqisi2
 1084 008a 97F85F20 		ldrb	r2, [r7, #95]	@ zero_extendqisi2
 1085 008e 3968     		ldr	r1, [r7]
 1086 0090 0A44     		add	r2, r2, r1
 1087 0092 1278     		ldrb	r2, [r2]	@ zero_extendqisi2
 1088 0094 07F16001 		add	r1, r7, #96
 1089 0098 0B44     		add	r3, r3, r1
 1090 009a 03F8542C 		strb	r2, [r3, #-84]
 286:PSoC_Menu.c   ****             echoString[receiveCt+1] = 0;
 1091              		.loc 1 286 0
 1092 009e 97F85F30 		ldrb	r3, [r7, #95]	@ zero_extendqisi2
 1093 00a2 0133     		adds	r3, r3, #1
 1094 00a4 07F16002 		add	r2, r7, #96
ARM GAS  C:\Users\HPz420\AppData\Local\Temp\ccYjbW4Q.s 			page 30


 1095 00a8 1344     		add	r3, r3, r2
 1096 00aa 0022     		movs	r2, #0
 1097 00ac 03F8542C 		strb	r2, [r3, #-84]
 287:PSoC_Menu.c   ****             putStringToUSB((char *)echoString);
 1098              		.loc 1 287 0
 1099 00b0 07F10C03 		add	r3, r7, #12
 1100 00b4 1846     		mov	r0, r3
 1101 00b6 FFF7FEFF 		bl	putStringToUSB
 1102 00ba 1DE0     		b	.L62
 1103              	.L63:
 288:PSoC_Menu.c   ****         }
 289:PSoC_Menu.c   ****         // If the character is rubout and not the 0th character
 290:PSoC_Menu.c   ****         else if ((receiveBufferPtr > 0) && (inBuffer[receiveCt] == 0x7f))
 1104              		.loc 1 290 0
 1105 00bc 184B     		ldr	r3, .L65+8
 1106 00be 1B78     		ldrb	r3, [r3]	@ zero_extendqisi2
 1107 00c0 002B     		cmp	r3, #0
 1108 00c2 19D0     		beq	.L62
 1109              		.loc 1 290 0 is_stmt 0 discriminator 1
 1110 00c4 97F85F30 		ldrb	r3, [r7, #95]	@ zero_extendqisi2
 1111 00c8 3A68     		ldr	r2, [r7]
 1112 00ca 1344     		add	r3, r3, r2
 1113 00cc 1B78     		ldrb	r3, [r3]	@ zero_extendqisi2
 1114 00ce 7F2B     		cmp	r3, #127
 1115 00d0 12D1     		bne	.L62
 291:PSoC_Menu.c   ****         {
 292:PSoC_Menu.c   ****             receiveBufferPtr--;
 1116              		.loc 1 292 0 is_stmt 1
 1117 00d2 134B     		ldr	r3, .L65+8
 1118 00d4 1B78     		ldrb	r3, [r3]	@ zero_extendqisi2
 1119 00d6 013B     		subs	r3, r3, #1
 1120 00d8 DAB2     		uxtb	r2, r3
 1121 00da 114B     		ldr	r3, .L65+8
 1122 00dc 1A70     		strb	r2, [r3]
 293:PSoC_Menu.c   ****             echoString[0] = 0x08;       // Backspace
 1123              		.loc 1 293 0
 1124 00de 0823     		movs	r3, #8
 1125 00e0 3B73     		strb	r3, [r7, #12]
 294:PSoC_Menu.c   ****             echoString[1] = 0x20;       // Space
 1126              		.loc 1 294 0
 1127 00e2 2023     		movs	r3, #32
 1128 00e4 7B73     		strb	r3, [r7, #13]
 295:PSoC_Menu.c   ****             echoString[2] = 0x08;       // Backspace
 1129              		.loc 1 295 0
 1130 00e6 0823     		movs	r3, #8
 1131 00e8 BB73     		strb	r3, [r7, #14]
 296:PSoC_Menu.c   ****             echoString[3] = 0;
 1132              		.loc 1 296 0
 1133 00ea 0023     		movs	r3, #0
 1134 00ec FB73     		strb	r3, [r7, #15]
 297:PSoC_Menu.c   ****             putStringToUSB((char *)echoString);
 1135              		.loc 1 297 0
 1136 00ee 07F10C03 		add	r3, r7, #12
 1137 00f2 1846     		mov	r0, r3
 1138 00f4 FFF7FEFF 		bl	putStringToUSB
 1139              	.L62:
 271:PSoC_Menu.c   ****     {
ARM GAS  C:\Users\HPz420\AppData\Local\Temp\ccYjbW4Q.s 			page 31


 1140              		.loc 1 271 0 discriminator 2
 1141 00f8 97F85F30 		ldrb	r3, [r7, #95]	@ zero_extendqisi2
 1142 00fc 0133     		adds	r3, r3, #1
 1143 00fe 87F85F30 		strb	r3, [r7, #95]
 1144              	.L59:
 271:PSoC_Menu.c   ****     {
 1145              		.loc 1 271 0 is_stmt 0 discriminator 1
 1146 0102 97F85F30 		ldrb	r3, [r7, #95]	@ zero_extendqisi2
 1147 0106 9BB2     		uxth	r3, r3
 1148 0108 FA88     		ldrh	r2, [r7, #6]
 1149 010a 9A42     		cmp	r2, r3
 1150 010c 84D8     		bhi	.L64
 1151              	.LBE2:
 298:PSoC_Menu.c   ****         }
 299:PSoC_Menu.c   ****     }
 300:PSoC_Menu.c   **** }
 1152              		.loc 1 300 0 is_stmt 1
 1153 010e 00BF     		nop
 1154 0110 6037     		adds	r7, r7, #96
 1155              		.cfi_def_cfa_offset 8
 1156 0112 BD46     		mov	sp, r7
 1157              		.cfi_def_cfa_register 13
 1158              		@ sp needed
 1159 0114 80BD     		pop	{r7, pc}
 1160              	.L66:
 1161 0116 00BF     		.align	2
 1162              	.L65:
 1163 0118 00000000 		.word	gotCRorLF
 1164 011c F0080000 		.word	.LC60
 1165 0120 00000000 		.word	receiveBufferPtr
 1166 0124 00000000 		.word	receiveBuffer
 1167              		.cfi_endproc
 1168              	.LFE66:
 1169              		.size	addToReceiveBuffer, .-addToReceiveBuffer
 1170              		.section	.text.putStringToUSB,"ax",%progbits
 1171              		.align	2
 1172              		.global	putStringToUSB
 1173              		.thumb
 1174              		.thumb_func
 1175              		.type	putStringToUSB, %function
 1176              	putStringToUSB:
 1177              	.LFB67:
 301:PSoC_Menu.c   **** 
 302:PSoC_Menu.c   **** ////////////////////////////////////////////////////////////////////////////
 303:PSoC_Menu.c   **** // void putStringToUSB(char *)
 304:PSoC_Menu.c   **** 
 305:PSoC_Menu.c   **** void putStringToUSB(char * stringToPutOutUSB)
 306:PSoC_Menu.c   **** {
 1178              		.loc 1 306 0
 1179              		.cfi_startproc
 1180              		@ args = 0, pretend = 0, frame = 8
 1181              		@ frame_needed = 1, uses_anonymous_args = 0
 1182 0000 80B5     		push	{r7, lr}
 1183              		.cfi_def_cfa_offset 8
 1184              		.cfi_offset 7, -8
 1185              		.cfi_offset 14, -4
 1186 0002 82B0     		sub	sp, sp, #8
ARM GAS  C:\Users\HPz420\AppData\Local\Temp\ccYjbW4Q.s 			page 32


 1187              		.cfi_def_cfa_offset 16
 1188 0004 00AF     		add	r7, sp, #0
 1189              		.cfi_def_cfa_register 7
 1190 0006 7860     		str	r0, [r7, #4]
 307:PSoC_Menu.c   ****     USBUART_PutData((uint8 *)stringToPutOutUSB, strlen(stringToPutOutUSB));
 1191              		.loc 1 307 0
 1192 0008 7868     		ldr	r0, [r7, #4]
 1193 000a FFF7FEFF 		bl	strlen
 1194 000e 0346     		mov	r3, r0
 1195 0010 9BB2     		uxth	r3, r3
 1196 0012 1946     		mov	r1, r3
 1197 0014 7868     		ldr	r0, [r7, #4]
 1198 0016 FFF7FEFF 		bl	USBUART_PutData
 308:PSoC_Menu.c   ****     while (0u == USBUART_CDCIsReady());
 1199              		.loc 1 308 0
 1200 001a 00BF     		nop
 1201              	.L68:
 1202              		.loc 1 308 0 is_stmt 0 discriminator 1
 1203 001c FFF7FEFF 		bl	USBUART_CDCIsReady
 1204 0020 0346     		mov	r3, r0
 1205 0022 002B     		cmp	r3, #0
 1206 0024 FAD0     		beq	.L68
 309:PSoC_Menu.c   **** }
 1207              		.loc 1 309 0 is_stmt 1
 1208 0026 00BF     		nop
 1209 0028 0837     		adds	r7, r7, #8
 1210              		.cfi_def_cfa_offset 8
 1211 002a BD46     		mov	sp, r7
 1212              		.cfi_def_cfa_register 13
 1213              		@ sp needed
 1214 002c 80BD     		pop	{r7, pc}
 1215              		.cfi_endproc
 1216              	.LFE67:
 1217              		.size	putStringToUSB, .-putStringToUSB
 1218              		.section	.text.asciiNibbleToVal,"ax",%progbits
 1219              		.align	2
 1220              		.global	asciiNibbleToVal
 1221              		.thumb
 1222              		.thumb_func
 1223              		.type	asciiNibbleToVal, %function
 1224              	asciiNibbleToVal:
 1225              	.LFB68:
 310:PSoC_Menu.c   **** 
 311:PSoC_Menu.c   **** ////////////////////////////////////////////////////////////////////////////
 312:PSoC_Menu.c   **** // asciiNibbleToVal(uint8)
 313:PSoC_Menu.c   **** 
 314:PSoC_Menu.c   **** uint32 asciiNibbleToVal(uint8 charVal)
 315:PSoC_Menu.c   **** {
 1226              		.loc 1 315 0
 1227              		.cfi_startproc
 1228              		@ args = 0, pretend = 0, frame = 8
 1229              		@ frame_needed = 1, uses_anonymous_args = 0
 1230              		@ link register save eliminated.
 1231 0000 80B4     		push	{r7}
 1232              		.cfi_def_cfa_offset 4
 1233              		.cfi_offset 7, -4
 1234 0002 83B0     		sub	sp, sp, #12
ARM GAS  C:\Users\HPz420\AppData\Local\Temp\ccYjbW4Q.s 			page 33


 1235              		.cfi_def_cfa_offset 16
 1236 0004 00AF     		add	r7, sp, #0
 1237              		.cfi_def_cfa_register 7
 1238 0006 0346     		mov	r3, r0
 1239 0008 FB71     		strb	r3, [r7, #7]
 316:PSoC_Menu.c   ****     if ((charVal >= '0') && (charVal <= '9'))
 1240              		.loc 1 316 0
 1241 000a FB79     		ldrb	r3, [r7, #7]	@ zero_extendqisi2
 1242 000c 2F2B     		cmp	r3, #47
 1243 000e 05D9     		bls	.L70
 1244              		.loc 1 316 0 is_stmt 0 discriminator 1
 1245 0010 FB79     		ldrb	r3, [r7, #7]	@ zero_extendqisi2
 1246 0012 392B     		cmp	r3, #57
 1247 0014 02D8     		bhi	.L70
 317:PSoC_Menu.c   ****         return (charVal-'0');
 1248              		.loc 1 317 0 is_stmt 1
 1249 0016 FB79     		ldrb	r3, [r7, #7]	@ zero_extendqisi2
 1250 0018 303B     		subs	r3, r3, #48
 1251 001a 12E0     		b	.L71
 1252              	.L70:
 318:PSoC_Menu.c   ****     else if ((charVal >= 'A') && (charVal <= 'F'))
 1253              		.loc 1 318 0
 1254 001c FB79     		ldrb	r3, [r7, #7]	@ zero_extendqisi2
 1255 001e 402B     		cmp	r3, #64
 1256 0020 05D9     		bls	.L72
 1257              		.loc 1 318 0 is_stmt 0 discriminator 1
 1258 0022 FB79     		ldrb	r3, [r7, #7]	@ zero_extendqisi2
 1259 0024 462B     		cmp	r3, #70
 1260 0026 02D8     		bhi	.L72
 319:PSoC_Menu.c   ****         return (charVal-'A'+10);
 1261              		.loc 1 319 0 is_stmt 1
 1262 0028 FB79     		ldrb	r3, [r7, #7]	@ zero_extendqisi2
 1263 002a 373B     		subs	r3, r3, #55
 1264 002c 09E0     		b	.L71
 1265              	.L72:
 320:PSoC_Menu.c   ****     else if ((charVal >= 'a') && (charVal <= 'f'))
 1266              		.loc 1 320 0
 1267 002e FB79     		ldrb	r3, [r7, #7]	@ zero_extendqisi2
 1268 0030 602B     		cmp	r3, #96
 1269 0032 05D9     		bls	.L73
 1270              		.loc 1 320 0 is_stmt 0 discriminator 1
 1271 0034 FB79     		ldrb	r3, [r7, #7]	@ zero_extendqisi2
 1272 0036 662B     		cmp	r3, #102
 1273 0038 02D8     		bhi	.L73
 321:PSoC_Menu.c   ****         return (charVal-'a'+10);
 1274              		.loc 1 321 0 is_stmt 1
 1275 003a FB79     		ldrb	r3, [r7, #7]	@ zero_extendqisi2
 1276 003c 573B     		subs	r3, r3, #87
 1277 003e 00E0     		b	.L71
 1278              	.L73:
 322:PSoC_Menu.c   ****     return(0);
 1279              		.loc 1 322 0
 1280 0040 0023     		movs	r3, #0
 1281              	.L71:
 323:PSoC_Menu.c   **** }
 1282              		.loc 1 323 0
 1283 0042 1846     		mov	r0, r3
ARM GAS  C:\Users\HPz420\AppData\Local\Temp\ccYjbW4Q.s 			page 34


 1284 0044 0C37     		adds	r7, r7, #12
 1285              		.cfi_def_cfa_offset 4
 1286 0046 BD46     		mov	sp, r7
 1287              		.cfi_def_cfa_register 13
 1288              		@ sp needed
 1289 0048 80BC     		pop	{r7}
 1290              		.cfi_restore 7
 1291              		.cfi_def_cfa_offset 0
 1292 004a 7047     		bx	lr
 1293              		.cfi_endproc
 1294              	.LFE68:
 1295              		.size	asciiNibbleToVal, .-asciiNibbleToVal
 1296              		.section	.text.extractLong,"ax",%progbits
 1297              		.align	2
 1298              		.global	extractLong
 1299              		.thumb
 1300              		.thumb_func
 1301              		.type	extractLong, %function
 1302              	extractLong:
 1303              	.LFB69:
 324:PSoC_Menu.c   **** 
 325:PSoC_Menu.c   **** ////////////////////////////////////////////////////////////////////////////
 326:PSoC_Menu.c   **** // uint32 extractLong(uint8 *)
 327:PSoC_Menu.c   **** 
 328:PSoC_Menu.c   **** uint32 extractLong(uint8 * commandString)
 329:PSoC_Menu.c   **** {
 1304              		.loc 1 329 0
 1305              		.cfi_startproc
 1306              		@ args = 0, pretend = 0, frame = 16
 1307              		@ frame_needed = 1, uses_anonymous_args = 0
 1308 0000 80B5     		push	{r7, lr}
 1309              		.cfi_def_cfa_offset 8
 1310              		.cfi_offset 7, -8
 1311              		.cfi_offset 14, -4
 1312 0002 84B0     		sub	sp, sp, #16
 1313              		.cfi_def_cfa_offset 24
 1314 0004 00AF     		add	r7, sp, #0
 1315              		.cfi_def_cfa_register 7
 1316 0006 7860     		str	r0, [r7, #4]
 330:PSoC_Menu.c   ****     uint8 linePtr = 1;
 1317              		.loc 1 330 0
 1318 0008 0123     		movs	r3, #1
 1319 000a FB73     		strb	r3, [r7, #15]
 331:PSoC_Menu.c   ****     uint32 rVal = 0;
 1320              		.loc 1 331 0
 1321 000c 0023     		movs	r3, #0
 1322 000e BB60     		str	r3, [r7, #8]
 332:PSoC_Menu.c   ****     while ((commandString[linePtr] != 0) && (linePtr < 32) && (commandString[linePtr] != '\n') && (
 1323              		.loc 1 332 0
 1324 0010 10E0     		b	.L75
 1325              	.L77:
 333:PSoC_Menu.c   ****     {
 334:PSoC_Menu.c   ****         rVal <<= 4;
 1326              		.loc 1 334 0
 1327 0012 BB68     		ldr	r3, [r7, #8]
 1328 0014 1B01     		lsls	r3, r3, #4
 1329 0016 BB60     		str	r3, [r7, #8]
ARM GAS  C:\Users\HPz420\AppData\Local\Temp\ccYjbW4Q.s 			page 35


 335:PSoC_Menu.c   ****         rVal |= asciiNibbleToVal(commandString[linePtr]);
 1330              		.loc 1 335 0
 1331 0018 FB7B     		ldrb	r3, [r7, #15]	@ zero_extendqisi2
 1332 001a 7A68     		ldr	r2, [r7, #4]
 1333 001c 1344     		add	r3, r3, r2
 1334 001e 1B78     		ldrb	r3, [r3]	@ zero_extendqisi2
 1335 0020 1846     		mov	r0, r3
 1336 0022 FFF7FEFF 		bl	asciiNibbleToVal
 1337 0026 0246     		mov	r2, r0
 1338 0028 BB68     		ldr	r3, [r7, #8]
 1339 002a 1343     		orrs	r3, r3, r2
 1340 002c BB60     		str	r3, [r7, #8]
 336:PSoC_Menu.c   ****         linePtr++;
 1341              		.loc 1 336 0
 1342 002e FB7B     		ldrb	r3, [r7, #15]	@ zero_extendqisi2
 1343 0030 0133     		adds	r3, r3, #1
 1344 0032 FB73     		strb	r3, [r7, #15]
 1345              	.L75:
 332:PSoC_Menu.c   ****     {
 1346              		.loc 1 332 0
 1347 0034 FB7B     		ldrb	r3, [r7, #15]	@ zero_extendqisi2
 1348 0036 7A68     		ldr	r2, [r7, #4]
 1349 0038 1344     		add	r3, r3, r2
 1350 003a 1B78     		ldrb	r3, [r3]	@ zero_extendqisi2
 1351 003c 002B     		cmp	r3, #0
 1352 003e 0ED0     		beq	.L76
 332:PSoC_Menu.c   ****     {
 1353              		.loc 1 332 0 is_stmt 0 discriminator 1
 1354 0040 FB7B     		ldrb	r3, [r7, #15]	@ zero_extendqisi2
 1355 0042 1F2B     		cmp	r3, #31
 1356 0044 0BD8     		bhi	.L76
 332:PSoC_Menu.c   ****     {
 1357              		.loc 1 332 0 discriminator 2
 1358 0046 FB7B     		ldrb	r3, [r7, #15]	@ zero_extendqisi2
 1359 0048 7A68     		ldr	r2, [r7, #4]
 1360 004a 1344     		add	r3, r3, r2
 1361 004c 1B78     		ldrb	r3, [r3]	@ zero_extendqisi2
 1362 004e 0A2B     		cmp	r3, #10
 1363 0050 05D0     		beq	.L76
 332:PSoC_Menu.c   ****     {
 1364              		.loc 1 332 0 discriminator 3
 1365 0052 FB7B     		ldrb	r3, [r7, #15]	@ zero_extendqisi2
 1366 0054 7A68     		ldr	r2, [r7, #4]
 1367 0056 1344     		add	r3, r3, r2
 1368 0058 1B78     		ldrb	r3, [r3]	@ zero_extendqisi2
 1369 005a 0D2B     		cmp	r3, #13
 1370 005c D9D1     		bne	.L77
 1371              	.L76:
 337:PSoC_Menu.c   ****     }
 338:PSoC_Menu.c   ****     return (rVal);
 1372              		.loc 1 338 0 is_stmt 1
 1373 005e BB68     		ldr	r3, [r7, #8]
 339:PSoC_Menu.c   **** }
 1374              		.loc 1 339 0
 1375 0060 1846     		mov	r0, r3
 1376 0062 1037     		adds	r7, r7, #16
 1377              		.cfi_def_cfa_offset 8
ARM GAS  C:\Users\HPz420\AppData\Local\Temp\ccYjbW4Q.s 			page 36


 1378 0064 BD46     		mov	sp, r7
 1379              		.cfi_def_cfa_register 13
 1380              		@ sp needed
 1381 0066 80BD     		pop	{r7, pc}
 1382              		.cfi_endproc
 1383              	.LFE69:
 1384              		.size	extractLong, .-extractLong
 1385              		.text
 1386              	.Letext0:
 1387              		.file 2 "c:\\program files (x86)\\cypress\\psoc creator\\4.4\\psoc creator\\import\\gnu\\arm\\5.4.
 1388              		.file 3 "c:\\program files (x86)\\cypress\\psoc creator\\4.4\\psoc creator\\import\\gnu\\arm\\5.4.
 1389              		.file 4 "Generated_Source\\PSoC5/cytypes.h"
 1390              		.file 5 "Generated_Source\\PSoC5/core_cm3.h"
 1391              		.file 6 "RPI_PSOC5.h"