ARM GAS  C:\Users\HPz420\AppData\Local\Temp\ccoBt7Wn.s 			page 1


   1              		.syntax unified
   2              		.cpu cortex-m3
   3              		.fpu softvfp
   4              		.eabi_attribute 20, 1
   5              		.eabi_attribute 21, 1
   6              		.eabi_attribute 23, 3
   7              		.eabi_attribute 24, 1
   8              		.eabi_attribute 25, 1
   9              		.eabi_attribute 26, 1
  10              		.eabi_attribute 30, 6
  11              		.eabi_attribute 34, 1
  12              		.eabi_attribute 18, 4
  13              		.thumb
  14              		.syntax unified
  15              		.file	"RasPi_Pins.c"
  16              		.text
  17              	.Ltext0:
  18              		.cfi_sections	.debug_frame
  19              		.section	.text.setRasPiPinValue,"ax",%progbits
  20              		.align	2
  21              		.global	setRasPiPinValue
  22              		.thumb
  23              		.thumb_func
  24              		.type	setRasPiPinValue, %function
  25              	setRasPiPinValue:
  26              	.LFB63:
  27              		.file 1 "RasPi_Pins.c"
   1:RasPi_Pins.c  **** /* ========================================
   2:RasPi_Pins.c  ****  *
   3:RasPi_Pins.c  ****  * Copyright LAND BOARDS, LLC, 2019
   4:RasPi_Pins.c  ****  * All Rights Reserved
   5:RasPi_Pins.c  ****  * UNPUBLISHED, LICENSED SOFTWARE.
   6:RasPi_Pins.c  ****  *
   7:RasPi_Pins.c  ****  * CONFIDENTIAL AND PROPRIETARY INFORMATION
   8:RasPi_Pins.c  ****  * WHICH IS THE PROPERTY OF Land Boards.
   9:RasPi_Pins.c  ****  *
  10:RasPi_Pins.c  ****  * ========================================
  11:RasPi_Pins.c  **** */
  12:RasPi_Pins.c  **** 
  13:RasPi_Pins.c  **** #include "RPI_PSOC5.h"
  14:RasPi_Pins.c  **** 
  15:RasPi_Pins.c  **** void setRasPiPinValue(uint8 bcmPinNum, uint8 value)
  16:RasPi_Pins.c  **** {
  28              		.loc 1 16 0
  29              		.cfi_startproc
  30              		@ args = 0, pretend = 0, frame = 8
  31              		@ frame_needed = 1, uses_anonymous_args = 0
  32 0000 80B5     		push	{r7, lr}
  33              		.cfi_def_cfa_offset 8
  34              		.cfi_offset 7, -8
  35              		.cfi_offset 14, -4
  36 0002 82B0     		sub	sp, sp, #8
  37              		.cfi_def_cfa_offset 16
  38 0004 00AF     		add	r7, sp, #0
  39              		.cfi_def_cfa_register 7
  40 0006 0346     		mov	r3, r0
  41 0008 0A46     		mov	r2, r1
ARM GAS  C:\Users\HPz420\AppData\Local\Temp\ccoBt7Wn.s 			page 2


  42 000a FB71     		strb	r3, [r7, #7]
  43 000c 1346     		mov	r3, r2
  44 000e BB71     		strb	r3, [r7, #6]
  17:RasPi_Pins.c  ****     switch (bcmPinNum)
  45              		.loc 1 17 0
  46 0010 FB79     		ldrb	r3, [r7, #7]	@ zero_extendqisi2
  47 0012 192B     		cmp	r3, #25
  48 0014 00F2BA80 		bhi	.L30
  49 0018 01A2     		adr	r2, .L4
  50 001a 52F823F0 		ldr	pc, [r2, r3, lsl #2]
  51 001e 00BF     		.p2align 2
  52              	.L4:
  53 0020 89000000 		.word	.L3+1
  54 0024 93000000 		.word	.L5+1
  55 0028 9D000000 		.word	.L6+1
  56 002c A7000000 		.word	.L7+1
  57 0030 B1000000 		.word	.L8+1
  58 0034 BB000000 		.word	.L9+1
  59 0038 C5000000 		.word	.L10+1
  60 003c CF000000 		.word	.L11+1
  61 0040 D9000000 		.word	.L12+1
  62 0044 E3000000 		.word	.L13+1
  63 0048 ED000000 		.word	.L14+1
  64 004c F7000000 		.word	.L15+1
  65 0050 01010000 		.word	.L16+1
  66 0054 0B010000 		.word	.L17+1
  67 0058 15010000 		.word	.L18+1
  68 005c 1F010000 		.word	.L19+1
  69 0060 29010000 		.word	.L20+1
  70 0064 33010000 		.word	.L21+1
  71 0068 3D010000 		.word	.L22+1
  72 006c 47010000 		.word	.L23+1
  73 0070 51010000 		.word	.L24+1
  74 0074 5B010000 		.word	.L25+1
  75 0078 65010000 		.word	.L26+1
  76 007c 6F010000 		.word	.L27+1
  77 0080 79010000 		.word	.L28+1
  78 0084 83010000 		.word	.L29+1
  79              		.p2align 1
  80              	.L3:
  18:RasPi_Pins.c  ****     {
  19:RasPi_Pins.c  ****         case IO_2:
  20:RasPi_Pins.c  ****             IO_2_Write(value);
  81              		.loc 1 20 0
  82 0088 BB79     		ldrb	r3, [r7, #6]	@ zero_extendqisi2
  83 008a 1846     		mov	r0, r3
  84 008c FFF7FEFF 		bl	IO_2_Write
  21:RasPi_Pins.c  ****             break;
  85              		.loc 1 21 0
  86 0090 7CE0     		b	.L2
  87              	.L5:
  22:RasPi_Pins.c  ****         case IO_3:
  23:RasPi_Pins.c  ****             IO_3_Write(value);
  88              		.loc 1 23 0
  89 0092 BB79     		ldrb	r3, [r7, #6]	@ zero_extendqisi2
  90 0094 1846     		mov	r0, r3
  91 0096 FFF7FEFF 		bl	IO_3_Write
ARM GAS  C:\Users\HPz420\AppData\Local\Temp\ccoBt7Wn.s 			page 3


  24:RasPi_Pins.c  ****             break;
  92              		.loc 1 24 0
  93 009a 77E0     		b	.L2
  94              	.L6:
  25:RasPi_Pins.c  ****         case IO_4:
  26:RasPi_Pins.c  ****             IO_4_Write(value);
  95              		.loc 1 26 0
  96 009c BB79     		ldrb	r3, [r7, #6]	@ zero_extendqisi2
  97 009e 1846     		mov	r0, r3
  98 00a0 FFF7FEFF 		bl	IO_4_Write
  27:RasPi_Pins.c  ****             break;
  99              		.loc 1 27 0
 100 00a4 72E0     		b	.L2
 101              	.L7:
  28:RasPi_Pins.c  ****         case IO_14:
  29:RasPi_Pins.c  ****             IO_14_Write(value);
 102              		.loc 1 29 0
 103 00a6 BB79     		ldrb	r3, [r7, #6]	@ zero_extendqisi2
 104 00a8 1846     		mov	r0, r3
 105 00aa FFF7FEFF 		bl	IO_14_Write
  30:RasPi_Pins.c  ****             break;
 106              		.loc 1 30 0
 107 00ae 6DE0     		b	.L2
 108              	.L8:
  31:RasPi_Pins.c  ****         case IO_15:
  32:RasPi_Pins.c  ****             IO_15_Write(value);
 109              		.loc 1 32 0
 110 00b0 BB79     		ldrb	r3, [r7, #6]	@ zero_extendqisi2
 111 00b2 1846     		mov	r0, r3
 112 00b4 FFF7FEFF 		bl	IO_15_Write
  33:RasPi_Pins.c  ****             break;
 113              		.loc 1 33 0
 114 00b8 68E0     		b	.L2
 115              	.L9:
  34:RasPi_Pins.c  ****         case IO_17:
  35:RasPi_Pins.c  ****             IO_17_Write(value);
 116              		.loc 1 35 0
 117 00ba BB79     		ldrb	r3, [r7, #6]	@ zero_extendqisi2
 118 00bc 1846     		mov	r0, r3
 119 00be FFF7FEFF 		bl	IO_17_Write
  36:RasPi_Pins.c  ****             break;
 120              		.loc 1 36 0
 121 00c2 63E0     		b	.L2
 122              	.L10:
  37:RasPi_Pins.c  ****         case IO_18:
  38:RasPi_Pins.c  ****             IO_18_Write(value);
 123              		.loc 1 38 0
 124 00c4 BB79     		ldrb	r3, [r7, #6]	@ zero_extendqisi2
 125 00c6 1846     		mov	r0, r3
 126 00c8 FFF7FEFF 		bl	IO_18_Write
  39:RasPi_Pins.c  ****             break;
 127              		.loc 1 39 0
 128 00cc 5EE0     		b	.L2
 129              	.L11:
  40:RasPi_Pins.c  ****         case IO_27:
  41:RasPi_Pins.c  ****             IO_27_Write(value);
 130              		.loc 1 41 0
ARM GAS  C:\Users\HPz420\AppData\Local\Temp\ccoBt7Wn.s 			page 4


 131 00ce BB79     		ldrb	r3, [r7, #6]	@ zero_extendqisi2
 132 00d0 1846     		mov	r0, r3
 133 00d2 FFF7FEFF 		bl	IO_27_Write
  42:RasPi_Pins.c  ****             break;
 134              		.loc 1 42 0
 135 00d6 59E0     		b	.L2
 136              	.L12:
  43:RasPi_Pins.c  ****         case IO_22:
  44:RasPi_Pins.c  ****             IO_22_Write(value);
 137              		.loc 1 44 0
 138 00d8 BB79     		ldrb	r3, [r7, #6]	@ zero_extendqisi2
 139 00da 1846     		mov	r0, r3
 140 00dc FFF7FEFF 		bl	IO_22_Write
  45:RasPi_Pins.c  ****             break;
 141              		.loc 1 45 0
 142 00e0 54E0     		b	.L2
 143              	.L13:
  46:RasPi_Pins.c  ****         case IO_23:
  47:RasPi_Pins.c  ****             IO_23_Write(value);
 144              		.loc 1 47 0
 145 00e2 BB79     		ldrb	r3, [r7, #6]	@ zero_extendqisi2
 146 00e4 1846     		mov	r0, r3
 147 00e6 FFF7FEFF 		bl	IO_23_Write
  48:RasPi_Pins.c  ****             break;
 148              		.loc 1 48 0
 149 00ea 4FE0     		b	.L2
 150              	.L14:
  49:RasPi_Pins.c  ****         case IO_24:
  50:RasPi_Pins.c  ****             IO_24_Write(value);
 151              		.loc 1 50 0
 152 00ec BB79     		ldrb	r3, [r7, #6]	@ zero_extendqisi2
 153 00ee 1846     		mov	r0, r3
 154 00f0 FFF7FEFF 		bl	IO_24_Write
  51:RasPi_Pins.c  ****             break;
 155              		.loc 1 51 0
 156 00f4 4AE0     		b	.L2
 157              	.L15:
  52:RasPi_Pins.c  ****         case IO_10:
  53:RasPi_Pins.c  ****             IO_10_Write(value);
 158              		.loc 1 53 0
 159 00f6 BB79     		ldrb	r3, [r7, #6]	@ zero_extendqisi2
 160 00f8 1846     		mov	r0, r3
 161 00fa FFF7FEFF 		bl	IO_10_Write
  54:RasPi_Pins.c  ****             break;
 162              		.loc 1 54 0
 163 00fe 45E0     		b	.L2
 164              	.L16:
  55:RasPi_Pins.c  ****         case IO_9:
  56:RasPi_Pins.c  ****             IO_9_Write(value);
 165              		.loc 1 56 0
 166 0100 BB79     		ldrb	r3, [r7, #6]	@ zero_extendqisi2
 167 0102 1846     		mov	r0, r3
 168 0104 FFF7FEFF 		bl	IO_9_Write
  57:RasPi_Pins.c  ****             break;
 169              		.loc 1 57 0
 170 0108 40E0     		b	.L2
 171              	.L17:
ARM GAS  C:\Users\HPz420\AppData\Local\Temp\ccoBt7Wn.s 			page 5


  58:RasPi_Pins.c  ****         case IO_25:
  59:RasPi_Pins.c  ****             IO_25_Write(value);
 172              		.loc 1 59 0
 173 010a BB79     		ldrb	r3, [r7, #6]	@ zero_extendqisi2
 174 010c 1846     		mov	r0, r3
 175 010e FFF7FEFF 		bl	IO_25_Write
  60:RasPi_Pins.c  ****             break;
 176              		.loc 1 60 0
 177 0112 3BE0     		b	.L2
 178              	.L18:
  61:RasPi_Pins.c  ****         case IO_11:
  62:RasPi_Pins.c  ****             IO_11_Write(value);
 179              		.loc 1 62 0
 180 0114 BB79     		ldrb	r3, [r7, #6]	@ zero_extendqisi2
 181 0116 1846     		mov	r0, r3
 182 0118 FFF7FEFF 		bl	IO_11_Write
  63:RasPi_Pins.c  ****             break;
 183              		.loc 1 63 0
 184 011c 36E0     		b	.L2
 185              	.L19:
  64:RasPi_Pins.c  ****         case IO_8:
  65:RasPi_Pins.c  ****             IO_8_Write(value);
 186              		.loc 1 65 0
 187 011e BB79     		ldrb	r3, [r7, #6]	@ zero_extendqisi2
 188 0120 1846     		mov	r0, r3
 189 0122 FFF7FEFF 		bl	IO_8_Write
  66:RasPi_Pins.c  ****             break;
 190              		.loc 1 66 0
 191 0126 31E0     		b	.L2
 192              	.L20:
  67:RasPi_Pins.c  ****         case IO_7:
  68:RasPi_Pins.c  ****             IO_7_Write(value);
 193              		.loc 1 68 0
 194 0128 BB79     		ldrb	r3, [r7, #6]	@ zero_extendqisi2
 195 012a 1846     		mov	r0, r3
 196 012c FFF7FEFF 		bl	IO_7_Write
  69:RasPi_Pins.c  ****             break;
 197              		.loc 1 69 0
 198 0130 2CE0     		b	.L2
 199              	.L21:
  70:RasPi_Pins.c  ****         case IO_5:
  71:RasPi_Pins.c  ****             IO_5_Write(value);
 200              		.loc 1 71 0
 201 0132 BB79     		ldrb	r3, [r7, #6]	@ zero_extendqisi2
 202 0134 1846     		mov	r0, r3
 203 0136 FFF7FEFF 		bl	IO_5_Write
  72:RasPi_Pins.c  ****             break;
 204              		.loc 1 72 0
 205 013a 27E0     		b	.L2
 206              	.L22:
  73:RasPi_Pins.c  ****         case IO_6:
  74:RasPi_Pins.c  ****             IO_6_Write(value);
 207              		.loc 1 74 0
 208 013c BB79     		ldrb	r3, [r7, #6]	@ zero_extendqisi2
 209 013e 1846     		mov	r0, r3
 210 0140 FFF7FEFF 		bl	IO_6_Write
  75:RasPi_Pins.c  ****             break;
ARM GAS  C:\Users\HPz420\AppData\Local\Temp\ccoBt7Wn.s 			page 6


 211              		.loc 1 75 0
 212 0144 22E0     		b	.L2
 213              	.L23:
  76:RasPi_Pins.c  ****         case IO_12:
  77:RasPi_Pins.c  ****             IO_12_Write(value);
 214              		.loc 1 77 0
 215 0146 BB79     		ldrb	r3, [r7, #6]	@ zero_extendqisi2
 216 0148 1846     		mov	r0, r3
 217 014a FFF7FEFF 		bl	IO_12_Write
  78:RasPi_Pins.c  ****             break;
 218              		.loc 1 78 0
 219 014e 1DE0     		b	.L2
 220              	.L24:
  79:RasPi_Pins.c  ****         case IO_13:
  80:RasPi_Pins.c  ****             IO_13_Write(value);
 221              		.loc 1 80 0
 222 0150 BB79     		ldrb	r3, [r7, #6]	@ zero_extendqisi2
 223 0152 1846     		mov	r0, r3
 224 0154 FFF7FEFF 		bl	IO_13_Write
  81:RasPi_Pins.c  ****             break;
 225              		.loc 1 81 0
 226 0158 18E0     		b	.L2
 227              	.L25:
  82:RasPi_Pins.c  ****         case IO_19:
  83:RasPi_Pins.c  ****             IO_19_Write(value);
 228              		.loc 1 83 0
 229 015a BB79     		ldrb	r3, [r7, #6]	@ zero_extendqisi2
 230 015c 1846     		mov	r0, r3
 231 015e FFF7FEFF 		bl	IO_19_Write
  84:RasPi_Pins.c  ****             break;
 232              		.loc 1 84 0
 233 0162 13E0     		b	.L2
 234              	.L26:
  85:RasPi_Pins.c  ****         case IO_16:
  86:RasPi_Pins.c  ****             IO_16_Write(value);
 235              		.loc 1 86 0
 236 0164 BB79     		ldrb	r3, [r7, #6]	@ zero_extendqisi2
 237 0166 1846     		mov	r0, r3
 238 0168 FFF7FEFF 		bl	IO_16_Write
  87:RasPi_Pins.c  ****             break;
 239              		.loc 1 87 0
 240 016c 0EE0     		b	.L2
 241              	.L27:
  88:RasPi_Pins.c  ****         case IO_26:
  89:RasPi_Pins.c  ****             IO_26_Write(value);
 242              		.loc 1 89 0
 243 016e BB79     		ldrb	r3, [r7, #6]	@ zero_extendqisi2
 244 0170 1846     		mov	r0, r3
 245 0172 FFF7FEFF 		bl	IO_26_Write
  90:RasPi_Pins.c  ****             break;
 246              		.loc 1 90 0
 247 0176 09E0     		b	.L2
 248              	.L28:
  91:RasPi_Pins.c  ****         case IO_20:
  92:RasPi_Pins.c  ****             IO_20_Write(value);
 249              		.loc 1 92 0
 250 0178 BB79     		ldrb	r3, [r7, #6]	@ zero_extendqisi2
ARM GAS  C:\Users\HPz420\AppData\Local\Temp\ccoBt7Wn.s 			page 7


 251 017a 1846     		mov	r0, r3
 252 017c FFF7FEFF 		bl	IO_20_Write
  93:RasPi_Pins.c  ****             break;
 253              		.loc 1 93 0
 254 0180 04E0     		b	.L2
 255              	.L29:
  94:RasPi_Pins.c  ****         case IO_21:
  95:RasPi_Pins.c  ****             IO_21_Write(value);
 256              		.loc 1 95 0
 257 0182 BB79     		ldrb	r3, [r7, #6]	@ zero_extendqisi2
 258 0184 1846     		mov	r0, r3
 259 0186 FFF7FEFF 		bl	IO_21_Write
  96:RasPi_Pins.c  ****             break;
 260              		.loc 1 96 0
 261 018a 00BF     		nop
 262              	.L2:
 263              	.L30:
  97:RasPi_Pins.c  ****         }
  98:RasPi_Pins.c  **** }
 264              		.loc 1 98 0
 265 018c 00BF     		nop
 266 018e 0837     		adds	r7, r7, #8
 267              		.cfi_def_cfa_offset 8
 268 0190 BD46     		mov	sp, r7
 269              		.cfi_def_cfa_register 13
 270              		@ sp needed
 271 0192 80BD     		pop	{r7, pc}
 272              		.cfi_endproc
 273              	.LFE63:
 274              		.size	setRasPiPinValue, .-setRasPiPinValue
 275              		.section	.text.setRasPiPinDrive,"ax",%progbits
 276              		.align	2
 277              		.global	setRasPiPinDrive
 278              		.thumb
 279              		.thumb_func
 280              		.type	setRasPiPinDrive, %function
 281              	setRasPiPinDrive:
 282              	.LFB64:
  99:RasPi_Pins.c  **** 
 100:RasPi_Pins.c  **** // PIN_DM_STRONG
 101:RasPi_Pins.c  **** 
 102:RasPi_Pins.c  **** void setRasPiPinDrive(uint8 bcmPinNum, uint8 value)
 103:RasPi_Pins.c  **** {
 283              		.loc 1 103 0
 284              		.cfi_startproc
 285              		@ args = 0, pretend = 0, frame = 8
 286              		@ frame_needed = 1, uses_anonymous_args = 0
 287 0000 80B5     		push	{r7, lr}
 288              		.cfi_def_cfa_offset 8
 289              		.cfi_offset 7, -8
 290              		.cfi_offset 14, -4
 291 0002 82B0     		sub	sp, sp, #8
 292              		.cfi_def_cfa_offset 16
 293 0004 00AF     		add	r7, sp, #0
 294              		.cfi_def_cfa_register 7
 295 0006 0346     		mov	r3, r0
 296 0008 0A46     		mov	r2, r1
ARM GAS  C:\Users\HPz420\AppData\Local\Temp\ccoBt7Wn.s 			page 8


 297 000a FB71     		strb	r3, [r7, #7]
 298 000c 1346     		mov	r3, r2
 299 000e BB71     		strb	r3, [r7, #6]
 104:RasPi_Pins.c  ****     switch (bcmPinNum)
 300              		.loc 1 104 0
 301 0010 FB79     		ldrb	r3, [r7, #7]	@ zero_extendqisi2
 302 0012 192B     		cmp	r3, #25
 303 0014 00F2BA80 		bhi	.L60
 304 0018 01A2     		adr	r2, .L34
 305 001a 52F823F0 		ldr	pc, [r2, r3, lsl #2]
 306 001e 00BF     		.p2align 2
 307              	.L34:
 308 0020 89000000 		.word	.L33+1
 309 0024 93000000 		.word	.L35+1
 310 0028 9D000000 		.word	.L36+1
 311 002c A7000000 		.word	.L37+1
 312 0030 B1000000 		.word	.L38+1
 313 0034 BB000000 		.word	.L39+1
 314 0038 C5000000 		.word	.L40+1
 315 003c CF000000 		.word	.L41+1
 316 0040 D9000000 		.word	.L42+1
 317 0044 E3000000 		.word	.L43+1
 318 0048 ED000000 		.word	.L44+1
 319 004c F7000000 		.word	.L45+1
 320 0050 01010000 		.word	.L46+1
 321 0054 0B010000 		.word	.L47+1
 322 0058 15010000 		.word	.L48+1
 323 005c 1F010000 		.word	.L49+1
 324 0060 29010000 		.word	.L50+1
 325 0064 33010000 		.word	.L51+1
 326 0068 3D010000 		.word	.L52+1
 327 006c 47010000 		.word	.L53+1
 328 0070 51010000 		.word	.L54+1
 329 0074 5B010000 		.word	.L55+1
 330 0078 65010000 		.word	.L56+1
 331 007c 6F010000 		.word	.L57+1
 332 0080 79010000 		.word	.L58+1
 333 0084 83010000 		.word	.L59+1
 334              		.p2align 1
 335              	.L33:
 105:RasPi_Pins.c  ****     {
 106:RasPi_Pins.c  ****         case IO_2:
 107:RasPi_Pins.c  ****             IO_2_SetDriveMode(value);
 336              		.loc 1 107 0
 337 0088 BB79     		ldrb	r3, [r7, #6]	@ zero_extendqisi2
 338 008a 1846     		mov	r0, r3
 339 008c FFF7FEFF 		bl	IO_2_SetDriveMode
 108:RasPi_Pins.c  ****             break;
 340              		.loc 1 108 0
 341 0090 7CE0     		b	.L32
 342              	.L35:
 109:RasPi_Pins.c  ****         case IO_3:
 110:RasPi_Pins.c  ****             IO_3_SetDriveMode(value);
 343              		.loc 1 110 0
 344 0092 BB79     		ldrb	r3, [r7, #6]	@ zero_extendqisi2
 345 0094 1846     		mov	r0, r3
 346 0096 FFF7FEFF 		bl	IO_3_SetDriveMode
ARM GAS  C:\Users\HPz420\AppData\Local\Temp\ccoBt7Wn.s 			page 9


 111:RasPi_Pins.c  ****             break;
 347              		.loc 1 111 0
 348 009a 77E0     		b	.L32
 349              	.L36:
 112:RasPi_Pins.c  ****         case IO_4:
 113:RasPi_Pins.c  ****             IO_4_SetDriveMode(value);
 350              		.loc 1 113 0
 351 009c BB79     		ldrb	r3, [r7, #6]	@ zero_extendqisi2
 352 009e 1846     		mov	r0, r3
 353 00a0 FFF7FEFF 		bl	IO_4_SetDriveMode
 114:RasPi_Pins.c  ****             break;
 354              		.loc 1 114 0
 355 00a4 72E0     		b	.L32
 356              	.L37:
 115:RasPi_Pins.c  ****         case IO_14:
 116:RasPi_Pins.c  ****             IO_14_SetDriveMode(value);
 357              		.loc 1 116 0
 358 00a6 BB79     		ldrb	r3, [r7, #6]	@ zero_extendqisi2
 359 00a8 1846     		mov	r0, r3
 360 00aa FFF7FEFF 		bl	IO_14_SetDriveMode
 117:RasPi_Pins.c  ****             break;
 361              		.loc 1 117 0
 362 00ae 6DE0     		b	.L32
 363              	.L38:
 118:RasPi_Pins.c  ****         case IO_15:
 119:RasPi_Pins.c  ****             IO_14_SetDriveMode(value);
 364              		.loc 1 119 0
 365 00b0 BB79     		ldrb	r3, [r7, #6]	@ zero_extendqisi2
 366 00b2 1846     		mov	r0, r3
 367 00b4 FFF7FEFF 		bl	IO_14_SetDriveMode
 120:RasPi_Pins.c  ****             break;
 368              		.loc 1 120 0
 369 00b8 68E0     		b	.L32
 370              	.L39:
 121:RasPi_Pins.c  ****         case IO_17:
 122:RasPi_Pins.c  ****             IO_17_SetDriveMode(value);
 371              		.loc 1 122 0
 372 00ba BB79     		ldrb	r3, [r7, #6]	@ zero_extendqisi2
 373 00bc 1846     		mov	r0, r3
 374 00be FFF7FEFF 		bl	IO_17_SetDriveMode
 123:RasPi_Pins.c  ****             break;
 375              		.loc 1 123 0
 376 00c2 63E0     		b	.L32
 377              	.L40:
 124:RasPi_Pins.c  ****         case IO_18:
 125:RasPi_Pins.c  ****             IO_18_SetDriveMode(value);
 378              		.loc 1 125 0
 379 00c4 BB79     		ldrb	r3, [r7, #6]	@ zero_extendqisi2
 380 00c6 1846     		mov	r0, r3
 381 00c8 FFF7FEFF 		bl	IO_18_SetDriveMode
 126:RasPi_Pins.c  ****             break;
 382              		.loc 1 126 0
 383 00cc 5EE0     		b	.L32
 384              	.L41:
 127:RasPi_Pins.c  ****         case IO_27:
 128:RasPi_Pins.c  ****             IO_27_SetDriveMode(value);
 385              		.loc 1 128 0
ARM GAS  C:\Users\HPz420\AppData\Local\Temp\ccoBt7Wn.s 			page 10


 386 00ce BB79     		ldrb	r3, [r7, #6]	@ zero_extendqisi2
 387 00d0 1846     		mov	r0, r3
 388 00d2 FFF7FEFF 		bl	IO_27_SetDriveMode
 129:RasPi_Pins.c  ****             break;
 389              		.loc 1 129 0
 390 00d6 59E0     		b	.L32
 391              	.L42:
 130:RasPi_Pins.c  ****         case IO_22:
 131:RasPi_Pins.c  ****             IO_22_SetDriveMode(value);
 392              		.loc 1 131 0
 393 00d8 BB79     		ldrb	r3, [r7, #6]	@ zero_extendqisi2
 394 00da 1846     		mov	r0, r3
 395 00dc FFF7FEFF 		bl	IO_22_SetDriveMode
 132:RasPi_Pins.c  ****             break;
 396              		.loc 1 132 0
 397 00e0 54E0     		b	.L32
 398              	.L43:
 133:RasPi_Pins.c  ****         case IO_23:
 134:RasPi_Pins.c  ****             IO_23_SetDriveMode(value);
 399              		.loc 1 134 0
 400 00e2 BB79     		ldrb	r3, [r7, #6]	@ zero_extendqisi2
 401 00e4 1846     		mov	r0, r3
 402 00e6 FFF7FEFF 		bl	IO_23_SetDriveMode
 135:RasPi_Pins.c  ****             break;
 403              		.loc 1 135 0
 404 00ea 4FE0     		b	.L32
 405              	.L44:
 136:RasPi_Pins.c  ****         case IO_24:
 137:RasPi_Pins.c  ****             IO_24_SetDriveMode(value);
 406              		.loc 1 137 0
 407 00ec BB79     		ldrb	r3, [r7, #6]	@ zero_extendqisi2
 408 00ee 1846     		mov	r0, r3
 409 00f0 FFF7FEFF 		bl	IO_24_SetDriveMode
 138:RasPi_Pins.c  ****             break;
 410              		.loc 1 138 0
 411 00f4 4AE0     		b	.L32
 412              	.L45:
 139:RasPi_Pins.c  ****         case IO_10:
 140:RasPi_Pins.c  ****             IO_10_SetDriveMode(value);
 413              		.loc 1 140 0
 414 00f6 BB79     		ldrb	r3, [r7, #6]	@ zero_extendqisi2
 415 00f8 1846     		mov	r0, r3
 416 00fa FFF7FEFF 		bl	IO_10_SetDriveMode
 141:RasPi_Pins.c  ****             break;
 417              		.loc 1 141 0
 418 00fe 45E0     		b	.L32
 419              	.L46:
 142:RasPi_Pins.c  ****         case IO_9:
 143:RasPi_Pins.c  ****             IO_9_SetDriveMode(value);
 420              		.loc 1 143 0
 421 0100 BB79     		ldrb	r3, [r7, #6]	@ zero_extendqisi2
 422 0102 1846     		mov	r0, r3
 423 0104 FFF7FEFF 		bl	IO_9_SetDriveMode
 144:RasPi_Pins.c  ****             break;
 424              		.loc 1 144 0
 425 0108 40E0     		b	.L32
 426              	.L47:
ARM GAS  C:\Users\HPz420\AppData\Local\Temp\ccoBt7Wn.s 			page 11


 145:RasPi_Pins.c  ****         case IO_25:
 146:RasPi_Pins.c  ****             IO_25_SetDriveMode(value);
 427              		.loc 1 146 0
 428 010a BB79     		ldrb	r3, [r7, #6]	@ zero_extendqisi2
 429 010c 1846     		mov	r0, r3
 430 010e FFF7FEFF 		bl	IO_25_SetDriveMode
 147:RasPi_Pins.c  ****             break;
 431              		.loc 1 147 0
 432 0112 3BE0     		b	.L32
 433              	.L48:
 148:RasPi_Pins.c  ****         case IO_11:
 149:RasPi_Pins.c  ****             IO_11_SetDriveMode(value);
 434              		.loc 1 149 0
 435 0114 BB79     		ldrb	r3, [r7, #6]	@ zero_extendqisi2
 436 0116 1846     		mov	r0, r3
 437 0118 FFF7FEFF 		bl	IO_11_SetDriveMode
 150:RasPi_Pins.c  ****             break;
 438              		.loc 1 150 0
 439 011c 36E0     		b	.L32
 440              	.L49:
 151:RasPi_Pins.c  ****         case IO_8:
 152:RasPi_Pins.c  ****             IO_8_SetDriveMode(value);
 441              		.loc 1 152 0
 442 011e BB79     		ldrb	r3, [r7, #6]	@ zero_extendqisi2
 443 0120 1846     		mov	r0, r3
 444 0122 FFF7FEFF 		bl	IO_8_SetDriveMode
 153:RasPi_Pins.c  ****             break;
 445              		.loc 1 153 0
 446 0126 31E0     		b	.L32
 447              	.L50:
 154:RasPi_Pins.c  ****         case IO_7:
 155:RasPi_Pins.c  ****             IO_7_SetDriveMode(value);
 448              		.loc 1 155 0
 449 0128 BB79     		ldrb	r3, [r7, #6]	@ zero_extendqisi2
 450 012a 1846     		mov	r0, r3
 451 012c FFF7FEFF 		bl	IO_7_SetDriveMode
 156:RasPi_Pins.c  ****             break;
 452              		.loc 1 156 0
 453 0130 2CE0     		b	.L32
 454              	.L51:
 157:RasPi_Pins.c  ****         case IO_5:
 158:RasPi_Pins.c  ****             IO_5_SetDriveMode(value);
 455              		.loc 1 158 0
 456 0132 BB79     		ldrb	r3, [r7, #6]	@ zero_extendqisi2
 457 0134 1846     		mov	r0, r3
 458 0136 FFF7FEFF 		bl	IO_5_SetDriveMode
 159:RasPi_Pins.c  ****             break;
 459              		.loc 1 159 0
 460 013a 27E0     		b	.L32
 461              	.L52:
 160:RasPi_Pins.c  ****         case IO_6:
 161:RasPi_Pins.c  ****             IO_6_SetDriveMode(value);
 462              		.loc 1 161 0
 463 013c BB79     		ldrb	r3, [r7, #6]	@ zero_extendqisi2
 464 013e 1846     		mov	r0, r3
 465 0140 FFF7FEFF 		bl	IO_6_SetDriveMode
 162:RasPi_Pins.c  ****             break;
ARM GAS  C:\Users\HPz420\AppData\Local\Temp\ccoBt7Wn.s 			page 12


 466              		.loc 1 162 0
 467 0144 22E0     		b	.L32
 468              	.L53:
 163:RasPi_Pins.c  ****         case IO_12:
 164:RasPi_Pins.c  ****             IO_12_SetDriveMode(value);
 469              		.loc 1 164 0
 470 0146 BB79     		ldrb	r3, [r7, #6]	@ zero_extendqisi2
 471 0148 1846     		mov	r0, r3
 472 014a FFF7FEFF 		bl	IO_12_SetDriveMode
 165:RasPi_Pins.c  ****             break;
 473              		.loc 1 165 0
 474 014e 1DE0     		b	.L32
 475              	.L54:
 166:RasPi_Pins.c  ****         case IO_13:
 167:RasPi_Pins.c  ****             IO_13_SetDriveMode(value);
 476              		.loc 1 167 0
 477 0150 BB79     		ldrb	r3, [r7, #6]	@ zero_extendqisi2
 478 0152 1846     		mov	r0, r3
 479 0154 FFF7FEFF 		bl	IO_13_SetDriveMode
 168:RasPi_Pins.c  ****             break;
 480              		.loc 1 168 0
 481 0158 18E0     		b	.L32
 482              	.L55:
 169:RasPi_Pins.c  ****         case IO_19:
 170:RasPi_Pins.c  ****             IO_19_SetDriveMode(value);
 483              		.loc 1 170 0
 484 015a BB79     		ldrb	r3, [r7, #6]	@ zero_extendqisi2
 485 015c 1846     		mov	r0, r3
 486 015e FFF7FEFF 		bl	IO_19_SetDriveMode
 171:RasPi_Pins.c  ****             break;
 487              		.loc 1 171 0
 488 0162 13E0     		b	.L32
 489              	.L56:
 172:RasPi_Pins.c  ****         case IO_16:
 173:RasPi_Pins.c  ****             IO_16_SetDriveMode(value);
 490              		.loc 1 173 0
 491 0164 BB79     		ldrb	r3, [r7, #6]	@ zero_extendqisi2
 492 0166 1846     		mov	r0, r3
 493 0168 FFF7FEFF 		bl	IO_16_SetDriveMode
 174:RasPi_Pins.c  ****             break;
 494              		.loc 1 174 0
 495 016c 0EE0     		b	.L32
 496              	.L57:
 175:RasPi_Pins.c  ****         case IO_26:
 176:RasPi_Pins.c  ****             IO_26_SetDriveMode(value);
 497              		.loc 1 176 0
 498 016e BB79     		ldrb	r3, [r7, #6]	@ zero_extendqisi2
 499 0170 1846     		mov	r0, r3
 500 0172 FFF7FEFF 		bl	IO_26_SetDriveMode
 177:RasPi_Pins.c  ****             break;
 501              		.loc 1 177 0
 502 0176 09E0     		b	.L32
 503              	.L58:
 178:RasPi_Pins.c  ****         case IO_20:
 179:RasPi_Pins.c  ****             IO_20_SetDriveMode(value);
 504              		.loc 1 179 0
 505 0178 BB79     		ldrb	r3, [r7, #6]	@ zero_extendqisi2
ARM GAS  C:\Users\HPz420\AppData\Local\Temp\ccoBt7Wn.s 			page 13


 506 017a 1846     		mov	r0, r3
 507 017c FFF7FEFF 		bl	IO_20_SetDriveMode
 180:RasPi_Pins.c  ****             break;
 508              		.loc 1 180 0
 509 0180 04E0     		b	.L32
 510              	.L59:
 181:RasPi_Pins.c  ****         case IO_21:
 182:RasPi_Pins.c  ****             IO_21_SetDriveMode(value);
 511              		.loc 1 182 0
 512 0182 BB79     		ldrb	r3, [r7, #6]	@ zero_extendqisi2
 513 0184 1846     		mov	r0, r3
 514 0186 FFF7FEFF 		bl	IO_21_SetDriveMode
 183:RasPi_Pins.c  ****             break;
 515              		.loc 1 183 0
 516 018a 00BF     		nop
 517              	.L32:
 518              	.L60:
 184:RasPi_Pins.c  ****         }
 185:RasPi_Pins.c  **** }
 519              		.loc 1 185 0
 520 018c 00BF     		nop
 521 018e 0837     		adds	r7, r7, #8
 522              		.cfi_def_cfa_offset 8
 523 0190 BD46     		mov	sp, r7
 524              		.cfi_def_cfa_register 13
 525              		@ sp needed
 526 0192 80BD     		pop	{r7, pc}
 527              		.cfi_endproc
 528              	.LFE64:
 529              		.size	setRasPiPinDrive, .-setRasPiPinDrive
 530              		.text
 531              	.Letext0:
 532              		.file 2 "c:\\program files (x86)\\cypress\\psoc creator\\4.4\\psoc creator\\import\\gnu\\arm\\5.4.
 533              		.file 3 "c:\\program files (x86)\\cypress\\psoc creator\\4.4\\psoc creator\\import\\gnu\\arm\\5.4.
 534              		.file 4 "Generated_Source\\PSoC5/cytypes.h"
 535              		.file 5 "RasPi_Pins.h"
 536              		.file 6 "Generated_Source\\PSoC5/core_cm3.h"