ARM GAS  C:\Users\HPz420\AppData\Local\Temp\ccSAG1WY.s 			page 1


   1              		.syntax unified
   2              		.cpu cortex-m3
   3              		.fpu softvfp
   4              		.eabi_attribute 20, 1
   5              		.eabi_attribute 21, 1
   6              		.eabi_attribute 23, 3
   7              		.eabi_attribute 24, 1
   8              		.eabi_attribute 25, 1
   9              		.eabi_attribute 26, 1
  10              		.eabi_attribute 30, 6
  11              		.eabi_attribute 34, 1
  12              		.eabi_attribute 18, 4
  13              		.thumb
  14              		.syntax unified
  15              		.file	"SPIM_1_PM.c"
  16              		.text
  17              	.Ltext0:
  18              		.cfi_sections	.debug_frame
  19              		.data
  20              		.align	2
  21              		.type	SPIM_1_backup, %object
  22              		.size	SPIM_1_backup, 2
  23              	SPIM_1_backup:
  24 0000 00       		.byte	0
  25 0001 1F       		.byte	31
  26              		.section	.text.SPIM_1_SaveConfig,"ax",%progbits
  27              		.align	2
  28              		.global	SPIM_1_SaveConfig
  29              		.thumb
  30              		.thumb_func
  31              		.type	SPIM_1_SaveConfig, %function
  32              	SPIM_1_SaveConfig:
  33              	.LFB0:
  34              		.file 1 "Generated_Source\\PSoC5\\SPIM_1_PM.c"
   1:Generated_Source\PSoC5/SPIM_1_PM.c **** /*******************************************************************************
   2:Generated_Source\PSoC5/SPIM_1_PM.c **** * File Name: SPIM_1_PM.c
   3:Generated_Source\PSoC5/SPIM_1_PM.c **** * Version 2.50
   4:Generated_Source\PSoC5/SPIM_1_PM.c **** *
   5:Generated_Source\PSoC5/SPIM_1_PM.c **** * Description:
   6:Generated_Source\PSoC5/SPIM_1_PM.c **** *  This file contains the setup, control and status commands to support
   7:Generated_Source\PSoC5/SPIM_1_PM.c **** *  component operations in low power mode.
   8:Generated_Source\PSoC5/SPIM_1_PM.c **** *
   9:Generated_Source\PSoC5/SPIM_1_PM.c **** * Note:
  10:Generated_Source\PSoC5/SPIM_1_PM.c **** *
  11:Generated_Source\PSoC5/SPIM_1_PM.c **** ********************************************************************************
  12:Generated_Source\PSoC5/SPIM_1_PM.c **** * Copyright 2008-2015, Cypress Semiconductor Corporation.  All rights reserved.
  13:Generated_Source\PSoC5/SPIM_1_PM.c **** * You may use this file only in accordance with the license, terms, conditions,
  14:Generated_Source\PSoC5/SPIM_1_PM.c **** * disclaimers, and limitations in the end user license agreement accompanying
  15:Generated_Source\PSoC5/SPIM_1_PM.c **** * the software package with which this file was provided.
  16:Generated_Source\PSoC5/SPIM_1_PM.c **** *******************************************************************************/
  17:Generated_Source\PSoC5/SPIM_1_PM.c **** 
  18:Generated_Source\PSoC5/SPIM_1_PM.c **** #include "SPIM_1_PVT.h"
  19:Generated_Source\PSoC5/SPIM_1_PM.c **** 
  20:Generated_Source\PSoC5/SPIM_1_PM.c **** static SPIM_1_BACKUP_STRUCT SPIM_1_backup =
  21:Generated_Source\PSoC5/SPIM_1_PM.c **** {
  22:Generated_Source\PSoC5/SPIM_1_PM.c ****     SPIM_1_DISABLED,
  23:Generated_Source\PSoC5/SPIM_1_PM.c ****     SPIM_1_BITCTR_INIT,
ARM GAS  C:\Users\HPz420\AppData\Local\Temp\ccSAG1WY.s 			page 2


  24:Generated_Source\PSoC5/SPIM_1_PM.c **** };
  25:Generated_Source\PSoC5/SPIM_1_PM.c **** 
  26:Generated_Source\PSoC5/SPIM_1_PM.c **** 
  27:Generated_Source\PSoC5/SPIM_1_PM.c **** /*******************************************************************************
  28:Generated_Source\PSoC5/SPIM_1_PM.c **** * Function Name: SPIM_1_SaveConfig
  29:Generated_Source\PSoC5/SPIM_1_PM.c **** ********************************************************************************
  30:Generated_Source\PSoC5/SPIM_1_PM.c **** *
  31:Generated_Source\PSoC5/SPIM_1_PM.c **** * Summary:
  32:Generated_Source\PSoC5/SPIM_1_PM.c **** *  Empty function. Included for consistency with other components.
  33:Generated_Source\PSoC5/SPIM_1_PM.c **** *
  34:Generated_Source\PSoC5/SPIM_1_PM.c **** * Parameters:
  35:Generated_Source\PSoC5/SPIM_1_PM.c **** *  None.
  36:Generated_Source\PSoC5/SPIM_1_PM.c **** *
  37:Generated_Source\PSoC5/SPIM_1_PM.c **** * Return:
  38:Generated_Source\PSoC5/SPIM_1_PM.c **** *  None.
  39:Generated_Source\PSoC5/SPIM_1_PM.c **** *
  40:Generated_Source\PSoC5/SPIM_1_PM.c **** *******************************************************************************/
  41:Generated_Source\PSoC5/SPIM_1_PM.c **** void SPIM_1_SaveConfig(void) 
  42:Generated_Source\PSoC5/SPIM_1_PM.c **** {
  35              		.loc 1 42 0
  36              		.cfi_startproc
  37              		@ args = 0, pretend = 0, frame = 0
  38              		@ frame_needed = 1, uses_anonymous_args = 0
  39              		@ link register save eliminated.
  40 0000 80B4     		push	{r7}
  41              		.cfi_def_cfa_offset 4
  42              		.cfi_offset 7, -4
  43 0002 00AF     		add	r7, sp, #0
  44              		.cfi_def_cfa_register 7
  43:Generated_Source\PSoC5/SPIM_1_PM.c **** 
  44:Generated_Source\PSoC5/SPIM_1_PM.c **** }
  45              		.loc 1 44 0
  46 0004 00BF     		nop
  47 0006 BD46     		mov	sp, r7
  48              		.cfi_def_cfa_register 13
  49              		@ sp needed
  50 0008 80BC     		pop	{r7}
  51              		.cfi_restore 7
  52              		.cfi_def_cfa_offset 0
  53 000a 7047     		bx	lr
  54              		.cfi_endproc
  55              	.LFE0:
  56              		.size	SPIM_1_SaveConfig, .-SPIM_1_SaveConfig
  57              		.section	.text.SPIM_1_RestoreConfig,"ax",%progbits
  58              		.align	2
  59              		.global	SPIM_1_RestoreConfig
  60              		.thumb
  61              		.thumb_func
  62              		.type	SPIM_1_RestoreConfig, %function
  63              	SPIM_1_RestoreConfig:
  64              	.LFB1:
  45:Generated_Source\PSoC5/SPIM_1_PM.c **** 
  46:Generated_Source\PSoC5/SPIM_1_PM.c **** 
  47:Generated_Source\PSoC5/SPIM_1_PM.c **** /*******************************************************************************
  48:Generated_Source\PSoC5/SPIM_1_PM.c **** * Function Name: SPIM_1_RestoreConfig
  49:Generated_Source\PSoC5/SPIM_1_PM.c **** ********************************************************************************
  50:Generated_Source\PSoC5/SPIM_1_PM.c **** *
ARM GAS  C:\Users\HPz420\AppData\Local\Temp\ccSAG1WY.s 			page 3


  51:Generated_Source\PSoC5/SPIM_1_PM.c **** * Summary:
  52:Generated_Source\PSoC5/SPIM_1_PM.c **** *  Empty function. Included for consistency with other components.
  53:Generated_Source\PSoC5/SPIM_1_PM.c **** *
  54:Generated_Source\PSoC5/SPIM_1_PM.c **** * Parameters:
  55:Generated_Source\PSoC5/SPIM_1_PM.c **** *  None.
  56:Generated_Source\PSoC5/SPIM_1_PM.c **** *
  57:Generated_Source\PSoC5/SPIM_1_PM.c **** * Return:
  58:Generated_Source\PSoC5/SPIM_1_PM.c **** *  None.
  59:Generated_Source\PSoC5/SPIM_1_PM.c **** *
  60:Generated_Source\PSoC5/SPIM_1_PM.c **** *******************************************************************************/
  61:Generated_Source\PSoC5/SPIM_1_PM.c **** void SPIM_1_RestoreConfig(void) 
  62:Generated_Source\PSoC5/SPIM_1_PM.c **** {
  65              		.loc 1 62 0
  66              		.cfi_startproc
  67              		@ args = 0, pretend = 0, frame = 0
  68              		@ frame_needed = 1, uses_anonymous_args = 0
  69              		@ link register save eliminated.
  70 0000 80B4     		push	{r7}
  71              		.cfi_def_cfa_offset 4
  72              		.cfi_offset 7, -4
  73 0002 00AF     		add	r7, sp, #0
  74              		.cfi_def_cfa_register 7
  63:Generated_Source\PSoC5/SPIM_1_PM.c **** 
  64:Generated_Source\PSoC5/SPIM_1_PM.c **** }
  75              		.loc 1 64 0
  76 0004 00BF     		nop
  77 0006 BD46     		mov	sp, r7
  78              		.cfi_def_cfa_register 13
  79              		@ sp needed
  80 0008 80BC     		pop	{r7}
  81              		.cfi_restore 7
  82              		.cfi_def_cfa_offset 0
  83 000a 7047     		bx	lr
  84              		.cfi_endproc
  85              	.LFE1:
  86              		.size	SPIM_1_RestoreConfig, .-SPIM_1_RestoreConfig
  87              		.section	.text.SPIM_1_Sleep,"ax",%progbits
  88              		.align	2
  89              		.global	SPIM_1_Sleep
  90              		.thumb
  91              		.thumb_func
  92              		.type	SPIM_1_Sleep, %function
  93              	SPIM_1_Sleep:
  94              	.LFB2:
  65:Generated_Source\PSoC5/SPIM_1_PM.c **** 
  66:Generated_Source\PSoC5/SPIM_1_PM.c **** 
  67:Generated_Source\PSoC5/SPIM_1_PM.c **** /*******************************************************************************
  68:Generated_Source\PSoC5/SPIM_1_PM.c **** * Function Name: SPIM_1_Sleep
  69:Generated_Source\PSoC5/SPIM_1_PM.c **** ********************************************************************************
  70:Generated_Source\PSoC5/SPIM_1_PM.c **** *
  71:Generated_Source\PSoC5/SPIM_1_PM.c **** * Summary:
  72:Generated_Source\PSoC5/SPIM_1_PM.c **** *  Prepare SPIM Component goes to sleep.
  73:Generated_Source\PSoC5/SPIM_1_PM.c **** *
  74:Generated_Source\PSoC5/SPIM_1_PM.c **** * Parameters:
  75:Generated_Source\PSoC5/SPIM_1_PM.c **** *  None.
  76:Generated_Source\PSoC5/SPIM_1_PM.c **** *
  77:Generated_Source\PSoC5/SPIM_1_PM.c **** * Return:
ARM GAS  C:\Users\HPz420\AppData\Local\Temp\ccSAG1WY.s 			page 4


  78:Generated_Source\PSoC5/SPIM_1_PM.c **** *  None.
  79:Generated_Source\PSoC5/SPIM_1_PM.c **** *
  80:Generated_Source\PSoC5/SPIM_1_PM.c **** * Global Variables:
  81:Generated_Source\PSoC5/SPIM_1_PM.c **** *  SPIM_1_backup - modified when non-retention registers are saved.
  82:Generated_Source\PSoC5/SPIM_1_PM.c **** *
  83:Generated_Source\PSoC5/SPIM_1_PM.c **** * Reentrant:
  84:Generated_Source\PSoC5/SPIM_1_PM.c **** *  No.
  85:Generated_Source\PSoC5/SPIM_1_PM.c **** *
  86:Generated_Source\PSoC5/SPIM_1_PM.c **** *******************************************************************************/
  87:Generated_Source\PSoC5/SPIM_1_PM.c **** void SPIM_1_Sleep(void) 
  88:Generated_Source\PSoC5/SPIM_1_PM.c **** {
  95              		.loc 1 88 0
  96              		.cfi_startproc
  97              		@ args = 0, pretend = 0, frame = 0
  98              		@ frame_needed = 1, uses_anonymous_args = 0
  99 0000 80B5     		push	{r7, lr}
 100              		.cfi_def_cfa_offset 8
 101              		.cfi_offset 7, -8
 102              		.cfi_offset 14, -4
 103 0002 00AF     		add	r7, sp, #0
 104              		.cfi_def_cfa_register 7
  89:Generated_Source\PSoC5/SPIM_1_PM.c ****     /* Save components enable state */
  90:Generated_Source\PSoC5/SPIM_1_PM.c ****     SPIM_1_backup.enableState = ((uint8) SPIM_1_IS_ENABLED);
 105              		.loc 1 90 0
 106 0004 084B     		ldr	r3, .L4
 107 0006 1B78     		ldrb	r3, [r3]
 108 0008 DBB2     		uxtb	r3, r3
 109 000a 03F01003 		and	r3, r3, #16
 110 000e 002B     		cmp	r3, #0
 111 0010 14BF     		ite	ne
 112 0012 0123     		movne	r3, #1
 113 0014 0023     		moveq	r3, #0
 114 0016 DBB2     		uxtb	r3, r3
 115 0018 1A46     		mov	r2, r3
 116 001a 044B     		ldr	r3, .L4+4
 117 001c 1A70     		strb	r2, [r3]
  91:Generated_Source\PSoC5/SPIM_1_PM.c **** 
  92:Generated_Source\PSoC5/SPIM_1_PM.c ****     SPIM_1_Stop();
 118              		.loc 1 92 0
 119 001e FFF7FEFF 		bl	SPIM_1_Stop
  93:Generated_Source\PSoC5/SPIM_1_PM.c **** }
 120              		.loc 1 93 0
 121 0022 00BF     		nop
 122 0024 80BD     		pop	{r7, pc}
 123              	.L5:
 124 0026 00BF     		.align	2
 125              	.L4:
 126 0028 9B640040 		.word	1073767579
 127 002c 00000000 		.word	SPIM_1_backup
 128              		.cfi_endproc
 129              	.LFE2:
 130              		.size	SPIM_1_Sleep, .-SPIM_1_Sleep
 131              		.section	.text.SPIM_1_Wakeup,"ax",%progbits
 132              		.align	2
 133              		.global	SPIM_1_Wakeup
 134              		.thumb
 135              		.thumb_func
ARM GAS  C:\Users\HPz420\AppData\Local\Temp\ccSAG1WY.s 			page 5


 136              		.type	SPIM_1_Wakeup, %function
 137              	SPIM_1_Wakeup:
 138              	.LFB3:
  94:Generated_Source\PSoC5/SPIM_1_PM.c **** 
  95:Generated_Source\PSoC5/SPIM_1_PM.c **** 
  96:Generated_Source\PSoC5/SPIM_1_PM.c **** /*******************************************************************************
  97:Generated_Source\PSoC5/SPIM_1_PM.c **** * Function Name: SPIM_1_Wakeup
  98:Generated_Source\PSoC5/SPIM_1_PM.c **** ********************************************************************************
  99:Generated_Source\PSoC5/SPIM_1_PM.c **** *
 100:Generated_Source\PSoC5/SPIM_1_PM.c **** * Summary:
 101:Generated_Source\PSoC5/SPIM_1_PM.c **** *  Prepare SPIM Component to wake up.
 102:Generated_Source\PSoC5/SPIM_1_PM.c **** *
 103:Generated_Source\PSoC5/SPIM_1_PM.c **** * Parameters:
 104:Generated_Source\PSoC5/SPIM_1_PM.c **** *  None.
 105:Generated_Source\PSoC5/SPIM_1_PM.c **** *
 106:Generated_Source\PSoC5/SPIM_1_PM.c **** * Return:
 107:Generated_Source\PSoC5/SPIM_1_PM.c **** *  None.
 108:Generated_Source\PSoC5/SPIM_1_PM.c **** *
 109:Generated_Source\PSoC5/SPIM_1_PM.c **** * Global Variables:
 110:Generated_Source\PSoC5/SPIM_1_PM.c **** *  SPIM_1_backup - used when non-retention registers are restored.
 111:Generated_Source\PSoC5/SPIM_1_PM.c **** *  SPIM_1_txBufferWrite - modified every function call - resets to
 112:Generated_Source\PSoC5/SPIM_1_PM.c **** *  zero.
 113:Generated_Source\PSoC5/SPIM_1_PM.c **** *  SPIM_1_txBufferRead - modified every function call - resets to
 114:Generated_Source\PSoC5/SPIM_1_PM.c **** *  zero.
 115:Generated_Source\PSoC5/SPIM_1_PM.c **** *  SPIM_1_rxBufferWrite - modified every function call - resets to
 116:Generated_Source\PSoC5/SPIM_1_PM.c **** *  zero.
 117:Generated_Source\PSoC5/SPIM_1_PM.c **** *  SPIM_1_rxBufferRead - modified every function call - resets to
 118:Generated_Source\PSoC5/SPIM_1_PM.c **** *  zero.
 119:Generated_Source\PSoC5/SPIM_1_PM.c **** *
 120:Generated_Source\PSoC5/SPIM_1_PM.c **** * Reentrant:
 121:Generated_Source\PSoC5/SPIM_1_PM.c **** *  No.
 122:Generated_Source\PSoC5/SPIM_1_PM.c **** *
 123:Generated_Source\PSoC5/SPIM_1_PM.c **** *******************************************************************************/
 124:Generated_Source\PSoC5/SPIM_1_PM.c **** void SPIM_1_Wakeup(void) 
 125:Generated_Source\PSoC5/SPIM_1_PM.c **** {
 139              		.loc 1 125 0
 140              		.cfi_startproc
 141              		@ args = 0, pretend = 0, frame = 0
 142              		@ frame_needed = 1, uses_anonymous_args = 0
 143 0000 80B5     		push	{r7, lr}
 144              		.cfi_def_cfa_offset 8
 145              		.cfi_offset 7, -8
 146              		.cfi_offset 14, -4
 147 0002 00AF     		add	r7, sp, #0
 148              		.cfi_def_cfa_register 7
 126:Generated_Source\PSoC5/SPIM_1_PM.c ****     #if(SPIM_1_RX_SOFTWARE_BUF_ENABLED)
 127:Generated_Source\PSoC5/SPIM_1_PM.c ****         SPIM_1_rxBufferFull  = 0u;
 128:Generated_Source\PSoC5/SPIM_1_PM.c ****         SPIM_1_rxBufferRead  = 0u;
 129:Generated_Source\PSoC5/SPIM_1_PM.c ****         SPIM_1_rxBufferWrite = 0u;
 130:Generated_Source\PSoC5/SPIM_1_PM.c ****     #endif /* (SPIM_1_RX_SOFTWARE_BUF_ENABLED) */
 131:Generated_Source\PSoC5/SPIM_1_PM.c **** 
 132:Generated_Source\PSoC5/SPIM_1_PM.c ****     #if(SPIM_1_TX_SOFTWARE_BUF_ENABLED)
 133:Generated_Source\PSoC5/SPIM_1_PM.c ****         SPIM_1_txBufferFull  = 0u;
 134:Generated_Source\PSoC5/SPIM_1_PM.c ****         SPIM_1_txBufferRead  = 0u;
 135:Generated_Source\PSoC5/SPIM_1_PM.c ****         SPIM_1_txBufferWrite = 0u;
 136:Generated_Source\PSoC5/SPIM_1_PM.c ****     #endif /* (SPIM_1_TX_SOFTWARE_BUF_ENABLED) */
 137:Generated_Source\PSoC5/SPIM_1_PM.c **** 
ARM GAS  C:\Users\HPz420\AppData\Local\Temp\ccSAG1WY.s 			page 6


 138:Generated_Source\PSoC5/SPIM_1_PM.c ****     /* Clear any data from the RX and TX FIFO */
 139:Generated_Source\PSoC5/SPIM_1_PM.c ****     SPIM_1_ClearFIFO();
 149              		.loc 1 139 0
 150 0004 FFF7FEFF 		bl	SPIM_1_ClearFIFO
 140:Generated_Source\PSoC5/SPIM_1_PM.c **** 
 141:Generated_Source\PSoC5/SPIM_1_PM.c ****     /* Restore components block enable state */
 142:Generated_Source\PSoC5/SPIM_1_PM.c ****     if(0u != SPIM_1_backup.enableState)
 151              		.loc 1 142 0
 152 0008 034B     		ldr	r3, .L9
 153 000a 1B78     		ldrb	r3, [r3]	@ zero_extendqisi2
 154 000c 002B     		cmp	r3, #0
 155 000e 01D0     		beq	.L8
 143:Generated_Source\PSoC5/SPIM_1_PM.c ****     {
 144:Generated_Source\PSoC5/SPIM_1_PM.c ****         SPIM_1_Enable();
 156              		.loc 1 144 0
 157 0010 FFF7FEFF 		bl	SPIM_1_Enable
 158              	.L8:
 145:Generated_Source\PSoC5/SPIM_1_PM.c ****     }
 146:Generated_Source\PSoC5/SPIM_1_PM.c **** }
 159              		.loc 1 146 0
 160 0014 00BF     		nop
 161 0016 80BD     		pop	{r7, pc}
 162              	.L10:
 163              		.align	2
 164              	.L9:
 165 0018 00000000 		.word	SPIM_1_backup
 166              		.cfi_endproc
 167              	.LFE3:
 168              		.size	SPIM_1_Wakeup, .-SPIM_1_Wakeup
 169              		.text
 170              	.Letext0:
 171              		.file 2 "Generated_Source\\PSoC5\\cytypes.h"
 172              		.file 3 "Generated_Source\\PSoC5\\SPIM_1.h"