ARM GAS  C:\Users\HPz420\AppData\Local\Temp\ccrOzcYa.s 			page 1


   1              		.syntax unified
   2              		.cpu cortex-m3
   3              		.fpu softvfp
   4              		.eabi_attribute 20, 1
   5              		.eabi_attribute 21, 1
   6              		.eabi_attribute 23, 3
   7              		.eabi_attribute 24, 1
   8              		.eabi_attribute 25, 1
   9              		.eabi_attribute 26, 1
  10              		.eabi_attribute 30, 6
  11              		.eabi_attribute 34, 1
  12              		.eabi_attribute 18, 4
  13              		.thumb
  14              		.syntax unified
  15              		.file	"Test_RPI_SPI8.c"
  16              		.text
  17              	.Ltext0:
  18              		.cfi_sections	.debug_frame
  19              		.section	.text.testRPISPI8,"ax",%progbits
  20              		.align	2
  21              		.global	testRPISPI8
  22              		.thumb
  23              		.thumb_func
  24              		.type	testRPISPI8, %function
  25              	testRPISPI8:
  26              	.LFB63:
  27              		.file 1 "Test_RPI_SPI8.c"
   1:Test_RPI_SPI8.c **** /* ========================================
   2:Test_RPI_SPI8.c ****  *
   3:Test_RPI_SPI8.c ****  * Copyright LAND BOARDS, LLC, 2019
   4:Test_RPI_SPI8.c ****  * All Rights Reserved
   5:Test_RPI_SPI8.c ****  * UNPUBLISHED, LICENSED SOFTWARE.
   6:Test_RPI_SPI8.c ****  *
   7:Test_RPI_SPI8.c ****  * CONFIDENTIAL AND PROPRIETARY INFORMATION
   8:Test_RPI_SPI8.c ****  * WHICH IS THE PROPERTY OF Land Boards.
   9:Test_RPI_SPI8.c ****  *
  10:Test_RPI_SPI8.c ****  * ========================================
  11:Test_RPI_SPI8.c **** */
  12:Test_RPI_SPI8.c **** 
  13:Test_RPI_SPI8.c **** #include <project.h>
  14:Test_RPI_SPI8.c **** #include "RPI_PSOC5.h"
  15:Test_RPI_SPI8.c **** 
  16:Test_RPI_SPI8.c **** #define LED_ON 1
  17:Test_RPI_SPI8.c **** #define LED_OFF 0
  18:Test_RPI_SPI8.c **** 
  19:Test_RPI_SPI8.c **** 
  20:Test_RPI_SPI8.c **** void testRPISPI8(void)
  21:Test_RPI_SPI8.c **** {
  28              		.loc 1 21 0
  29              		.cfi_startproc
  30              		@ args = 0, pretend = 0, frame = 0
  31              		@ frame_needed = 1, uses_anonymous_args = 0
  32 0000 80B5     		push	{r7, lr}
  33              		.cfi_def_cfa_offset 8
  34              		.cfi_offset 7, -8
  35              		.cfi_offset 14, -4
  36 0002 00AF     		add	r7, sp, #0
ARM GAS  C:\Users\HPz420\AppData\Local\Temp\ccrOzcYa.s 			page 2


  37              		.cfi_def_cfa_register 7
  22:Test_RPI_SPI8.c ****     clearReceiveBuffer();
  38              		.loc 1 22 0
  39 0004 FFF7FEFF 		bl	clearReceiveBuffer
  23:Test_RPI_SPI8.c **** // Set all of the RPI pins to outputs
  24:Test_RPI_SPI8.c ****     setRasPiPinValue(IO_9,PIN_DM_STRONG);   // SPIMISO 
  40              		.loc 1 24 0
  41 0008 0C21     		movs	r1, #12
  42 000a 0C20     		movs	r0, #12
  43 000c FFF7FEFF 		bl	setRasPiPinValue
  25:Test_RPI_SPI8.c ****     setRasPiPinValue(IO_10,PIN_DM_STRONG);  // SPIMOSI
  44              		.loc 1 25 0
  45 0010 0C21     		movs	r1, #12
  46 0012 0B20     		movs	r0, #11
  47 0014 FFF7FEFF 		bl	setRasPiPinValue
  26:Test_RPI_SPI8.c ****     setRasPiPinValue(IO_11,PIN_DM_STRONG);  // SPISCK
  48              		.loc 1 26 0
  49 0018 0C21     		movs	r1, #12
  50 001a 0E20     		movs	r0, #14
  51 001c FFF7FEFF 		bl	setRasPiPinValue
  27:Test_RPI_SPI8.c ****     setRasPiPinValue(IO_8,PIN_DM_STRONG);   // SPICE0
  52              		.loc 1 27 0
  53 0020 0C21     		movs	r1, #12
  54 0022 0F20     		movs	r0, #15
  55 0024 FFF7FEFF 		bl	setRasPiPinValue
  28:Test_RPI_SPI8.c ****     setRasPiPinValue(IO_22,PIN_DM_STRONG);  // A0
  56              		.loc 1 28 0
  57 0028 0C21     		movs	r1, #12
  58 002a 0820     		movs	r0, #8
  59 002c FFF7FEFF 		bl	setRasPiPinValue
  29:Test_RPI_SPI8.c ****     setRasPiPinValue(IO_27,PIN_DM_STRONG);  // A1
  60              		.loc 1 29 0
  61 0030 0C21     		movs	r1, #12
  62 0032 0720     		movs	r0, #7
  63 0034 FFF7FEFF 		bl	setRasPiPinValue
  30:Test_RPI_SPI8.c ****     setRasPiPinValue(IO_17,PIN_DM_STRONG);  // A2
  64              		.loc 1 30 0
  65 0038 0C21     		movs	r1, #12
  66 003a 0520     		movs	r0, #5
  67 003c FFF7FEFF 		bl	setRasPiPinValue
  31:Test_RPI_SPI8.c ****     
  32:Test_RPI_SPI8.c **** // Set all of the RPI pins to low
  33:Test_RPI_SPI8.c ****     setRasPiPinValue(IO_9,LED_ON);          // SPIMISO 
  68              		.loc 1 33 0
  69 0040 0121     		movs	r1, #1
  70 0042 0C20     		movs	r0, #12
  71 0044 FFF7FEFF 		bl	setRasPiPinValue
  34:Test_RPI_SPI8.c ****     setRasPiPinValue(IO_10,LED_ON);         // SPIMOSI
  72              		.loc 1 34 0
  73 0048 0121     		movs	r1, #1
  74 004a 0B20     		movs	r0, #11
  75 004c FFF7FEFF 		bl	setRasPiPinValue
  35:Test_RPI_SPI8.c ****     setRasPiPinValue(IO_11,LED_ON);         // SPISCK
  76              		.loc 1 35 0
  77 0050 0121     		movs	r1, #1
  78 0052 0E20     		movs	r0, #14
  79 0054 FFF7FEFF 		bl	setRasPiPinValue
ARM GAS  C:\Users\HPz420\AppData\Local\Temp\ccrOzcYa.s 			page 3


  36:Test_RPI_SPI8.c ****     setRasPiPinValue(IO_8,LED_OFF);         // SPICE0
  80              		.loc 1 36 0
  81 0058 0021     		movs	r1, #0
  82 005a 0F20     		movs	r0, #15
  83 005c FFF7FEFF 		bl	setRasPiPinValue
  37:Test_RPI_SPI8.c ****     setRasPiPinValue(IO_22,LED_OFF);        // A0
  84              		.loc 1 37 0
  85 0060 0021     		movs	r1, #0
  86 0062 0820     		movs	r0, #8
  87 0064 FFF7FEFF 		bl	setRasPiPinValue
  38:Test_RPI_SPI8.c ****     setRasPiPinValue(IO_27,LED_OFF);        // A1
  88              		.loc 1 38 0
  89 0068 0021     		movs	r1, #0
  90 006a 0720     		movs	r0, #7
  91 006c FFF7FEFF 		bl	setRasPiPinValue
  39:Test_RPI_SPI8.c ****     setRasPiPinValue(IO_17,LED_OFF);        // A2
  92              		.loc 1 39 0
  93 0070 0021     		movs	r1, #0
  94 0072 0520     		movs	r0, #5
  95 0074 FFF7FEFF 		bl	setRasPiPinValue
  96              	.L4:
  40:Test_RPI_SPI8.c ****     
  41:Test_RPI_SPI8.c **** // Blink all of the LEDs one at a time forever
  42:Test_RPI_SPI8.c **** // Hit ENTER to exit
  43:Test_RPI_SPI8.c **** 
  44:Test_RPI_SPI8.c ****     while (1)
  45:Test_RPI_SPI8.c ****     {
  46:Test_RPI_SPI8.c ****         setRasPiPinValue(IO_8,LED_OFF);     // SPICE0
  97              		.loc 1 46 0
  98 0078 0021     		movs	r1, #0
  99 007a 0F20     		movs	r0, #15
 100 007c FFF7FEFF 		bl	setRasPiPinValue
  47:Test_RPI_SPI8.c ****         
  48:Test_RPI_SPI8.c ****         setRasPiPinValue(IO_22,LED_OFF);    // A0
 101              		.loc 1 48 0
 102 0080 0021     		movs	r1, #0
 103 0082 0820     		movs	r0, #8
 104 0084 FFF7FEFF 		bl	setRasPiPinValue
  49:Test_RPI_SPI8.c ****         setRasPiPinValue(IO_27,LED_OFF);    // A1
 105              		.loc 1 49 0
 106 0088 0021     		movs	r1, #0
 107 008a 0720     		movs	r0, #7
 108 008c FFF7FEFF 		bl	setRasPiPinValue
  50:Test_RPI_SPI8.c ****         setRasPiPinValue(IO_17,LED_OFF);    // A2
 109              		.loc 1 50 0
 110 0090 0021     		movs	r1, #0
 111 0092 0520     		movs	r0, #5
 112 0094 FFF7FEFF 		bl	setRasPiPinValue
  51:Test_RPI_SPI8.c ****         CyDelay(500);
 113              		.loc 1 51 0
 114 0098 4FF4FA70 		mov	r0, #500
 115 009c FFF7FEFF 		bl	CyDelay
  52:Test_RPI_SPI8.c ****         
  53:Test_RPI_SPI8.c ****         setRasPiPinValue(IO_22,LED_ON);     // A0
 116              		.loc 1 53 0
 117 00a0 0121     		movs	r1, #1
 118 00a2 0820     		movs	r0, #8
ARM GAS  C:\Users\HPz420\AppData\Local\Temp\ccrOzcYa.s 			page 4


 119 00a4 FFF7FEFF 		bl	setRasPiPinValue
  54:Test_RPI_SPI8.c ****         setRasPiPinValue(IO_27,LED_OFF);    // A1
 120              		.loc 1 54 0
 121 00a8 0021     		movs	r1, #0
 122 00aa 0720     		movs	r0, #7
 123 00ac FFF7FEFF 		bl	setRasPiPinValue
  55:Test_RPI_SPI8.c ****         setRasPiPinValue(IO_17,LED_OFF);    // A2
 124              		.loc 1 55 0
 125 00b0 0021     		movs	r1, #0
 126 00b2 0520     		movs	r0, #5
 127 00b4 FFF7FEFF 		bl	setRasPiPinValue
  56:Test_RPI_SPI8.c ****         CyDelay(500);
 128              		.loc 1 56 0
 129 00b8 4FF4FA70 		mov	r0, #500
 130 00bc FFF7FEFF 		bl	CyDelay
  57:Test_RPI_SPI8.c ****         
  58:Test_RPI_SPI8.c ****         setRasPiPinValue(IO_22,LED_OFF);    // A0
 131              		.loc 1 58 0
 132 00c0 0021     		movs	r1, #0
 133 00c2 0820     		movs	r0, #8
 134 00c4 FFF7FEFF 		bl	setRasPiPinValue
  59:Test_RPI_SPI8.c ****         setRasPiPinValue(IO_27,LED_ON);     // A1
 135              		.loc 1 59 0
 136 00c8 0121     		movs	r1, #1
 137 00ca 0720     		movs	r0, #7
 138 00cc FFF7FEFF 		bl	setRasPiPinValue
  60:Test_RPI_SPI8.c ****         setRasPiPinValue(IO_17,LED_OFF);    // A2
 139              		.loc 1 60 0
 140 00d0 0021     		movs	r1, #0
 141 00d2 0520     		movs	r0, #5
 142 00d4 FFF7FEFF 		bl	setRasPiPinValue
  61:Test_RPI_SPI8.c ****         CyDelay(500);
 143              		.loc 1 61 0
 144 00d8 4FF4FA70 		mov	r0, #500
 145 00dc FFF7FEFF 		bl	CyDelay
  62:Test_RPI_SPI8.c ****         
  63:Test_RPI_SPI8.c ****         setRasPiPinValue(IO_22,LED_ON);     // A0
 146              		.loc 1 63 0
 147 00e0 0121     		movs	r1, #1
 148 00e2 0820     		movs	r0, #8
 149 00e4 FFF7FEFF 		bl	setRasPiPinValue
  64:Test_RPI_SPI8.c ****         setRasPiPinValue(IO_27,LED_ON);     // A1
 150              		.loc 1 64 0
 151 00e8 0121     		movs	r1, #1
 152 00ea 0720     		movs	r0, #7
 153 00ec FFF7FEFF 		bl	setRasPiPinValue
  65:Test_RPI_SPI8.c ****         setRasPiPinValue(IO_17,LED_OFF);    // A2
 154              		.loc 1 65 0
 155 00f0 0021     		movs	r1, #0
 156 00f2 0520     		movs	r0, #5
 157 00f4 FFF7FEFF 		bl	setRasPiPinValue
  66:Test_RPI_SPI8.c ****         CyDelay(500);
 158              		.loc 1 66 0
 159 00f8 4FF4FA70 		mov	r0, #500
 160 00fc FFF7FEFF 		bl	CyDelay
  67:Test_RPI_SPI8.c ****         
  68:Test_RPI_SPI8.c ****         setRasPiPinValue(IO_22,LED_OFF);    // A0
ARM GAS  C:\Users\HPz420\AppData\Local\Temp\ccrOzcYa.s 			page 5


 161              		.loc 1 68 0
 162 0100 0021     		movs	r1, #0
 163 0102 0820     		movs	r0, #8
 164 0104 FFF7FEFF 		bl	setRasPiPinValue
  69:Test_RPI_SPI8.c ****         setRasPiPinValue(IO_27,LED_OFF);    // A1
 165              		.loc 1 69 0
 166 0108 0021     		movs	r1, #0
 167 010a 0720     		movs	r0, #7
 168 010c FFF7FEFF 		bl	setRasPiPinValue
  70:Test_RPI_SPI8.c ****         setRasPiPinValue(IO_17,LED_ON);     // A2
 169              		.loc 1 70 0
 170 0110 0121     		movs	r1, #1
 171 0112 0520     		movs	r0, #5
 172 0114 FFF7FEFF 		bl	setRasPiPinValue
  71:Test_RPI_SPI8.c ****         CyDelay(500);
 173              		.loc 1 71 0
 174 0118 4FF4FA70 		mov	r0, #500
 175 011c FFF7FEFF 		bl	CyDelay
  72:Test_RPI_SPI8.c ****         
  73:Test_RPI_SPI8.c ****         setRasPiPinValue(IO_22,LED_ON);     // A0
 176              		.loc 1 73 0
 177 0120 0121     		movs	r1, #1
 178 0122 0820     		movs	r0, #8
 179 0124 FFF7FEFF 		bl	setRasPiPinValue
  74:Test_RPI_SPI8.c ****         setRasPiPinValue(IO_27,LED_OFF);    // A1
 180              		.loc 1 74 0
 181 0128 0021     		movs	r1, #0
 182 012a 0720     		movs	r0, #7
 183 012c FFF7FEFF 		bl	setRasPiPinValue
  75:Test_RPI_SPI8.c ****         setRasPiPinValue(IO_17,LED_ON);     // A2
 184              		.loc 1 75 0
 185 0130 0121     		movs	r1, #1
 186 0132 0520     		movs	r0, #5
 187 0134 FFF7FEFF 		bl	setRasPiPinValue
  76:Test_RPI_SPI8.c ****         CyDelay(500);
 188              		.loc 1 76 0
 189 0138 4FF4FA70 		mov	r0, #500
 190 013c FFF7FEFF 		bl	CyDelay
  77:Test_RPI_SPI8.c ****         
  78:Test_RPI_SPI8.c ****         setRasPiPinValue(IO_22,LED_OFF);    // A0
 191              		.loc 1 78 0
 192 0140 0021     		movs	r1, #0
 193 0142 0820     		movs	r0, #8
 194 0144 FFF7FEFF 		bl	setRasPiPinValue
  79:Test_RPI_SPI8.c ****         setRasPiPinValue(IO_27,LED_ON);     // A1
 195              		.loc 1 79 0
 196 0148 0121     		movs	r1, #1
 197 014a 0720     		movs	r0, #7
 198 014c FFF7FEFF 		bl	setRasPiPinValue
  80:Test_RPI_SPI8.c ****         setRasPiPinValue(IO_17,LED_ON);     // A2
 199              		.loc 1 80 0
 200 0150 0121     		movs	r1, #1
 201 0152 0520     		movs	r0, #5
 202 0154 FFF7FEFF 		bl	setRasPiPinValue
  81:Test_RPI_SPI8.c ****         CyDelay(500);
 203              		.loc 1 81 0
 204 0158 4FF4FA70 		mov	r0, #500
ARM GAS  C:\Users\HPz420\AppData\Local\Temp\ccrOzcYa.s 			page 6


 205 015c FFF7FEFF 		bl	CyDelay
  82:Test_RPI_SPI8.c ****         
  83:Test_RPI_SPI8.c ****         setRasPiPinValue(IO_22,LED_ON);     // A0
 206              		.loc 1 83 0
 207 0160 0121     		movs	r1, #1
 208 0162 0820     		movs	r0, #8
 209 0164 FFF7FEFF 		bl	setRasPiPinValue
  84:Test_RPI_SPI8.c ****         setRasPiPinValue(IO_27,LED_ON);     // A1
 210              		.loc 1 84 0
 211 0168 0121     		movs	r1, #1
 212 016a 0720     		movs	r0, #7
 213 016c FFF7FEFF 		bl	setRasPiPinValue
  85:Test_RPI_SPI8.c ****         setRasPiPinValue(IO_17,LED_ON);     // A2
 214              		.loc 1 85 0
 215 0170 0121     		movs	r1, #1
 216 0172 0520     		movs	r0, #5
 217 0174 FFF7FEFF 		bl	setRasPiPinValue
  86:Test_RPI_SPI8.c ****         CyDelay(500);
 218              		.loc 1 86 0
 219 0178 4FF4FA70 		mov	r0, #500
 220 017c FFF7FEFF 		bl	CyDelay
  87:Test_RPI_SPI8.c ****         
  88:Test_RPI_SPI8.c ****         setRasPiPinValue(IO_8,LED_ON);      // SPICE0
 221              		.loc 1 88 0
 222 0180 0121     		movs	r1, #1
 223 0182 0F20     		movs	r0, #15
 224 0184 FFF7FEFF 		bl	setRasPiPinValue
  89:Test_RPI_SPI8.c ****      	
  90:Test_RPI_SPI8.c ****         setRasPiPinValue(IO_9,LED_OFF);     // SPI_MISO
 225              		.loc 1 90 0
 226 0188 0021     		movs	r1, #0
 227 018a 0C20     		movs	r0, #12
 228 018c FFF7FEFF 		bl	setRasPiPinValue
  91:Test_RPI_SPI8.c ****         CyDelay(500);
 229              		.loc 1 91 0
 230 0190 4FF4FA70 		mov	r0, #500
 231 0194 FFF7FEFF 		bl	CyDelay
  92:Test_RPI_SPI8.c ****         setRasPiPinValue(IO_9,LED_ON);
 232              		.loc 1 92 0
 233 0198 0121     		movs	r1, #1
 234 019a 0C20     		movs	r0, #12
 235 019c FFF7FEFF 		bl	setRasPiPinValue
  93:Test_RPI_SPI8.c ****         
  94:Test_RPI_SPI8.c ****     	setRasPiPinValue(IO_10,LED_OFF);    // SPI_MOSI
 236              		.loc 1 94 0
 237 01a0 0021     		movs	r1, #0
 238 01a2 0B20     		movs	r0, #11
 239 01a4 FFF7FEFF 		bl	setRasPiPinValue
  95:Test_RPI_SPI8.c ****         CyDelay(500);
 240              		.loc 1 95 0
 241 01a8 4FF4FA70 		mov	r0, #500
 242 01ac FFF7FEFF 		bl	CyDelay
  96:Test_RPI_SPI8.c ****     	setRasPiPinValue(IO_10,LED_ON);
 243              		.loc 1 96 0
 244 01b0 0121     		movs	r1, #1
 245 01b2 0B20     		movs	r0, #11
 246 01b4 FFF7FEFF 		bl	setRasPiPinValue
ARM GAS  C:\Users\HPz420\AppData\Local\Temp\ccrOzcYa.s 			page 7


  97:Test_RPI_SPI8.c **** 
  98:Test_RPI_SPI8.c ****     	setRasPiPinValue(IO_11,LED_OFF);    // SPI_SCK
 247              		.loc 1 98 0
 248 01b8 0021     		movs	r1, #0
 249 01ba 0E20     		movs	r0, #14
 250 01bc FFF7FEFF 		bl	setRasPiPinValue
  99:Test_RPI_SPI8.c ****         CyDelay(500);
 251              		.loc 1 99 0
 252 01c0 4FF4FA70 		mov	r0, #500
 253 01c4 FFF7FEFF 		bl	CyDelay
 100:Test_RPI_SPI8.c ****     	setRasPiPinValue(IO_11,LED_ON);
 254              		.loc 1 100 0
 255 01c8 0121     		movs	r1, #1
 256 01ca 0E20     		movs	r0, #14
 257 01cc FFF7FEFF 		bl	setRasPiPinValue
 101:Test_RPI_SPI8.c ****         // Check if a kr
 102:Test_RPI_SPI8.c ****         if (USBUART_DataIsReady() != 0)
 258              		.loc 1 102 0
 259 01d0 FFF7FEFF 		bl	USBUART_DataIsReady
 260 01d4 0346     		mov	r3, r0
 261 01d6 002B     		cmp	r3, #0
 262 01d8 00D1     		bne	.L6
 103:Test_RPI_SPI8.c ****             return;
 104:Test_RPI_SPI8.c ****     }
 263              		.loc 1 104 0
 264 01da 4DE7     		b	.L4
 265              	.L6:
 103:Test_RPI_SPI8.c ****             return;
 266              		.loc 1 103 0
 267 01dc 00BF     		nop
 105:Test_RPI_SPI8.c **** }
 268              		.loc 1 105 0
 269 01de 80BD     		pop	{r7, pc}
 270              		.cfi_endproc
 271              	.LFE63:
 272              		.size	testRPISPI8, .-testRPISPI8
 273              		.section	.text.debugRPISPI8,"ax",%progbits
 274              		.align	2
 275              		.global	debugRPISPI8
 276              		.thumb
 277              		.thumb_func
 278              		.type	debugRPISPI8, %function
 279              	debugRPISPI8:
 280              	.LFB64:
 106:Test_RPI_SPI8.c **** 
 107:Test_RPI_SPI8.c **** void debugRPISPI8(void)
 108:Test_RPI_SPI8.c **** {
 281              		.loc 1 108 0
 282              		.cfi_startproc
 283              		@ args = 0, pretend = 0, frame = 0
 284              		@ frame_needed = 1, uses_anonymous_args = 0
 285              		@ link register save eliminated.
 286 0000 80B4     		push	{r7}
 287              		.cfi_def_cfa_offset 4
 288              		.cfi_offset 7, -4
 289 0002 00AF     		add	r7, sp, #0
 290              		.cfi_def_cfa_register 7
ARM GAS  C:\Users\HPz420\AppData\Local\Temp\ccrOzcYa.s 			page 8


 109:Test_RPI_SPI8.c **** 
 110:Test_RPI_SPI8.c **** }
 291              		.loc 1 110 0
 292 0004 00BF     		nop
 293 0006 BD46     		mov	sp, r7
 294              		.cfi_def_cfa_register 13
 295              		@ sp needed
 296 0008 80BC     		pop	{r7}
 297              		.cfi_restore 7
 298              		.cfi_def_cfa_offset 0
 299 000a 7047     		bx	lr
 300              		.cfi_endproc
 301              	.LFE64:
 302              		.size	debugRPISPI8, .-debugRPISPI8
 303              		.text
 304              	.Letext0:
 305              		.file 2 "c:\\program files (x86)\\cypress\\psoc creator\\4.4\\psoc creator\\import\\gnu\\arm\\5.4.
 306              		.file 3 "c:\\program files (x86)\\cypress\\psoc creator\\4.4\\psoc creator\\import\\gnu\\arm\\5.4.
 307              		.file 4 "Generated_Source\\PSoC5/cytypes.h"
 308              		.file 5 "RasPi_Pins.h"
 309              		.file 6 "Generated_Source\\PSoC5/core_cm3.h"