ARM GAS  C:\Users\HPz420\AppData\Local\Temp\cc6TyzGf.s 			page 1


   1              		.syntax unified
   2              		.cpu cortex-m3
   3              		.fpu softvfp
   4              		.eabi_attribute 20, 1
   5              		.eabi_attribute 21, 1
   6              		.eabi_attribute 23, 3
   7              		.eabi_attribute 24, 1
   8              		.eabi_attribute 25, 1
   9              		.eabi_attribute 26, 1
  10              		.eabi_attribute 30, 6
  11              		.eabi_attribute 34, 1
  12              		.eabi_attribute 18, 4
  13              		.thumb
  14              		.syntax unified
  15              		.file	"Test_RPI_I2C_HUB.c"
  16              		.text
  17              	.Ltext0:
  18              		.cfi_sections	.debug_frame
  19              		.section	.text.init_RPII2CHUB,"ax",%progbits
  20              		.align	2
  21              		.global	init_RPII2CHUB
  22              		.thumb
  23              		.thumb_func
  24              		.type	init_RPII2CHUB, %function
  25              	init_RPII2CHUB:
  26              	.LFB63:
  27              		.file 1 "Test_RPI_I2C_HUB.c"
   1:Test_RPI_I2C_HUB.c **** /* ========================================
   2:Test_RPI_I2C_HUB.c ****  *
   3:Test_RPI_I2C_HUB.c ****  * Copyright LAND BOARDS, LLC, 2019
   4:Test_RPI_I2C_HUB.c ****  * All Rights Reserved
   5:Test_RPI_I2C_HUB.c ****  * UNPUBLISHED, LICENSED SOFTWARE.
   6:Test_RPI_I2C_HUB.c ****  *
   7:Test_RPI_I2C_HUB.c ****  * CONFIDENTIAL AND PROPRIETARY INFORMATION
   8:Test_RPI_I2C_HUB.c ****  * WHICH IS THE PROPERTY OF Land Boards.
   9:Test_RPI_I2C_HUB.c ****  *
  10:Test_RPI_I2C_HUB.c ****  * ========================================
  11:Test_RPI_I2C_HUB.c **** */
  12:Test_RPI_I2C_HUB.c **** 
  13:Test_RPI_I2C_HUB.c **** // Test an RPI_I2C_HUB
  14:Test_RPI_I2C_HUB.c **** // Requires 4 DIGIO-8 cards
  15:Test_RPI_I2C_HUB.c **** // Test bounces an LED across the four DIGIO-8 cards
  16:Test_RPI_I2C_HUB.c **** 
  17:Test_RPI_I2C_HUB.c **** #include <project.h>
  18:Test_RPI_I2C_HUB.c **** #include "RPI_PSOC5.h"
  19:Test_RPI_I2C_HUB.c **** 
  20:Test_RPI_I2C_HUB.c **** // ////////////////////////////////////////////////////////////////////////////
  21:Test_RPI_I2C_HUB.c **** // init_RPII2CHUB() - Initialize the RPI_I2C_HUB and (4) I2CIO-8 cards
  22:Test_RPI_I2C_HUB.c **** // ////////////////////////////////////////////////////////////////////////////
  23:Test_RPI_I2C_HUB.c **** 
  24:Test_RPI_I2C_HUB.c **** void init_RPII2CHUB(void)
  25:Test_RPI_I2C_HUB.c **** {
  28              		.loc 1 25 0
  29              		.cfi_startproc
  30              		@ args = 0, pretend = 0, frame = 8
  31              		@ frame_needed = 1, uses_anonymous_args = 0
  32 0000 80B5     		push	{r7, lr}
ARM GAS  C:\Users\HPz420\AppData\Local\Temp\cc6TyzGf.s 			page 2


  33              		.cfi_def_cfa_offset 8
  34              		.cfi_offset 7, -8
  35              		.cfi_offset 14, -4
  36 0002 82B0     		sub	sp, sp, #8
  37              		.cfi_def_cfa_offset 16
  38 0004 00AF     		add	r7, sp, #0
  39              		.cfi_def_cfa_register 7
  26:Test_RPI_I2C_HUB.c ****     uint8 I2CMUX_SLAVE_ADDR = 0x71;
  40              		.loc 1 26 0
  41 0006 7123     		movs	r3, #113
  42 0008 BB71     		strb	r3, [r7, #6]
  27:Test_RPI_I2C_HUB.c ****     uint8 cMessage[2];
  28:Test_RPI_I2C_HUB.c ****     uint8 channel;
  29:Test_RPI_I2C_HUB.c ****     
  30:Test_RPI_I2C_HUB.c ****     I2C1_Start();
  43              		.loc 1 30 0
  44 000a FFF7FEFF 		bl	I2C1_Start
  31:Test_RPI_I2C_HUB.c ****     
  32:Test_RPI_I2C_HUB.c ****     // initialize the four DIGIO8 cards
  33:Test_RPI_I2C_HUB.c ****     for (channel = 0; channel < 4; channel++)
  45              		.loc 1 33 0
  46 000e 0023     		movs	r3, #0
  47 0010 FB71     		strb	r3, [r7, #7]
  48 0012 18E0     		b	.L2
  49              	.L4:
  34:Test_RPI_I2C_HUB.c ****     {
  35:Test_RPI_I2C_HUB.c ****         cMessage[0] = 0x04 | channel;
  50              		.loc 1 35 0
  51 0014 FB79     		ldrb	r3, [r7, #7]
  52 0016 43F00403 		orr	r3, r3, #4
  53 001a DBB2     		uxtb	r3, r3
  54 001c 3B71     		strb	r3, [r7, #4]
  36:Test_RPI_I2C_HUB.c ****         I2C1_MasterWriteBuf(I2CMUX_SLAVE_ADDR, cMessage, 1, I2C_EEPROM_MODE_COMPLETE_XFER);
  55              		.loc 1 36 0
  56 001e 391D     		adds	r1, r7, #4
  57 0020 B879     		ldrb	r0, [r7, #6]	@ zero_extendqisi2
  58 0022 0023     		movs	r3, #0
  59 0024 0122     		movs	r2, #1
  60 0026 FFF7FEFF 		bl	I2C1_MasterWriteBuf
  37:Test_RPI_I2C_HUB.c ****         while (0u == (I2C1_MasterStatus() & I2C1_MSTAT_WR_CMPLT));
  61              		.loc 1 37 0
  62 002a 00BF     		nop
  63              	.L3:
  64              		.loc 1 37 0 is_stmt 0 discriminator 1
  65 002c FFF7FEFF 		bl	I2C1_MasterStatus
  66 0030 0346     		mov	r3, r0
  67 0032 03F00203 		and	r3, r3, #2
  68 0036 002B     		cmp	r3, #0
  69 0038 F8D0     		beq	.L3
  38:Test_RPI_I2C_HUB.c ****         initDIGIO8Card(0x20);
  70              		.loc 1 38 0 is_stmt 1 discriminator 2
  71 003a 2020     		movs	r0, #32
  72 003c FFF7FEFF 		bl	initDIGIO8Card
  33:Test_RPI_I2C_HUB.c ****     {
  73              		.loc 1 33 0 discriminator 2
  74 0040 FB79     		ldrb	r3, [r7, #7]	@ zero_extendqisi2
  75 0042 0133     		adds	r3, r3, #1
ARM GAS  C:\Users\HPz420\AppData\Local\Temp\cc6TyzGf.s 			page 3


  76 0044 FB71     		strb	r3, [r7, #7]
  77              	.L2:
  33:Test_RPI_I2C_HUB.c ****     {
  78              		.loc 1 33 0 is_stmt 0 discriminator 1
  79 0046 FB79     		ldrb	r3, [r7, #7]	@ zero_extendqisi2
  80 0048 032B     		cmp	r3, #3
  81 004a E3D9     		bls	.L4
  39:Test_RPI_I2C_HUB.c ****     }
  40:Test_RPI_I2C_HUB.c **** }
  82              		.loc 1 40 0 is_stmt 1
  83 004c 00BF     		nop
  84 004e 0837     		adds	r7, r7, #8
  85              		.cfi_def_cfa_offset 8
  86 0050 BD46     		mov	sp, r7
  87              		.cfi_def_cfa_register 13
  88              		@ sp needed
  89 0052 80BD     		pop	{r7, pc}
  90              		.cfi_endproc
  91              	.LFE63:
  92              		.size	init_RPII2CHUB, .-init_RPII2CHUB
  93              		.section	.rodata
  94              		.align	2
  95              	.LC0:
  96 0000 496E6974 		.ascii	"Initialized RPI-I2C-HUB card\012\015\000"
  96      69616C69 
  96      7A656420 
  96      5250492D 
  96      4932432D 
  97 001f 00       		.align	2
  98              	.LC1:
  99 0020 506F6C6C 		.ascii	"Polling interrupts\012\015\000"
  99      696E6720 
  99      696E7465 
  99      72727570 
  99      74730A0D 
 100 0035 000000   		.align	2
 101              	.LC2:
 102 0038 496E743D 		.ascii	"Int=0\012\015\000"
 102      300A0D00 
 103              		.align	2
 104              	.LC3:
 105 0040 496E743D 		.ascii	"Int=1\012\015\000"
 105      310A0D00 
 106              		.align	2
 107              	.LC4:
 108 0048 496E743D 		.ascii	"Int=2\012\015\000"
 108      320A0D00 
 109              		.align	2
 110              	.LC5:
 111 0050 496E743D 		.ascii	"Int=3\012\015\000"
 111      330A0D00 
 112              		.align	2
 113              	.LC6:
 114 0058 446F6E65 		.ascii	"Done testing interrupts\012\015\000"
 114      20746573 
 114      74696E67 
 114      20696E74 
ARM GAS  C:\Users\HPz420\AppData\Local\Temp\cc6TyzGf.s 			page 4


 114      65727275 
 115              		.section	.text.test_RPII2CHUB,"ax",%progbits
 116              		.align	2
 117              		.global	test_RPII2CHUB
 118              		.thumb
 119              		.thumb_func
 120              		.type	test_RPII2CHUB, %function
 121              	test_RPII2CHUB:
 122              	.LFB64:
  41:Test_RPI_I2C_HUB.c **** 
  42:Test_RPI_I2C_HUB.c **** // ////////////////////////////////////////////////////////////////////////////
  43:Test_RPI_I2C_HUB.c **** // test_RPII2CHUB()
  44:Test_RPI_I2C_HUB.c **** // ////////////////////////////////////////////////////////////////////////////
  45:Test_RPI_I2C_HUB.c **** 
  46:Test_RPI_I2C_HUB.c **** void test_RPII2CHUB(void)
  47:Test_RPI_I2C_HUB.c **** {
 123              		.loc 1 47 0
 124              		.cfi_startproc
 125              		@ args = 0, pretend = 0, frame = 8
 126              		@ frame_needed = 1, uses_anonymous_args = 0
 127 0000 80B5     		push	{r7, lr}
 128              		.cfi_def_cfa_offset 8
 129              		.cfi_offset 7, -8
 130              		.cfi_offset 14, -4
 131 0002 82B0     		sub	sp, sp, #8
 132              		.cfi_def_cfa_offset 16
 133 0004 00AF     		add	r7, sp, #0
 134              		.cfi_def_cfa_register 7
  48:Test_RPI_I2C_HUB.c ****     uint8 I2CMUX_SLAVE_ADDR = 0x71;
 135              		.loc 1 48 0
 136 0006 7123     		movs	r3, #113
 137 0008 FB71     		strb	r3, [r7, #7]
  49:Test_RPI_I2C_HUB.c ****     uint8 I2CIO8_SLAVE_ADDR = 0x20;
 138              		.loc 1 49 0
 139 000a 2023     		movs	r3, #32
 140 000c BB71     		strb	r3, [r7, #6]
  50:Test_RPI_I2C_HUB.c ****     uint8 cMessage[2];
  51:Test_RPI_I2C_HUB.c ****     uint8 rdIntStat;
  52:Test_RPI_I2C_HUB.c ****     
  53:Test_RPI_I2C_HUB.c ****     //I2C1_Start();
  54:Test_RPI_I2C_HUB.c ****     
  55:Test_RPI_I2C_HUB.c ****     init_RPII2CHUB();
 141              		.loc 1 55 0
 142 000e FFF7FEFF 		bl	init_RPII2CHUB
  56:Test_RPI_I2C_HUB.c ****     putStringToUSB("Initialized RPI-I2C-HUB card\n\r");
 143              		.loc 1 56 0
 144 0012 4E48     		ldr	r0, .L17
 145 0014 FFF7FEFF 		bl	putStringToUSB
  57:Test_RPI_I2C_HUB.c ****     
  58:Test_RPI_I2C_HUB.c ****     putStringToUSB("Polling interrupts\n\r");
 146              		.loc 1 58 0
 147 0018 4D48     		ldr	r0, .L17+4
 148 001a FFF7FEFF 		bl	putStringToUSB
  59:Test_RPI_I2C_HUB.c **** 
  60:Test_RPI_I2C_HUB.c ****     while (0u == USBUART_DataIsReady())
 149              		.loc 1 60 0
 150 001e 87E0     		b	.L6
ARM GAS  C:\Users\HPz420\AppData\Local\Temp\cc6TyzGf.s 			page 5


 151              	.L16:
  61:Test_RPI_I2C_HUB.c ****     {
  62:Test_RPI_I2C_HUB.c ****         I2C1_MasterReadBuf(I2CMUX_SLAVE_ADDR,cMessage, 1, I2C_EEPROM_MODE_COMPLETE_XFER);
 152              		.loc 1 62 0
 153 0020 3946     		mov	r1, r7
 154 0022 F879     		ldrb	r0, [r7, #7]	@ zero_extendqisi2
 155 0024 0023     		movs	r3, #0
 156 0026 0122     		movs	r2, #1
 157 0028 FFF7FEFF 		bl	I2C1_MasterReadBuf
  63:Test_RPI_I2C_HUB.c ****         while (0u == (I2C1_MasterStatus() & I2C1_MSTAT_RD_CMPLT));
 158              		.loc 1 63 0
 159 002c 00BF     		nop
 160              	.L7:
 161              		.loc 1 63 0 is_stmt 0 discriminator 1
 162 002e FFF7FEFF 		bl	I2C1_MasterStatus
 163 0032 0346     		mov	r3, r0
 164 0034 03F00103 		and	r3, r3, #1
 165 0038 002B     		cmp	r3, #0
 166 003a F8D0     		beq	.L7
  64:Test_RPI_I2C_HUB.c **** //        I2C1_MasterSendStop();
  65:Test_RPI_I2C_HUB.c **** //        I2C1_MasterClearStatus();
  66:Test_RPI_I2C_HUB.c ****         //while (0u == (I2C1_MasterStatus() & I2C1_MSTAT_WR_CMPLT));
  67:Test_RPI_I2C_HUB.c ****         rdIntStat = ((cMessage[0] >> 4) & 0xf);
 167              		.loc 1 67 0 is_stmt 1
 168 003c 3B78     		ldrb	r3, [r7]	@ zero_extendqisi2
 169 003e 1B09     		lsrs	r3, r3, #4
 170 0040 7B71     		strb	r3, [r7, #5]
  68:Test_RPI_I2C_HUB.c ****         if ((rdIntStat & 0x01) == 0x01)
 171              		.loc 1 68 0
 172 0042 7B79     		ldrb	r3, [r7, #5]	@ zero_extendqisi2
 173 0044 03F00103 		and	r3, r3, #1
 174 0048 002B     		cmp	r3, #0
 175 004a 17D0     		beq	.L8
  69:Test_RPI_I2C_HUB.c ****         {
  70:Test_RPI_I2C_HUB.c ****             putStringToUSB("Int=0\n\r");
 176              		.loc 1 70 0
 177 004c 4148     		ldr	r0, .L17+8
 178 004e FFF7FEFF 		bl	putStringToUSB
  71:Test_RPI_I2C_HUB.c ****             cMessage[0] = 0x04;
 179              		.loc 1 71 0
 180 0052 0423     		movs	r3, #4
 181 0054 3B70     		strb	r3, [r7]
  72:Test_RPI_I2C_HUB.c ****             I2C1_MasterWriteBuf(I2CMUX_SLAVE_ADDR, cMessage, 1, I2C_EEPROM_MODE_COMPLETE_XFER);
 182              		.loc 1 72 0
 183 0056 3946     		mov	r1, r7
 184 0058 F879     		ldrb	r0, [r7, #7]	@ zero_extendqisi2
 185 005a 0023     		movs	r3, #0
 186 005c 0122     		movs	r2, #1
 187 005e FFF7FEFF 		bl	I2C1_MasterWriteBuf
  73:Test_RPI_I2C_HUB.c ****             while (0u == (I2C1_MasterStatus() & I2C1_MSTAT_WR_CMPLT));
 188              		.loc 1 73 0
 189 0062 00BF     		nop
 190              	.L9:
 191              		.loc 1 73 0 is_stmt 0 discriminator 1
 192 0064 FFF7FEFF 		bl	I2C1_MasterStatus
 193 0068 0346     		mov	r3, r0
 194 006a 03F00203 		and	r3, r3, #2
ARM GAS  C:\Users\HPz420\AppData\Local\Temp\cc6TyzGf.s 			page 6


 195 006e 002B     		cmp	r3, #0
 196 0070 F8D0     		beq	.L9
  74:Test_RPI_I2C_HUB.c ****             //readDIGIO8Card(I2CIO8_SLAVE_ADDR);
  75:Test_RPI_I2C_HUB.c ****             readRegisterDIGIO8Card(I2CIO8_SLAVE_ADDR,MCP23008_INTCAP_REGADR); // Clear interrupt LE
 197              		.loc 1 75 0 is_stmt 1
 198 0072 BB79     		ldrb	r3, [r7, #6]	@ zero_extendqisi2
 199 0074 0821     		movs	r1, #8
 200 0076 1846     		mov	r0, r3
 201 0078 FFF7FEFF 		bl	readRegisterDIGIO8Card
 202              	.L8:
  76:Test_RPI_I2C_HUB.c ****         }
  77:Test_RPI_I2C_HUB.c ****         if ((rdIntStat & 0x02) == 0x02)
 203              		.loc 1 77 0
 204 007c 7B79     		ldrb	r3, [r7, #5]	@ zero_extendqisi2
 205 007e 03F00203 		and	r3, r3, #2
 206 0082 002B     		cmp	r3, #0
 207 0084 17D0     		beq	.L10
  78:Test_RPI_I2C_HUB.c ****         {
  79:Test_RPI_I2C_HUB.c ****             cMessage[0] = 0x05;
 208              		.loc 1 79 0
 209 0086 0523     		movs	r3, #5
 210 0088 3B70     		strb	r3, [r7]
  80:Test_RPI_I2C_HUB.c ****             I2C1_MasterWriteBuf(I2CMUX_SLAVE_ADDR, cMessage, 1, I2C_EEPROM_MODE_COMPLETE_XFER);
 211              		.loc 1 80 0
 212 008a 3946     		mov	r1, r7
 213 008c F879     		ldrb	r0, [r7, #7]	@ zero_extendqisi2
 214 008e 0023     		movs	r3, #0
 215 0090 0122     		movs	r2, #1
 216 0092 FFF7FEFF 		bl	I2C1_MasterWriteBuf
  81:Test_RPI_I2C_HUB.c ****             while (0u == (I2C1_MasterStatus() & I2C1_MSTAT_WR_CMPLT));
 217              		.loc 1 81 0
 218 0096 00BF     		nop
 219              	.L11:
 220              		.loc 1 81 0 is_stmt 0 discriminator 1
 221 0098 FFF7FEFF 		bl	I2C1_MasterStatus
 222 009c 0346     		mov	r3, r0
 223 009e 03F00203 		and	r3, r3, #2
 224 00a2 002B     		cmp	r3, #0
 225 00a4 F8D0     		beq	.L11
  82:Test_RPI_I2C_HUB.c ****             putStringToUSB("Int=1\n\r");
 226              		.loc 1 82 0 is_stmt 1
 227 00a6 2C48     		ldr	r0, .L17+12
 228 00a8 FFF7FEFF 		bl	putStringToUSB
  83:Test_RPI_I2C_HUB.c ****             //readDIGIO8Card(I2CIO8_SLAVE_ADDR);
  84:Test_RPI_I2C_HUB.c ****             readRegisterDIGIO8Card(I2CIO8_SLAVE_ADDR,MCP23008_INTCAP_REGADR); // Clear interrupt LE
 229              		.loc 1 84 0
 230 00ac BB79     		ldrb	r3, [r7, #6]	@ zero_extendqisi2
 231 00ae 0821     		movs	r1, #8
 232 00b0 1846     		mov	r0, r3
 233 00b2 FFF7FEFF 		bl	readRegisterDIGIO8Card
 234              	.L10:
  85:Test_RPI_I2C_HUB.c ****        }
  86:Test_RPI_I2C_HUB.c ****         if ((rdIntStat & 0x04) == 0x04)
 235              		.loc 1 86 0
 236 00b6 7B79     		ldrb	r3, [r7, #5]	@ zero_extendqisi2
 237 00b8 03F00403 		and	r3, r3, #4
 238 00bc 002B     		cmp	r3, #0
ARM GAS  C:\Users\HPz420\AppData\Local\Temp\cc6TyzGf.s 			page 7


 239 00be 17D0     		beq	.L12
  87:Test_RPI_I2C_HUB.c ****         {
  88:Test_RPI_I2C_HUB.c ****             cMessage[0] = 0x06;
 240              		.loc 1 88 0
 241 00c0 0623     		movs	r3, #6
 242 00c2 3B70     		strb	r3, [r7]
  89:Test_RPI_I2C_HUB.c ****             I2C1_MasterWriteBuf(I2CMUX_SLAVE_ADDR, cMessage, 1, I2C_EEPROM_MODE_COMPLETE_XFER);
 243              		.loc 1 89 0
 244 00c4 3946     		mov	r1, r7
 245 00c6 F879     		ldrb	r0, [r7, #7]	@ zero_extendqisi2
 246 00c8 0023     		movs	r3, #0
 247 00ca 0122     		movs	r2, #1
 248 00cc FFF7FEFF 		bl	I2C1_MasterWriteBuf
  90:Test_RPI_I2C_HUB.c ****             while (0u == (I2C1_MasterStatus() & I2C1_MSTAT_WR_CMPLT));
 249              		.loc 1 90 0
 250 00d0 00BF     		nop
 251              	.L13:
 252              		.loc 1 90 0 is_stmt 0 discriminator 1
 253 00d2 FFF7FEFF 		bl	I2C1_MasterStatus
 254 00d6 0346     		mov	r3, r0
 255 00d8 03F00203 		and	r3, r3, #2
 256 00dc 002B     		cmp	r3, #0
 257 00de F8D0     		beq	.L13
  91:Test_RPI_I2C_HUB.c ****             putStringToUSB("Int=2\n\r");
 258              		.loc 1 91 0 is_stmt 1
 259 00e0 1E48     		ldr	r0, .L17+16
 260 00e2 FFF7FEFF 		bl	putStringToUSB
  92:Test_RPI_I2C_HUB.c ****             //readDIGIO8Card(I2CIO8_SLAVE_ADDR);
  93:Test_RPI_I2C_HUB.c ****             readRegisterDIGIO8Card(I2CIO8_SLAVE_ADDR,MCP23008_INTCAP_REGADR); // Clear interrupt LE
 261              		.loc 1 93 0
 262 00e6 BB79     		ldrb	r3, [r7, #6]	@ zero_extendqisi2
 263 00e8 0821     		movs	r1, #8
 264 00ea 1846     		mov	r0, r3
 265 00ec FFF7FEFF 		bl	readRegisterDIGIO8Card
 266              	.L12:
  94:Test_RPI_I2C_HUB.c ****         }
  95:Test_RPI_I2C_HUB.c ****         if ((rdIntStat & 0x08) == 0x08)
 267              		.loc 1 95 0
 268 00f0 7B79     		ldrb	r3, [r7, #5]	@ zero_extendqisi2
 269 00f2 03F00803 		and	r3, r3, #8
 270 00f6 002B     		cmp	r3, #0
 271 00f8 17D0     		beq	.L14
  96:Test_RPI_I2C_HUB.c ****         {
  97:Test_RPI_I2C_HUB.c ****             cMessage[0] = 0x07;
 272              		.loc 1 97 0
 273 00fa 0723     		movs	r3, #7
 274 00fc 3B70     		strb	r3, [r7]
  98:Test_RPI_I2C_HUB.c ****             I2C1_MasterWriteBuf(I2CMUX_SLAVE_ADDR, cMessage, 1, I2C_EEPROM_MODE_COMPLETE_XFER);
 275              		.loc 1 98 0
 276 00fe 3946     		mov	r1, r7
 277 0100 F879     		ldrb	r0, [r7, #7]	@ zero_extendqisi2
 278 0102 0023     		movs	r3, #0
 279 0104 0122     		movs	r2, #1
 280 0106 FFF7FEFF 		bl	I2C1_MasterWriteBuf
  99:Test_RPI_I2C_HUB.c ****             while (0u == (I2C1_MasterStatus() & I2C1_MSTAT_WR_CMPLT));
 281              		.loc 1 99 0
 282 010a 00BF     		nop
ARM GAS  C:\Users\HPz420\AppData\Local\Temp\cc6TyzGf.s 			page 8


 283              	.L15:
 284              		.loc 1 99 0 is_stmt 0 discriminator 1
 285 010c FFF7FEFF 		bl	I2C1_MasterStatus
 286 0110 0346     		mov	r3, r0
 287 0112 03F00203 		and	r3, r3, #2
 288 0116 002B     		cmp	r3, #0
 289 0118 F8D0     		beq	.L15
 100:Test_RPI_I2C_HUB.c ****             putStringToUSB("Int=3\n\r");
 290              		.loc 1 100 0 is_stmt 1
 291 011a 1148     		ldr	r0, .L17+20
 292 011c FFF7FEFF 		bl	putStringToUSB
 101:Test_RPI_I2C_HUB.c ****             //readDIGIO8Card(I2CIO8_SLAVE_ADDR);
 102:Test_RPI_I2C_HUB.c ****             readRegisterDIGIO8Card(I2CIO8_SLAVE_ADDR,MCP23008_INTCAP_REGADR); // Clear interrupt LE
 293              		.loc 1 102 0
 294 0120 BB79     		ldrb	r3, [r7, #6]	@ zero_extendqisi2
 295 0122 0821     		movs	r1, #8
 296 0124 1846     		mov	r0, r3
 297 0126 FFF7FEFF 		bl	readRegisterDIGIO8Card
 298              	.L14:
 103:Test_RPI_I2C_HUB.c ****         }
 104:Test_RPI_I2C_HUB.c ****     CyDelay(200);
 299              		.loc 1 104 0
 300 012a C820     		movs	r0, #200
 301 012c FFF7FEFF 		bl	CyDelay
 302              	.L6:
  60:Test_RPI_I2C_HUB.c ****     {
 303              		.loc 1 60 0
 304 0130 FFF7FEFF 		bl	USBUART_DataIsReady
 305 0134 0346     		mov	r3, r0
 306 0136 002B     		cmp	r3, #0
 307 0138 3FF472AF 		beq	.L16
 105:Test_RPI_I2C_HUB.c ****     }
 106:Test_RPI_I2C_HUB.c ****     putStringToUSB("Done testing interrupts\n\r");
 308              		.loc 1 106 0
 309 013c 0948     		ldr	r0, .L17+24
 310 013e FFF7FEFF 		bl	putStringToUSB
 107:Test_RPI_I2C_HUB.c **** }
 311              		.loc 1 107 0
 312 0142 00BF     		nop
 313 0144 0837     		adds	r7, r7, #8
 314              		.cfi_def_cfa_offset 8
 315 0146 BD46     		mov	sp, r7
 316              		.cfi_def_cfa_register 13
 317              		@ sp needed
 318 0148 80BD     		pop	{r7, pc}
 319              	.L18:
 320 014a 00BF     		.align	2
 321              	.L17:
 322 014c 00000000 		.word	.LC0
 323 0150 20000000 		.word	.LC1
 324 0154 38000000 		.word	.LC2
 325 0158 40000000 		.word	.LC3
 326 015c 48000000 		.word	.LC4
 327 0160 50000000 		.word	.LC5
 328 0164 58000000 		.word	.LC6
 329              		.cfi_endproc
 330              	.LFE64:
ARM GAS  C:\Users\HPz420\AppData\Local\Temp\cc6TyzGf.s 			page 9


 331              		.size	test_RPII2CHUB, .-test_RPII2CHUB
 332              		.section	.text.bounceRPIHubLEDs,"ax",%progbits
 333              		.align	2
 334              		.global	bounceRPIHubLEDs
 335              		.thumb
 336              		.thumb_func
 337              		.type	bounceRPIHubLEDs, %function
 338              	bounceRPIHubLEDs:
 339              	.LFB65:
 108:Test_RPI_I2C_HUB.c **** 
 109:Test_RPI_I2C_HUB.c **** // ////////////////////////////////////////////////////////////////////////////
 110:Test_RPI_I2C_HUB.c **** // bounceRPIHubLEDs()
 111:Test_RPI_I2C_HUB.c **** // ////////////////////////////////////////////////////////////////////////////
 112:Test_RPI_I2C_HUB.c **** 
 113:Test_RPI_I2C_HUB.c **** void bounceRPIHubLEDs(void)
 114:Test_RPI_I2C_HUB.c **** {
 340              		.loc 1 114 0
 341              		.cfi_startproc
 342              		@ args = 0, pretend = 0, frame = 8
 343              		@ frame_needed = 1, uses_anonymous_args = 0
 344 0000 80B5     		push	{r7, lr}
 345              		.cfi_def_cfa_offset 8
 346              		.cfi_offset 7, -8
 347              		.cfi_offset 14, -4
 348 0002 82B0     		sub	sp, sp, #8
 349              		.cfi_def_cfa_offset 16
 350 0004 00AF     		add	r7, sp, #0
 351              		.cfi_def_cfa_register 7
 115:Test_RPI_I2C_HUB.c **** //    I2C1_Start();
 116:Test_RPI_I2C_HUB.c ****     uint8 I2CMUX_SLAVE_ADDR = 0x71;
 352              		.loc 1 116 0
 353 0006 7123     		movs	r3, #113
 354 0008 BB71     		strb	r3, [r7, #6]
 117:Test_RPI_I2C_HUB.c ****     uint8 I2CIO8_SLAVE_ADDR = 0x20;
 355              		.loc 1 117 0
 356 000a 2023     		movs	r3, #32
 357 000c 7B71     		strb	r3, [r7, #5]
 118:Test_RPI_I2C_HUB.c ****     uint8 cMessage[2];
 119:Test_RPI_I2C_HUB.c ****     uint8 channel;
 120:Test_RPI_I2C_HUB.c ****     
 121:Test_RPI_I2C_HUB.c ****     init_RPII2CHUB();
 358              		.loc 1 121 0
 359 000e FFF7FEFF 		bl	init_RPII2CHUB
 122:Test_RPI_I2C_HUB.c ****     putStringToUSB("Initialized RPI-I2C-HUB card\n\r");
 360              		.loc 1 122 0
 361 0012 2448     		ldr	r0, .L23
 362 0014 FFF7FEFF 		bl	putStringToUSB
 123:Test_RPI_I2C_HUB.c ****     
 124:Test_RPI_I2C_HUB.c ****     for (channel = 0; channel < 4; channel++)
 363              		.loc 1 124 0
 364 0018 0023     		movs	r3, #0
 365 001a FB71     		strb	r3, [r7, #7]
 366 001c 3AE0     		b	.L20
 367              	.L22:
 125:Test_RPI_I2C_HUB.c ****     {
 126:Test_RPI_I2C_HUB.c ****         cMessage[0] = 0x04 | channel;
 368              		.loc 1 126 0
ARM GAS  C:\Users\HPz420\AppData\Local\Temp\cc6TyzGf.s 			page 10


 369 001e FB79     		ldrb	r3, [r7, #7]
 370 0020 43F00403 		orr	r3, r3, #4
 371 0024 DBB2     		uxtb	r3, r3
 372 0026 3B70     		strb	r3, [r7]
 127:Test_RPI_I2C_HUB.c ****         I2C1_MasterWriteBuf(I2CMUX_SLAVE_ADDR, cMessage, 1, I2C_EEPROM_MODE_COMPLETE_XFER);
 373              		.loc 1 127 0
 374 0028 3946     		mov	r1, r7
 375 002a B879     		ldrb	r0, [r7, #6]	@ zero_extendqisi2
 376 002c 0023     		movs	r3, #0
 377 002e 0122     		movs	r2, #1
 378 0030 FFF7FEFF 		bl	I2C1_MasterWriteBuf
 128:Test_RPI_I2C_HUB.c ****         while (0u == (I2C1_MasterStatus() & I2C1_MSTAT_WR_CMPLT));
 379              		.loc 1 128 0
 380 0034 00BF     		nop
 381              	.L21:
 382              		.loc 1 128 0 is_stmt 0 discriminator 1
 383 0036 FFF7FEFF 		bl	I2C1_MasterStatus
 384 003a 0346     		mov	r3, r0
 385 003c 03F00203 		and	r3, r3, #2
 386 0040 002B     		cmp	r3, #0
 387 0042 F8D0     		beq	.L21
 129:Test_RPI_I2C_HUB.c ****         writeDIGIO8Card(I2CIO8_SLAVE_ADDR, 0x01);
 388              		.loc 1 129 0 is_stmt 1 discriminator 2
 389 0044 7B79     		ldrb	r3, [r7, #5]	@ zero_extendqisi2
 390 0046 0121     		movs	r1, #1
 391 0048 1846     		mov	r0, r3
 392 004a FFF7FEFF 		bl	writeDIGIO8Card
 130:Test_RPI_I2C_HUB.c ****         CyDelay(200);
 393              		.loc 1 130 0 discriminator 2
 394 004e C820     		movs	r0, #200
 395 0050 FFF7FEFF 		bl	CyDelay
 131:Test_RPI_I2C_HUB.c ****         writeDIGIO8Card(I2CIO8_SLAVE_ADDR, 0x02);
 396              		.loc 1 131 0 discriminator 2
 397 0054 7B79     		ldrb	r3, [r7, #5]	@ zero_extendqisi2
 398 0056 0221     		movs	r1, #2
 399 0058 1846     		mov	r0, r3
 400 005a FFF7FEFF 		bl	writeDIGIO8Card
 132:Test_RPI_I2C_HUB.c ****         CyDelay(200);
 401              		.loc 1 132 0 discriminator 2
 402 005e C820     		movs	r0, #200
 403 0060 FFF7FEFF 		bl	CyDelay
 133:Test_RPI_I2C_HUB.c ****         writeDIGIO8Card(I2CIO8_SLAVE_ADDR, 0x04);
 404              		.loc 1 133 0 discriminator 2
 405 0064 7B79     		ldrb	r3, [r7, #5]	@ zero_extendqisi2
 406 0066 0421     		movs	r1, #4
 407 0068 1846     		mov	r0, r3
 408 006a FFF7FEFF 		bl	writeDIGIO8Card
 134:Test_RPI_I2C_HUB.c ****         CyDelay(200);
 409              		.loc 1 134 0 discriminator 2
 410 006e C820     		movs	r0, #200
 411 0070 FFF7FEFF 		bl	CyDelay
 135:Test_RPI_I2C_HUB.c ****         writeDIGIO8Card(I2CIO8_SLAVE_ADDR, 0x08);
 412              		.loc 1 135 0 discriminator 2
 413 0074 7B79     		ldrb	r3, [r7, #5]	@ zero_extendqisi2
 414 0076 0821     		movs	r1, #8
 415 0078 1846     		mov	r0, r3
 416 007a FFF7FEFF 		bl	writeDIGIO8Card
ARM GAS  C:\Users\HPz420\AppData\Local\Temp\cc6TyzGf.s 			page 11


 136:Test_RPI_I2C_HUB.c ****         CyDelay(200);
 417              		.loc 1 136 0 discriminator 2
 418 007e C820     		movs	r0, #200
 419 0080 FFF7FEFF 		bl	CyDelay
 137:Test_RPI_I2C_HUB.c ****         writeDIGIO8Card(I2CIO8_SLAVE_ADDR, 0x00);
 420              		.loc 1 137 0 discriminator 2
 421 0084 7B79     		ldrb	r3, [r7, #5]	@ zero_extendqisi2
 422 0086 0021     		movs	r1, #0
 423 0088 1846     		mov	r0, r3
 424 008a FFF7FEFF 		bl	writeDIGIO8Card
 124:Test_RPI_I2C_HUB.c ****     {
 425              		.loc 1 124 0 discriminator 2
 426 008e FB79     		ldrb	r3, [r7, #7]	@ zero_extendqisi2
 427 0090 0133     		adds	r3, r3, #1
 428 0092 FB71     		strb	r3, [r7, #7]
 429              	.L20:
 124:Test_RPI_I2C_HUB.c ****     {
 430              		.loc 1 124 0 is_stmt 0 discriminator 1
 431 0094 FB79     		ldrb	r3, [r7, #7]	@ zero_extendqisi2
 432 0096 032B     		cmp	r3, #3
 433 0098 C1D9     		bls	.L22
 138:Test_RPI_I2C_HUB.c ****     }
 139:Test_RPI_I2C_HUB.c **** }
 434              		.loc 1 139 0 is_stmt 1
 435 009a 00BF     		nop
 436 009c 0837     		adds	r7, r7, #8
 437              		.cfi_def_cfa_offset 8
 438 009e BD46     		mov	sp, r7
 439              		.cfi_def_cfa_register 13
 440              		@ sp needed
 441 00a0 80BD     		pop	{r7, pc}
 442              	.L24:
 443 00a2 00BF     		.align	2
 444              	.L23:
 445 00a4 00000000 		.word	.LC0
 446              		.cfi_endproc
 447              	.LFE65:
 448              		.size	bounceRPIHubLEDs, .-bounceRPIHubLEDs
 449              		.text
 450              	.Letext0:
 451              		.file 2 "c:\\program files (x86)\\cypress\\psoc creator\\4.4\\psoc creator\\import\\gnu\\arm\\5.4.
 452              		.file 3 "c:\\program files (x86)\\cypress\\psoc creator\\4.4\\psoc creator\\import\\gnu\\arm\\5.4.
 453              		.file 4 "Generated_Source\\PSoC5/cytypes.h"
 454              		.file 5 "Generated_Source\\PSoC5/core_cm3.h"