ARM GAS  C:\Users\DGILLI~1\AppData\Local\Temp\ccTNAMWr.s 			page 1


   1              		.syntax unified
   2              		.cpu cortex-m3
   3              		.fpu softvfp
   4              		.eabi_attribute 20, 1
   5              		.eabi_attribute 21, 1
   6              		.eabi_attribute 23, 3
   7              		.eabi_attribute 24, 1
   8              		.eabi_attribute 25, 1
   9              		.eabi_attribute 26, 1
  10              		.eabi_attribute 30, 6
  11              		.eabi_attribute 34, 1
  12              		.eabi_attribute 18, 4
  13              		.thumb
  14              		.syntax unified
  15              		.file	"DataIn_Port6.c"
  16              		.text
  17              	.Ltext0:
  18              		.cfi_sections	.debug_frame
  19              		.section	.text.DataIn_Port6_Read,"ax",%progbits
  20              		.align	2
  21              		.global	DataIn_Port6_Read
  22              		.thumb
  23              		.thumb_func
  24              		.type	DataIn_Port6_Read, %function
  25              	DataIn_Port6_Read:
  26              	.LFB0:
  27              		.file 1 "Generated_Source\\PSoC5\\DataIn_Port6.c"
   1:Generated_Source\PSoC5/DataIn_Port6.c **** /*******************************************************************************
   2:Generated_Source\PSoC5/DataIn_Port6.c **** * File Name: DataIn_Port6.c  
   3:Generated_Source\PSoC5/DataIn_Port6.c **** * Version 1.90
   4:Generated_Source\PSoC5/DataIn_Port6.c **** *
   5:Generated_Source\PSoC5/DataIn_Port6.c **** * Description:
   6:Generated_Source\PSoC5/DataIn_Port6.c **** *  This file contains API to enable firmware to read the value of a Status 
   7:Generated_Source\PSoC5/DataIn_Port6.c **** *  Register.
   8:Generated_Source\PSoC5/DataIn_Port6.c **** *
   9:Generated_Source\PSoC5/DataIn_Port6.c **** * Note:
  10:Generated_Source\PSoC5/DataIn_Port6.c **** *
  11:Generated_Source\PSoC5/DataIn_Port6.c **** ********************************************************************************
  12:Generated_Source\PSoC5/DataIn_Port6.c **** * Copyright 2008-2015, Cypress Semiconductor Corporation.  All rights reserved.
  13:Generated_Source\PSoC5/DataIn_Port6.c **** * You may use this file only in accordance with the license, terms, conditions, 
  14:Generated_Source\PSoC5/DataIn_Port6.c **** * disclaimers, and limitations in the end user license agreement accompanying 
  15:Generated_Source\PSoC5/DataIn_Port6.c **** * the software package with which this file was provided.
  16:Generated_Source\PSoC5/DataIn_Port6.c **** *******************************************************************************/
  17:Generated_Source\PSoC5/DataIn_Port6.c **** 
  18:Generated_Source\PSoC5/DataIn_Port6.c **** #include "DataIn_Port6.h"
  19:Generated_Source\PSoC5/DataIn_Port6.c **** 
  20:Generated_Source\PSoC5/DataIn_Port6.c **** #if !defined(DataIn_Port6_sts_sts_reg__REMOVED) /* Check for removal by optimization */
  21:Generated_Source\PSoC5/DataIn_Port6.c **** 
  22:Generated_Source\PSoC5/DataIn_Port6.c **** 
  23:Generated_Source\PSoC5/DataIn_Port6.c **** /*******************************************************************************
  24:Generated_Source\PSoC5/DataIn_Port6.c **** * Function Name: DataIn_Port6_Read
  25:Generated_Source\PSoC5/DataIn_Port6.c **** ********************************************************************************
  26:Generated_Source\PSoC5/DataIn_Port6.c **** *
  27:Generated_Source\PSoC5/DataIn_Port6.c **** * Summary:
  28:Generated_Source\PSoC5/DataIn_Port6.c **** *  Reads the current value assigned to the Status Register.
  29:Generated_Source\PSoC5/DataIn_Port6.c **** *
  30:Generated_Source\PSoC5/DataIn_Port6.c **** * Parameters:
ARM GAS  C:\Users\DGILLI~1\AppData\Local\Temp\ccTNAMWr.s 			page 2


  31:Generated_Source\PSoC5/DataIn_Port6.c **** *  None.
  32:Generated_Source\PSoC5/DataIn_Port6.c **** *
  33:Generated_Source\PSoC5/DataIn_Port6.c **** * Return:
  34:Generated_Source\PSoC5/DataIn_Port6.c **** *  The current value in the Status Register.
  35:Generated_Source\PSoC5/DataIn_Port6.c **** *
  36:Generated_Source\PSoC5/DataIn_Port6.c **** *******************************************************************************/
  37:Generated_Source\PSoC5/DataIn_Port6.c **** uint8 DataIn_Port6_Read(void) 
  38:Generated_Source\PSoC5/DataIn_Port6.c **** { 
  28              		.loc 1 38 0
  29              		.cfi_startproc
  30              		@ args = 0, pretend = 0, frame = 0
  31              		@ frame_needed = 1, uses_anonymous_args = 0
  32              		@ link register save eliminated.
  33 0000 80B4     		push	{r7}
  34              		.cfi_def_cfa_offset 4
  35              		.cfi_offset 7, -4
  36 0002 00AF     		add	r7, sp, #0
  37              		.cfi_def_cfa_register 7
  39:Generated_Source\PSoC5/DataIn_Port6.c ****     return DataIn_Port6_Status;
  38              		.loc 1 39 0
  39 0004 034B     		ldr	r3, .L3
  40 0006 1B78     		ldrb	r3, [r3]
  41 0008 DBB2     		uxtb	r3, r3
  40:Generated_Source\PSoC5/DataIn_Port6.c **** }
  42              		.loc 1 40 0
  43 000a 1846     		mov	r0, r3
  44 000c BD46     		mov	sp, r7
  45              		.cfi_def_cfa_register 13
  46              		@ sp needed
  47 000e 80BC     		pop	{r7}
  48              		.cfi_restore 7
  49              		.cfi_def_cfa_offset 0
  50 0010 7047     		bx	lr
  51              	.L4:
  52 0012 00BF     		.align	2
  53              	.L3:
  54 0014 63640040 		.word	1073767523
  55              		.cfi_endproc
  56              	.LFE0:
  57              		.size	DataIn_Port6_Read, .-DataIn_Port6_Read
  58              		.section	.text.DataIn_Port6_InterruptEnable,"ax",%progbits
  59              		.align	2
  60              		.global	DataIn_Port6_InterruptEnable
  61              		.thumb
  62              		.thumb_func
  63              		.type	DataIn_Port6_InterruptEnable, %function
  64              	DataIn_Port6_InterruptEnable:
  65              	.LFB1:
  41:Generated_Source\PSoC5/DataIn_Port6.c **** 
  42:Generated_Source\PSoC5/DataIn_Port6.c **** 
  43:Generated_Source\PSoC5/DataIn_Port6.c **** /*******************************************************************************
  44:Generated_Source\PSoC5/DataIn_Port6.c **** * Function Name: DataIn_Port6_InterruptEnable
  45:Generated_Source\PSoC5/DataIn_Port6.c **** ********************************************************************************
  46:Generated_Source\PSoC5/DataIn_Port6.c **** *
  47:Generated_Source\PSoC5/DataIn_Port6.c **** * Summary:
  48:Generated_Source\PSoC5/DataIn_Port6.c **** *  Enables the Status Register interrupt.
  49:Generated_Source\PSoC5/DataIn_Port6.c **** *
ARM GAS  C:\Users\DGILLI~1\AppData\Local\Temp\ccTNAMWr.s 			page 3


  50:Generated_Source\PSoC5/DataIn_Port6.c **** * Parameters:
  51:Generated_Source\PSoC5/DataIn_Port6.c **** *  None.
  52:Generated_Source\PSoC5/DataIn_Port6.c **** *
  53:Generated_Source\PSoC5/DataIn_Port6.c **** * Return:
  54:Generated_Source\PSoC5/DataIn_Port6.c **** *  None.
  55:Generated_Source\PSoC5/DataIn_Port6.c **** *
  56:Generated_Source\PSoC5/DataIn_Port6.c **** *******************************************************************************/
  57:Generated_Source\PSoC5/DataIn_Port6.c **** void DataIn_Port6_InterruptEnable(void) 
  58:Generated_Source\PSoC5/DataIn_Port6.c **** {
  66              		.loc 1 58 0
  67              		.cfi_startproc
  68              		@ args = 0, pretend = 0, frame = 8
  69              		@ frame_needed = 1, uses_anonymous_args = 0
  70 0000 80B5     		push	{r7, lr}
  71              		.cfi_def_cfa_offset 8
  72              		.cfi_offset 7, -8
  73              		.cfi_offset 14, -4
  74 0002 82B0     		sub	sp, sp, #8
  75              		.cfi_def_cfa_offset 16
  76 0004 00AF     		add	r7, sp, #0
  77              		.cfi_def_cfa_register 7
  59:Generated_Source\PSoC5/DataIn_Port6.c ****     uint8 interruptState;
  60:Generated_Source\PSoC5/DataIn_Port6.c ****     interruptState = CyEnterCriticalSection();
  78              		.loc 1 60 0
  79 0006 FFF7FEFF 		bl	CyEnterCriticalSection
  80 000a 0346     		mov	r3, r0
  81 000c FB71     		strb	r3, [r7, #7]
  61:Generated_Source\PSoC5/DataIn_Port6.c ****     DataIn_Port6_Status_Aux_Ctrl |= DataIn_Port6_STATUS_INTR_ENBL;
  82              		.loc 1 61 0
  83 000e 084A     		ldr	r2, .L6
  84 0010 074B     		ldr	r3, .L6
  85 0012 1B78     		ldrb	r3, [r3]
  86 0014 DBB2     		uxtb	r3, r3
  87 0016 43F01003 		orr	r3, r3, #16
  88 001a DBB2     		uxtb	r3, r3
  89 001c 1370     		strb	r3, [r2]
  62:Generated_Source\PSoC5/DataIn_Port6.c ****     CyExitCriticalSection(interruptState);
  90              		.loc 1 62 0
  91 001e FB79     		ldrb	r3, [r7, #7]	@ zero_extendqisi2
  92 0020 1846     		mov	r0, r3
  93 0022 FFF7FEFF 		bl	CyExitCriticalSection
  63:Generated_Source\PSoC5/DataIn_Port6.c **** }
  94              		.loc 1 63 0
  95 0026 00BF     		nop
  96 0028 0837     		adds	r7, r7, #8
  97              		.cfi_def_cfa_offset 8
  98 002a BD46     		mov	sp, r7
  99              		.cfi_def_cfa_register 13
 100              		@ sp needed
 101 002c 80BD     		pop	{r7, pc}
 102              	.L7:
 103 002e 00BF     		.align	2
 104              	.L6:
 105 0030 93640040 		.word	1073767571
 106              		.cfi_endproc
 107              	.LFE1:
 108              		.size	DataIn_Port6_InterruptEnable, .-DataIn_Port6_InterruptEnable
ARM GAS  C:\Users\DGILLI~1\AppData\Local\Temp\ccTNAMWr.s 			page 4


 109              		.section	.text.DataIn_Port6_InterruptDisable,"ax",%progbits
 110              		.align	2
 111              		.global	DataIn_Port6_InterruptDisable
 112              		.thumb
 113              		.thumb_func
 114              		.type	DataIn_Port6_InterruptDisable, %function
 115              	DataIn_Port6_InterruptDisable:
 116              	.LFB2:
  64:Generated_Source\PSoC5/DataIn_Port6.c **** 
  65:Generated_Source\PSoC5/DataIn_Port6.c **** 
  66:Generated_Source\PSoC5/DataIn_Port6.c **** /*******************************************************************************
  67:Generated_Source\PSoC5/DataIn_Port6.c **** * Function Name: DataIn_Port6_InterruptDisable
  68:Generated_Source\PSoC5/DataIn_Port6.c **** ********************************************************************************
  69:Generated_Source\PSoC5/DataIn_Port6.c **** *
  70:Generated_Source\PSoC5/DataIn_Port6.c **** * Summary:
  71:Generated_Source\PSoC5/DataIn_Port6.c **** *  Disables the Status Register interrupt.
  72:Generated_Source\PSoC5/DataIn_Port6.c **** *
  73:Generated_Source\PSoC5/DataIn_Port6.c **** * Parameters:
  74:Generated_Source\PSoC5/DataIn_Port6.c **** *  None.
  75:Generated_Source\PSoC5/DataIn_Port6.c **** *
  76:Generated_Source\PSoC5/DataIn_Port6.c **** * Return:
  77:Generated_Source\PSoC5/DataIn_Port6.c **** *  None.
  78:Generated_Source\PSoC5/DataIn_Port6.c **** *
  79:Generated_Source\PSoC5/DataIn_Port6.c **** *******************************************************************************/
  80:Generated_Source\PSoC5/DataIn_Port6.c **** void DataIn_Port6_InterruptDisable(void) 
  81:Generated_Source\PSoC5/DataIn_Port6.c **** {
 117              		.loc 1 81 0
 118              		.cfi_startproc
 119              		@ args = 0, pretend = 0, frame = 8
 120              		@ frame_needed = 1, uses_anonymous_args = 0
 121 0000 80B5     		push	{r7, lr}
 122              		.cfi_def_cfa_offset 8
 123              		.cfi_offset 7, -8
 124              		.cfi_offset 14, -4
 125 0002 82B0     		sub	sp, sp, #8
 126              		.cfi_def_cfa_offset 16
 127 0004 00AF     		add	r7, sp, #0
 128              		.cfi_def_cfa_register 7
  82:Generated_Source\PSoC5/DataIn_Port6.c ****     uint8 interruptState;
  83:Generated_Source\PSoC5/DataIn_Port6.c ****     interruptState = CyEnterCriticalSection();
 129              		.loc 1 83 0
 130 0006 FFF7FEFF 		bl	CyEnterCriticalSection
 131 000a 0346     		mov	r3, r0
 132 000c FB71     		strb	r3, [r7, #7]
  84:Generated_Source\PSoC5/DataIn_Port6.c ****     DataIn_Port6_Status_Aux_Ctrl &= (uint8)(~DataIn_Port6_STATUS_INTR_ENBL);
 133              		.loc 1 84 0
 134 000e 084A     		ldr	r2, .L9
 135 0010 074B     		ldr	r3, .L9
 136 0012 1B78     		ldrb	r3, [r3]
 137 0014 DBB2     		uxtb	r3, r3
 138 0016 23F01003 		bic	r3, r3, #16
 139 001a DBB2     		uxtb	r3, r3
 140 001c 1370     		strb	r3, [r2]
  85:Generated_Source\PSoC5/DataIn_Port6.c ****     CyExitCriticalSection(interruptState);
 141              		.loc 1 85 0
 142 001e FB79     		ldrb	r3, [r7, #7]	@ zero_extendqisi2
 143 0020 1846     		mov	r0, r3
ARM GAS  C:\Users\DGILLI~1\AppData\Local\Temp\ccTNAMWr.s 			page 5


 144 0022 FFF7FEFF 		bl	CyExitCriticalSection
  86:Generated_Source\PSoC5/DataIn_Port6.c **** }
 145              		.loc 1 86 0
 146 0026 00BF     		nop
 147 0028 0837     		adds	r7, r7, #8
 148              		.cfi_def_cfa_offset 8
 149 002a BD46     		mov	sp, r7
 150              		.cfi_def_cfa_register 13
 151              		@ sp needed
 152 002c 80BD     		pop	{r7, pc}
 153              	.L10:
 154 002e 00BF     		.align	2
 155              	.L9:
 156 0030 93640040 		.word	1073767571
 157              		.cfi_endproc
 158              	.LFE2:
 159              		.size	DataIn_Port6_InterruptDisable, .-DataIn_Port6_InterruptDisable
 160              		.section	.text.DataIn_Port6_WriteMask,"ax",%progbits
 161              		.align	2
 162              		.global	DataIn_Port6_WriteMask
 163              		.thumb
 164              		.thumb_func
 165              		.type	DataIn_Port6_WriteMask, %function
 166              	DataIn_Port6_WriteMask:
 167              	.LFB3:
  87:Generated_Source\PSoC5/DataIn_Port6.c **** 
  88:Generated_Source\PSoC5/DataIn_Port6.c **** 
  89:Generated_Source\PSoC5/DataIn_Port6.c **** /*******************************************************************************
  90:Generated_Source\PSoC5/DataIn_Port6.c **** * Function Name: DataIn_Port6_WriteMask
  91:Generated_Source\PSoC5/DataIn_Port6.c **** ********************************************************************************
  92:Generated_Source\PSoC5/DataIn_Port6.c **** *
  93:Generated_Source\PSoC5/DataIn_Port6.c **** * Summary:
  94:Generated_Source\PSoC5/DataIn_Port6.c **** *  Writes the current mask value assigned to the Status Register.
  95:Generated_Source\PSoC5/DataIn_Port6.c **** *
  96:Generated_Source\PSoC5/DataIn_Port6.c **** * Parameters:
  97:Generated_Source\PSoC5/DataIn_Port6.c **** *  mask:  Value to write into the mask register.
  98:Generated_Source\PSoC5/DataIn_Port6.c **** *
  99:Generated_Source\PSoC5/DataIn_Port6.c **** * Return:
 100:Generated_Source\PSoC5/DataIn_Port6.c **** *  None.
 101:Generated_Source\PSoC5/DataIn_Port6.c **** *
 102:Generated_Source\PSoC5/DataIn_Port6.c **** *******************************************************************************/
 103:Generated_Source\PSoC5/DataIn_Port6.c **** void DataIn_Port6_WriteMask(uint8 mask) 
 104:Generated_Source\PSoC5/DataIn_Port6.c **** {
 168              		.loc 1 104 0
 169              		.cfi_startproc
 170              		@ args = 0, pretend = 0, frame = 8
 171              		@ frame_needed = 1, uses_anonymous_args = 0
 172              		@ link register save eliminated.
 173 0000 80B4     		push	{r7}
 174              		.cfi_def_cfa_offset 4
 175              		.cfi_offset 7, -4
 176 0002 83B0     		sub	sp, sp, #12
 177              		.cfi_def_cfa_offset 16
 178 0004 00AF     		add	r7, sp, #0
 179              		.cfi_def_cfa_register 7
 180 0006 0346     		mov	r3, r0
 181 0008 FB71     		strb	r3, [r7, #7]
ARM GAS  C:\Users\DGILLI~1\AppData\Local\Temp\ccTNAMWr.s 			page 6


 105:Generated_Source\PSoC5/DataIn_Port6.c ****     #if(DataIn_Port6_INPUTS < 8u)
 106:Generated_Source\PSoC5/DataIn_Port6.c ****     	mask &= ((uint8)(1u << DataIn_Port6_INPUTS) - 1u);
 107:Generated_Source\PSoC5/DataIn_Port6.c **** 	#endif /* End DataIn_Port6_INPUTS < 8u */
 108:Generated_Source\PSoC5/DataIn_Port6.c ****     DataIn_Port6_Status_Mask = mask;
 182              		.loc 1 108 0
 183 000a 044A     		ldr	r2, .L12
 184 000c FB79     		ldrb	r3, [r7, #7]
 185 000e 1370     		strb	r3, [r2]
 109:Generated_Source\PSoC5/DataIn_Port6.c **** }
 186              		.loc 1 109 0
 187 0010 00BF     		nop
 188 0012 0C37     		adds	r7, r7, #12
 189              		.cfi_def_cfa_offset 4
 190 0014 BD46     		mov	sp, r7
 191              		.cfi_def_cfa_register 13
 192              		@ sp needed
 193 0016 80BC     		pop	{r7}
 194              		.cfi_restore 7
 195              		.cfi_def_cfa_offset 0
 196 0018 7047     		bx	lr
 197              	.L13:
 198 001a 00BF     		.align	2
 199              	.L12:
 200 001c 83640040 		.word	1073767555
 201              		.cfi_endproc
 202              	.LFE3:
 203              		.size	DataIn_Port6_WriteMask, .-DataIn_Port6_WriteMask
 204              		.section	.text.DataIn_Port6_ReadMask,"ax",%progbits
 205              		.align	2
 206              		.global	DataIn_Port6_ReadMask
 207              		.thumb
 208              		.thumb_func
 209              		.type	DataIn_Port6_ReadMask, %function
 210              	DataIn_Port6_ReadMask:
 211              	.LFB4:
 110:Generated_Source\PSoC5/DataIn_Port6.c **** 
 111:Generated_Source\PSoC5/DataIn_Port6.c **** 
 112:Generated_Source\PSoC5/DataIn_Port6.c **** /*******************************************************************************
 113:Generated_Source\PSoC5/DataIn_Port6.c **** * Function Name: DataIn_Port6_ReadMask
 114:Generated_Source\PSoC5/DataIn_Port6.c **** ********************************************************************************
 115:Generated_Source\PSoC5/DataIn_Port6.c **** *
 116:Generated_Source\PSoC5/DataIn_Port6.c **** * Summary:
 117:Generated_Source\PSoC5/DataIn_Port6.c **** *  Reads the current interrupt mask assigned to the Status Register.
 118:Generated_Source\PSoC5/DataIn_Port6.c **** *
 119:Generated_Source\PSoC5/DataIn_Port6.c **** * Parameters:
 120:Generated_Source\PSoC5/DataIn_Port6.c **** *  None.
 121:Generated_Source\PSoC5/DataIn_Port6.c **** *
 122:Generated_Source\PSoC5/DataIn_Port6.c **** * Return:
 123:Generated_Source\PSoC5/DataIn_Port6.c **** *  The value of the interrupt mask of the Status Register.
 124:Generated_Source\PSoC5/DataIn_Port6.c **** *
 125:Generated_Source\PSoC5/DataIn_Port6.c **** *******************************************************************************/
 126:Generated_Source\PSoC5/DataIn_Port6.c **** uint8 DataIn_Port6_ReadMask(void) 
 127:Generated_Source\PSoC5/DataIn_Port6.c **** {
 212              		.loc 1 127 0
 213              		.cfi_startproc
 214              		@ args = 0, pretend = 0, frame = 0
 215              		@ frame_needed = 1, uses_anonymous_args = 0
ARM GAS  C:\Users\DGILLI~1\AppData\Local\Temp\ccTNAMWr.s 			page 7


 216              		@ link register save eliminated.
 217 0000 80B4     		push	{r7}
 218              		.cfi_def_cfa_offset 4
 219              		.cfi_offset 7, -4
 220 0002 00AF     		add	r7, sp, #0
 221              		.cfi_def_cfa_register 7
 128:Generated_Source\PSoC5/DataIn_Port6.c ****     return DataIn_Port6_Status_Mask;
 222              		.loc 1 128 0
 223 0004 034B     		ldr	r3, .L16
 224 0006 1B78     		ldrb	r3, [r3]
 225 0008 DBB2     		uxtb	r3, r3
 129:Generated_Source\PSoC5/DataIn_Port6.c **** }
 226              		.loc 1 129 0
 227 000a 1846     		mov	r0, r3
 228 000c BD46     		mov	sp, r7
 229              		.cfi_def_cfa_register 13
 230              		@ sp needed
 231 000e 80BC     		pop	{r7}
 232              		.cfi_restore 7
 233              		.cfi_def_cfa_offset 0
 234 0010 7047     		bx	lr
 235              	.L17:
 236 0012 00BF     		.align	2
 237              	.L16:
 238 0014 83640040 		.word	1073767555
 239              		.cfi_endproc
 240              	.LFE4:
 241              		.size	DataIn_Port6_ReadMask, .-DataIn_Port6_ReadMask
 242              		.text
 243              	.Letext0:
 244              		.file 2 "Generated_Source\\PSoC5\\cytypes.h"