ARM GAS  C:\Users\HPz420\AppData\Local\Temp\ccRPof46.s 			page 1


   1              		.syntax unified
   2              		.cpu cortex-m3
   3              		.fpu softvfp
   4              		.eabi_attribute 20, 1
   5              		.eabi_attribute 21, 1
   6              		.eabi_attribute 23, 3
   7              		.eabi_attribute 24, 1
   8              		.eabi_attribute 25, 1
   9              		.eabi_attribute 26, 1
  10              		.eabi_attribute 30, 6
  11              		.eabi_attribute 34, 1
  12              		.eabi_attribute 18, 4
  13              		.thumb
  14              		.syntax unified
  15              		.file	"DIGIO8Driver.c"
  16              		.text
  17              	.Ltext0:
  18              		.cfi_sections	.debug_frame
  19              		.comm	myWrBuffer,2,4
  20              		.section	.text.readRegisterDIGIO8Card,"ax",%progbits
  21              		.align	2
  22              		.global	readRegisterDIGIO8Card
  23              		.thumb
  24              		.thumb_func
  25              		.type	readRegisterDIGIO8Card, %function
  26              	readRegisterDIGIO8Card:
  27              	.LFB63:
  28              		.file 1 "DIGIO8Driver.c"
   1:DIGIO8Driver.c ****  /* ========================================
   2:DIGIO8Driver.c ****  * DIGIO8Driver.c
   3:DIGIO8Driver.c ****  * Copyright Land Boards LLC, 2017
   4:DIGIO8Driver.c ****  * All Rights Reserved
   5:DIGIO8Driver.c ****  * UNPUBLISHED, LICENSED SOFTWARE.
   6:DIGIO8Driver.c ****  *
   7:DIGIO8Driver.c ****  * CONFIDENTIAL AND PROPRIETARY INFORMATION
   8:DIGIO8Driver.c ****  * WHICH IS THE PROPERTY OF Land Boards, LLC.
   9:DIGIO8Driver.c ****  *
  10:DIGIO8Driver.c ****  * ======================================== */
  11:DIGIO8Driver.c **** 
  12:DIGIO8Driver.c **** #include <project.h>
  13:DIGIO8Driver.c **** #include "RPI_PSOC5.h"
  14:DIGIO8Driver.c **** 
  15:DIGIO8Driver.c **** uint8 myWrBuffer[2];
  16:DIGIO8Driver.c ****  
  17:DIGIO8Driver.c **** //////////////////////////////////////////////////////////////////////////////
  18:DIGIO8Driver.c **** // uint8 readRegisterDIGIO8Card(ctrlAdr) - 
  19:DIGIO8Driver.c **** //////////////////////////////////////////////////////////////////////////////
  20:DIGIO8Driver.c **** 
  21:DIGIO8Driver.c **** uint8 readRegisterDIGIO8Card(uint8 slaveAdr, uint8 ctrlAdr)
  22:DIGIO8Driver.c **** {
  29              		.loc 1 22 0
  30              		.cfi_startproc
  31              		@ args = 0, pretend = 0, frame = 16
  32              		@ frame_needed = 1, uses_anonymous_args = 0
  33 0000 80B5     		push	{r7, lr}
  34              		.cfi_def_cfa_offset 8
  35              		.cfi_offset 7, -8
ARM GAS  C:\Users\HPz420\AppData\Local\Temp\ccRPof46.s 			page 2


  36              		.cfi_offset 14, -4
  37 0002 84B0     		sub	sp, sp, #16
  38              		.cfi_def_cfa_offset 24
  39 0004 00AF     		add	r7, sp, #0
  40              		.cfi_def_cfa_register 7
  41 0006 0346     		mov	r3, r0
  42 0008 0A46     		mov	r2, r1
  43 000a FB71     		strb	r3, [r7, #7]
  44 000c 1346     		mov	r3, r2
  45 000e BB71     		strb	r3, [r7, #6]
  23:DIGIO8Driver.c ****     uint8 rdBuff;
  24:DIGIO8Driver.c ****     I2C1_MasterClearStatus();
  46              		.loc 1 24 0
  47 0010 FFF7FEFF 		bl	I2C1_MasterClearStatus
  25:DIGIO8Driver.c ****     I2C1_MasterSendStart(MPC23008_SLAVE_ADDR,I2C1_WRITE_XFER_MODE);
  48              		.loc 1 25 0
  49 0014 0021     		movs	r1, #0
  50 0016 2020     		movs	r0, #32
  51 0018 FFF7FEFF 		bl	I2C1_MasterSendStart
  26:DIGIO8Driver.c ****     I2C1_MasterWriteByte(ctrlAdr);
  52              		.loc 1 26 0
  53 001c BB79     		ldrb	r3, [r7, #6]	@ zero_extendqisi2
  54 001e 1846     		mov	r0, r3
  55 0020 FFF7FEFF 		bl	I2C1_MasterWriteByte
  27:DIGIO8Driver.c ****     I2C1_MasterSendStop();
  56              		.loc 1 27 0
  57 0024 FFF7FEFF 		bl	I2C1_MasterSendStop
  28:DIGIO8Driver.c **** //    while ((I2C1_MasterStatus() & I2C1_MSTAT_WR_CMPLT) == 0);
  29:DIGIO8Driver.c ****     I2C1_MasterSendStart(slaveAdr,I2C1_READ_XFER_MODE);
  58              		.loc 1 29 0
  59 0028 FB79     		ldrb	r3, [r7, #7]	@ zero_extendqisi2
  60 002a 0121     		movs	r1, #1
  61 002c 1846     		mov	r0, r3
  62 002e FFF7FEFF 		bl	I2C1_MasterSendStart
  30:DIGIO8Driver.c ****     rdBuff = I2C1_MasterReadByte(I2C1_NAK_DATA);
  63              		.loc 1 30 0
  64 0032 0020     		movs	r0, #0
  65 0034 FFF7FEFF 		bl	I2C1_MasterReadByte
  66 0038 0346     		mov	r3, r0
  67 003a FB73     		strb	r3, [r7, #15]
  31:DIGIO8Driver.c ****     I2C1_MasterSendStop();
  68              		.loc 1 31 0
  69 003c FFF7FEFF 		bl	I2C1_MasterSendStop
  32:DIGIO8Driver.c **** //    while ((I2C1_MasterStatus() & I2C1_MSTAT_RD_CMPLT) == 0);
  33:DIGIO8Driver.c ****     I2C1_MasterClearStatus();
  70              		.loc 1 33 0
  71 0040 FFF7FEFF 		bl	I2C1_MasterClearStatus
  34:DIGIO8Driver.c ****     return rdBuff;
  72              		.loc 1 34 0
  73 0044 FB7B     		ldrb	r3, [r7, #15]	@ zero_extendqisi2
  35:DIGIO8Driver.c **** }
  74              		.loc 1 35 0
  75 0046 1846     		mov	r0, r3
  76 0048 1037     		adds	r7, r7, #16
  77              		.cfi_def_cfa_offset 8
  78 004a BD46     		mov	sp, r7
  79              		.cfi_def_cfa_register 13
ARM GAS  C:\Users\HPz420\AppData\Local\Temp\ccRPof46.s 			page 3


  80              		@ sp needed
  81 004c 80BD     		pop	{r7, pc}
  82              		.cfi_endproc
  83              	.LFE63:
  84              		.size	readRegisterDIGIO8Card, .-readRegisterDIGIO8Card
  85 004e 00BF     		.section	.text.writeRegisterDIGIO8Card,"ax",%progbits
  86              		.align	2
  87              		.global	writeRegisterDIGIO8Card
  88              		.thumb
  89              		.thumb_func
  90              		.type	writeRegisterDIGIO8Card, %function
  91              	writeRegisterDIGIO8Card:
  92              	.LFB64:
  36:DIGIO8Driver.c **** 
  37:DIGIO8Driver.c **** //////////////////////////////////////////////////////////////////////////////
  38:DIGIO8Driver.c **** // writeRegisterDIGIO8Card(ctrlAdr, ctrlVal) - 
  39:DIGIO8Driver.c **** //////////////////////////////////////////////////////////////////////////////
  40:DIGIO8Driver.c **** 
  41:DIGIO8Driver.c **** void writeRegisterDIGIO8Card(uint8 slaveAdr, uint8 ctrlAdr, uint8 ctrlVal)
  42:DIGIO8Driver.c **** {
  93              		.loc 1 42 0
  94              		.cfi_startproc
  95              		@ args = 0, pretend = 0, frame = 8
  96              		@ frame_needed = 1, uses_anonymous_args = 0
  97 0000 80B5     		push	{r7, lr}
  98              		.cfi_def_cfa_offset 8
  99              		.cfi_offset 7, -8
 100              		.cfi_offset 14, -4
 101 0002 82B0     		sub	sp, sp, #8
 102              		.cfi_def_cfa_offset 16
 103 0004 00AF     		add	r7, sp, #0
 104              		.cfi_def_cfa_register 7
 105 0006 0346     		mov	r3, r0
 106 0008 FB71     		strb	r3, [r7, #7]
 107 000a 0B46     		mov	r3, r1
 108 000c BB71     		strb	r3, [r7, #6]
 109 000e 1346     		mov	r3, r2
 110 0010 7B71     		strb	r3, [r7, #5]
  43:DIGIO8Driver.c ****     I2C1_MasterClearStatus();
 111              		.loc 1 43 0
 112 0012 FFF7FEFF 		bl	I2C1_MasterClearStatus
  44:DIGIO8Driver.c ****     myWrBuffer[0] = ctrlAdr;
 113              		.loc 1 44 0
 114 0016 0D4A     		ldr	r2, .L5
 115 0018 BB79     		ldrb	r3, [r7, #6]
 116 001a 1370     		strb	r3, [r2]
  45:DIGIO8Driver.c ****     myWrBuffer[1] = ctrlVal;
 117              		.loc 1 45 0
 118 001c 0B4A     		ldr	r2, .L5
 119 001e 7B79     		ldrb	r3, [r7, #5]
 120 0020 5370     		strb	r3, [r2, #1]
  46:DIGIO8Driver.c ****     I2C1_MasterWriteBuf(slaveAdr, myWrBuffer, 2, I2C1_MODE_COMPLETE_XFER);
 121              		.loc 1 46 0
 122 0022 F879     		ldrb	r0, [r7, #7]	@ zero_extendqisi2
 123 0024 0023     		movs	r3, #0
 124 0026 0222     		movs	r2, #2
 125 0028 0849     		ldr	r1, .L5
ARM GAS  C:\Users\HPz420\AppData\Local\Temp\ccRPof46.s 			page 4


 126 002a FFF7FEFF 		bl	I2C1_MasterWriteBuf
  47:DIGIO8Driver.c ****     while (0u == (I2C1_MasterStatus() & I2C1_MSTAT_WR_CMPLT));
 127              		.loc 1 47 0
 128 002e 00BF     		nop
 129              	.L4:
 130              		.loc 1 47 0 is_stmt 0 discriminator 1
 131 0030 FFF7FEFF 		bl	I2C1_MasterStatus
 132 0034 0346     		mov	r3, r0
 133 0036 03F00203 		and	r3, r3, #2
 134 003a 002B     		cmp	r3, #0
 135 003c F8D0     		beq	.L4
  48:DIGIO8Driver.c ****     I2C1_MasterClearStatus();
 136              		.loc 1 48 0 is_stmt 1
 137 003e FFF7FEFF 		bl	I2C1_MasterClearStatus
  49:DIGIO8Driver.c **** }
 138              		.loc 1 49 0
 139 0042 00BF     		nop
 140 0044 0837     		adds	r7, r7, #8
 141              		.cfi_def_cfa_offset 8
 142 0046 BD46     		mov	sp, r7
 143              		.cfi_def_cfa_register 13
 144              		@ sp needed
 145 0048 80BD     		pop	{r7, pc}
 146              	.L6:
 147 004a 00BF     		.align	2
 148              	.L5:
 149 004c 00000000 		.word	myWrBuffer
 150              		.cfi_endproc
 151              	.LFE64:
 152              		.size	writeRegisterDIGIO8Card, .-writeRegisterDIGIO8Card
 153              		.section	.text.writeDIGIO8Card,"ax",%progbits
 154              		.align	2
 155              		.global	writeDIGIO8Card
 156              		.thumb
 157              		.thumb_func
 158              		.type	writeDIGIO8Card, %function
 159              	writeDIGIO8Card:
 160              	.LFB65:
  50:DIGIO8Driver.c **** 
  51:DIGIO8Driver.c **** //////////////////////////////////////////////////////////////////////////////
  52:DIGIO8Driver.c **** // writeDIGIO8Card(uint8_t outData) - 
  53:DIGIO8Driver.c **** //////////////////////////////////////////////////////////////////////////////
  54:DIGIO8Driver.c **** 
  55:DIGIO8Driver.c **** void writeDIGIO8Card(uint8 slaveAdr, uint8 outData)
  56:DIGIO8Driver.c **** {
 161              		.loc 1 56 0
 162              		.cfi_startproc
 163              		@ args = 0, pretend = 0, frame = 8
 164              		@ frame_needed = 1, uses_anonymous_args = 0
 165 0000 80B5     		push	{r7, lr}
 166              		.cfi_def_cfa_offset 8
 167              		.cfi_offset 7, -8
 168              		.cfi_offset 14, -4
 169 0002 82B0     		sub	sp, sp, #8
 170              		.cfi_def_cfa_offset 16
 171 0004 00AF     		add	r7, sp, #0
 172              		.cfi_def_cfa_register 7
ARM GAS  C:\Users\HPz420\AppData\Local\Temp\ccRPof46.s 			page 5


 173 0006 0346     		mov	r3, r0
 174 0008 0A46     		mov	r2, r1
 175 000a FB71     		strb	r3, [r7, #7]
 176 000c 1346     		mov	r3, r2
 177 000e BB71     		strb	r3, [r7, #6]
  57:DIGIO8Driver.c ****      writeRegisterDIGIO8Card(slaveAdr,MCP23008_OLAT_REGADR,outData);
 178              		.loc 1 57 0
 179 0010 BA79     		ldrb	r2, [r7, #6]	@ zero_extendqisi2
 180 0012 FB79     		ldrb	r3, [r7, #7]	@ zero_extendqisi2
 181 0014 0A21     		movs	r1, #10
 182 0016 1846     		mov	r0, r3
 183 0018 FFF7FEFF 		bl	writeRegisterDIGIO8Card
  58:DIGIO8Driver.c **** }
 184              		.loc 1 58 0
 185 001c 00BF     		nop
 186 001e 0837     		adds	r7, r7, #8
 187              		.cfi_def_cfa_offset 8
 188 0020 BD46     		mov	sp, r7
 189              		.cfi_def_cfa_register 13
 190              		@ sp needed
 191 0022 80BD     		pop	{r7, pc}
 192              		.cfi_endproc
 193              	.LFE65:
 194              		.size	writeDIGIO8Card, .-writeDIGIO8Card
 195              		.section	.text.readDIGIO8Card,"ax",%progbits
 196              		.align	2
 197              		.global	readDIGIO8Card
 198              		.thumb
 199              		.thumb_func
 200              		.type	readDIGIO8Card, %function
 201              	readDIGIO8Card:
 202              	.LFB66:
  59:DIGIO8Driver.c **** 
  60:DIGIO8Driver.c **** //////////////////////////////////////////////////////////////////////////////
  61:DIGIO8Driver.c **** // readDIGIO8Card(void)
  62:DIGIO8Driver.c **** //////////////////////////////////////////////////////////////////////////////
  63:DIGIO8Driver.c **** 
  64:DIGIO8Driver.c **** uint8 readDIGIO8Card(uint8 slaveAdr)
  65:DIGIO8Driver.c **** {
 203              		.loc 1 65 0
 204              		.cfi_startproc
 205              		@ args = 0, pretend = 0, frame = 16
 206              		@ frame_needed = 1, uses_anonymous_args = 0
 207 0000 80B5     		push	{r7, lr}
 208              		.cfi_def_cfa_offset 8
 209              		.cfi_offset 7, -8
 210              		.cfi_offset 14, -4
 211 0002 84B0     		sub	sp, sp, #16
 212              		.cfi_def_cfa_offset 24
 213 0004 00AF     		add	r7, sp, #0
 214              		.cfi_def_cfa_register 7
 215 0006 0346     		mov	r3, r0
 216 0008 FB71     		strb	r3, [r7, #7]
  66:DIGIO8Driver.c ****     uint8 rdBuff;
  67:DIGIO8Driver.c ****     rdBuff = readRegisterDIGIO8Card(slaveAdr,MCP23008_GPIO_REGADR);
 217              		.loc 1 67 0
 218 000a FB79     		ldrb	r3, [r7, #7]	@ zero_extendqisi2
ARM GAS  C:\Users\HPz420\AppData\Local\Temp\ccRPof46.s 			page 6


 219 000c 0921     		movs	r1, #9
 220 000e 1846     		mov	r0, r3
 221 0010 FFF7FEFF 		bl	readRegisterDIGIO8Card
 222 0014 0346     		mov	r3, r0
 223 0016 FB73     		strb	r3, [r7, #15]
  68:DIGIO8Driver.c ****     return rdBuff>>4;
 224              		.loc 1 68 0
 225 0018 FB7B     		ldrb	r3, [r7, #15]	@ zero_extendqisi2
 226 001a 1B09     		lsrs	r3, r3, #4
 227 001c DBB2     		uxtb	r3, r3
  69:DIGIO8Driver.c **** }
 228              		.loc 1 69 0
 229 001e 1846     		mov	r0, r3
 230 0020 1037     		adds	r7, r7, #16
 231              		.cfi_def_cfa_offset 8
 232 0022 BD46     		mov	sp, r7
 233              		.cfi_def_cfa_register 13
 234              		@ sp needed
 235 0024 80BD     		pop	{r7, pc}
 236              		.cfi_endproc
 237              	.LFE66:
 238              		.size	readDIGIO8Card, .-readDIGIO8Card
 239 0026 00BF     		.section	.text.initDIGIO8Card,"ax",%progbits
 240              		.align	2
 241              		.global	initDIGIO8Card
 242              		.thumb
 243              		.thumb_func
 244              		.type	initDIGIO8Card, %function
 245              	initDIGIO8Card:
 246              	.LFB67:
  70:DIGIO8Driver.c **** 
  71:DIGIO8Driver.c **** //////////////////////////////////////////////////////////////////////////////
  72:DIGIO8Driver.c **** // initDIGIO8Card(void) - 
  73:DIGIO8Driver.c **** //////////////////////////////////////////////////////////////////////////////
  74:DIGIO8Driver.c **** 
  75:DIGIO8Driver.c **** void initDIGIO8Card(uint8 slaveAdr)
  76:DIGIO8Driver.c **** {
 247              		.loc 1 76 0
 248              		.cfi_startproc
 249              		@ args = 0, pretend = 0, frame = 8
 250              		@ frame_needed = 1, uses_anonymous_args = 0
 251 0000 80B5     		push	{r7, lr}
 252              		.cfi_def_cfa_offset 8
 253              		.cfi_offset 7, -8
 254              		.cfi_offset 14, -4
 255 0002 82B0     		sub	sp, sp, #8
 256              		.cfi_def_cfa_offset 16
 257 0004 00AF     		add	r7, sp, #0
 258              		.cfi_def_cfa_register 7
 259 0006 0346     		mov	r3, r0
 260 0008 FB71     		strb	r3, [r7, #7]
  77:DIGIO8Driver.c ****     I2C1_Start();    // Kick off the I2C interface
 261              		.loc 1 77 0
 262 000a FFF7FEFF 		bl	I2C1_Start
  78:DIGIO8Driver.c ****     writeRegisterDIGIO8Card(slaveAdr,MCP23008_IODIR_REGADR,MCP23008_IODIR_DEFVAL);
 263              		.loc 1 78 0
 264 000e FB79     		ldrb	r3, [r7, #7]	@ zero_extendqisi2
ARM GAS  C:\Users\HPz420\AppData\Local\Temp\ccRPof46.s 			page 7


 265 0010 F022     		movs	r2, #240
 266 0012 0021     		movs	r1, #0
 267 0014 1846     		mov	r0, r3
 268 0016 FFF7FEFF 		bl	writeRegisterDIGIO8Card
  79:DIGIO8Driver.c ****     writeRegisterDIGIO8Card(slaveAdr,MCP23008_GPIO_REGADR,MCP23008_GPIO_DEFVAL);
 269              		.loc 1 79 0
 270 001a FB79     		ldrb	r3, [r7, #7]	@ zero_extendqisi2
 271 001c 0022     		movs	r2, #0
 272 001e 0921     		movs	r1, #9
 273 0020 1846     		mov	r0, r3
 274 0022 FFF7FEFF 		bl	writeRegisterDIGIO8Card
  80:DIGIO8Driver.c ****     writeRegisterDIGIO8Card(slaveAdr,MCP23008_INTCON_REGADR,MCP23008_INTCON_DEFVAL);
 275              		.loc 1 80 0
 276 0026 FB79     		ldrb	r3, [r7, #7]	@ zero_extendqisi2
 277 0028 0022     		movs	r2, #0
 278 002a 0421     		movs	r1, #4
 279 002c 1846     		mov	r0, r3
 280 002e FFF7FEFF 		bl	writeRegisterDIGIO8Card
  81:DIGIO8Driver.c ****     writeRegisterDIGIO8Card(slaveAdr,MCP23008_IOCON_REGADR,MCP23008_IOCON_DEFVAL);
 281              		.loc 1 81 0
 282 0032 FB79     		ldrb	r3, [r7, #7]	@ zero_extendqisi2
 283 0034 0022     		movs	r2, #0
 284 0036 0521     		movs	r1, #5
 285 0038 1846     		mov	r0, r3
 286 003a FFF7FEFF 		bl	writeRegisterDIGIO8Card
  82:DIGIO8Driver.c ****     writeRegisterDIGIO8Card(slaveAdr,MCP23008_IPOL_REGADR,MCP23008_IPOL_DEFVAL);
 287              		.loc 1 82 0
 288 003e FB79     		ldrb	r3, [r7, #7]	@ zero_extendqisi2
 289 0040 F022     		movs	r2, #240
 290 0042 0121     		movs	r1, #1
 291 0044 1846     		mov	r0, r3
 292 0046 FFF7FEFF 		bl	writeRegisterDIGIO8Card
  83:DIGIO8Driver.c ****     writeRegisterDIGIO8Card(slaveAdr,MCP23008_GPINTEN_REGADR,MCP23008_GPINTEN_DEFVAL);
 293              		.loc 1 83 0
 294 004a FB79     		ldrb	r3, [r7, #7]	@ zero_extendqisi2
 295 004c F022     		movs	r2, #240
 296 004e 0221     		movs	r1, #2
 297 0050 1846     		mov	r0, r3
 298 0052 FFF7FEFF 		bl	writeRegisterDIGIO8Card
  84:DIGIO8Driver.c ****     writeRegisterDIGIO8Card(slaveAdr,MCP23008_GPPU_REGADR,MCP23008_GPPU_DEFVAL);
 299              		.loc 1 84 0
 300 0056 FB79     		ldrb	r3, [r7, #7]	@ zero_extendqisi2
 301 0058 F022     		movs	r2, #240
 302 005a 0621     		movs	r1, #6
 303 005c 1846     		mov	r0, r3
 304 005e FFF7FEFF 		bl	writeRegisterDIGIO8Card
  85:DIGIO8Driver.c ****     readRegisterDIGIO8Card(slaveAdr,MCP23008_INTCAP_REGADR); // Clear interrupt LED
 305              		.loc 1 85 0
 306 0062 FB79     		ldrb	r3, [r7, #7]	@ zero_extendqisi2
 307 0064 0821     		movs	r1, #8
 308 0066 1846     		mov	r0, r3
 309 0068 FFF7FEFF 		bl	readRegisterDIGIO8Card
  86:DIGIO8Driver.c **** }
 310              		.loc 1 86 0
 311 006c 00BF     		nop
 312 006e 0837     		adds	r7, r7, #8
 313              		.cfi_def_cfa_offset 8
ARM GAS  C:\Users\HPz420\AppData\Local\Temp\ccRPof46.s 			page 8


 314 0070 BD46     		mov	sp, r7
 315              		.cfi_def_cfa_register 13
 316              		@ sp needed
 317 0072 80BD     		pop	{r7, pc}
 318              		.cfi_endproc
 319              	.LFE67:
 320              		.size	initDIGIO8Card, .-initDIGIO8Card
 321              		.text
 322              	.Letext0:
 323              		.file 2 "c:\\program files (x86)\\cypress\\psoc creator\\4.4\\psoc creator\\import\\gnu\\arm\\5.4.
 324              		.file 3 "c:\\program files (x86)\\cypress\\psoc creator\\4.4\\psoc creator\\import\\gnu\\arm\\5.4.
 325              		.file 4 "Generated_Source\\PSoC5/cytypes.h"
 326              		.file 5 "Generated_Source\\PSoC5/core_cm3.h"