ARM GAS  C:\Users\HPz420\AppData\Local\Temp\ccEF7LRu.s 			page 1


   1              		.syntax unified
   2              		.cpu cortex-m3
   3              		.fpu softvfp
   4              		.eabi_attribute 20, 1
   5              		.eabi_attribute 21, 1
   6              		.eabi_attribute 23, 3
   7              		.eabi_attribute 24, 1
   8              		.eabi_attribute 25, 1
   9              		.eabi_attribute 26, 1
  10              		.eabi_attribute 30, 6
  11              		.eabi_attribute 34, 1
  12              		.eabi_attribute 18, 4
  13              		.thumb
  14              		.syntax unified
  15              		.file	"ExtEEPROM.c"
  16              		.text
  17              	.Ltext0:
  18              		.cfi_sections	.debug_frame
  19              		.section	.text.readEEPROM,"ax",%progbits
  20              		.align	2
  21              		.global	readEEPROM
  22              		.thumb
  23              		.thumb_func
  24              		.type	readEEPROM, %function
  25              	readEEPROM:
  26              	.LFB64:
  27              		.file 1 "ExtEEPROM.c"
   1:ExtEEPROM.c   **** /* ========================================
   2:ExtEEPROM.c   ****  *
   3:ExtEEPROM.c   ****  * Copyright LAND BOARDS, LLC, 2019
   4:ExtEEPROM.c   ****  * All Rights Reserved
   5:ExtEEPROM.c   ****  * UNPUBLISHED, LICENSED SOFTWARE.
   6:ExtEEPROM.c   ****  *
   7:ExtEEPROM.c   ****  * CONFIDENTIAL AND PROPRIETARY INFORMATION
   8:ExtEEPROM.c   ****  * WHICH IS THE PROPERTY OF Land Boards.
   9:ExtEEPROM.c   ****  *
  10:ExtEEPROM.c   ****  * ========================================
  11:ExtEEPROM.c   **** */
  12:ExtEEPROM.c   **** 
  13:ExtEEPROM.c   **** #include "RPI_PSOC5.h"
  14:ExtEEPROM.c   **** #include "stdio.h"
  15:ExtEEPROM.c   **** 
  16:ExtEEPROM.c   **** void readEEPROM(uint8 * eepromBuffer)
  17:ExtEEPROM.c   **** {
  28              		.loc 1 17 0
  29              		.cfi_startproc
  30              		@ args = 0, pretend = 0, frame = 16
  31              		@ frame_needed = 1, uses_anonymous_args = 0
  32 0000 80B5     		push	{r7, lr}
  33              		.cfi_def_cfa_offset 8
  34              		.cfi_offset 7, -8
  35              		.cfi_offset 14, -4
  36 0002 84B0     		sub	sp, sp, #16
  37              		.cfi_def_cfa_offset 24
  38 0004 00AF     		add	r7, sp, #0
  39              		.cfi_def_cfa_register 7
  40 0006 7860     		str	r0, [r7, #4]
ARM GAS  C:\Users\HPz420\AppData\Local\Temp\ccEF7LRu.s 			page 2


  18:ExtEEPROM.c   ****     uint8 SLAVE_ADDR = 0x50;
  41              		.loc 1 18 0
  42 0008 5023     		movs	r3, #80
  43 000a FB73     		strb	r3, [r7, #15]
  19:ExtEEPROM.c   ****     uint8 cMessage[2];
  20:ExtEEPROM.c   ****     uint16 cLength = 256;
  44              		.loc 1 20 0
  45 000c 4FF48073 		mov	r3, #256
  46 0010 BB81     		strh	r3, [r7, #12]	@ movhi
  21:ExtEEPROM.c   ****     
  22:ExtEEPROM.c   ****     cMessage[0] = 0;
  47              		.loc 1 22 0
  48 0012 0023     		movs	r3, #0
  49 0014 3B72     		strb	r3, [r7, #8]
  23:ExtEEPROM.c   ****     cMessage[1] = 0;
  50              		.loc 1 23 0
  51 0016 0023     		movs	r3, #0
  52 0018 7B72     		strb	r3, [r7, #9]
  24:ExtEEPROM.c   ****     
  25:ExtEEPROM.c   ****     //write a dummy byte to initialize the address word counter of 
  26:ExtEEPROM.c   ****     //eeprom to start address for read back operation. First location 
  27:ExtEEPROM.c   ****     //of cMessage array has word address.
  28:ExtEEPROM.c   ****     
  29:ExtEEPROM.c   ****     I2C_EEPROM_MasterWriteBuf(SLAVE_ADDR, cMessage, 2, I2C_EEPROM_MODE_COMPLETE_XFER);
  53              		.loc 1 29 0
  54 001a 07F10801 		add	r1, r7, #8
  55 001e F87B     		ldrb	r0, [r7, #15]	@ zero_extendqisi2
  56 0020 0023     		movs	r3, #0
  57 0022 0222     		movs	r2, #2
  58 0024 FFF7FEFF 		bl	I2C_EEPROM_MasterWriteBuf
  30:ExtEEPROM.c   ****     
  31:ExtEEPROM.c   ****     //wait until Transfer is complete
  32:ExtEEPROM.c   ****     while((I2C_EEPROM_MasterStatus() & I2C_EEPROM_MSTAT_WR_CMPLT )==0);
  59              		.loc 1 32 0
  60 0028 00BF     		nop
  61              	.L2:
  62              		.loc 1 32 0 is_stmt 0 discriminator 1
  63 002a FFF7FEFF 		bl	I2C_EEPROM_MasterStatus
  64 002e 0346     		mov	r3, r0
  65 0030 03F00203 		and	r3, r3, #2
  66 0034 002B     		cmp	r3, #0
  67 0036 F8D0     		beq	.L2
  33:ExtEEPROM.c   ****     
  34:ExtEEPROM.c   ****     //Delay for setting address in EEPROM
  35:ExtEEPROM.c   ****     CyDelayUs(1);
  68              		.loc 1 35 0 is_stmt 1
  69 0038 0120     		movs	r0, #1
  70 003a FFF7FEFF 		bl	CyDelayUs
  36:ExtEEPROM.c   ****     
  37:ExtEEPROM.c   ****     //Read the 16 bytes from slave, staring from word address specified by iMessage
  38:ExtEEPROM.c   ****     //SLAVE_ADDR is the slave address in this API
  39:ExtEEPROM.c   ****     //cRx_Buffer is the pointer to array where data has to be stored after reading from EEPROM.
  40:ExtEEPROM.c   ****     //cLength-1 is the number of bytes which have to be read from EEPROM
  41:ExtEEPROM.c   ****     //I2C_MODE_COMPLETE_XFER, is to read data completly before sending stop command.
  42:ExtEEPROM.c   ****     
  43:ExtEEPROM.c   ****     I2C_EEPROM_MasterReadBuf(SLAVE_ADDR, eepromBuffer, cLength-1, I2C_EEPROM_MODE_COMPLETE_XFER );
  71              		.loc 1 43 0
ARM GAS  C:\Users\HPz420\AppData\Local\Temp\ccEF7LRu.s 			page 3


  72 003e BB89     		ldrh	r3, [r7, #12]	@ movhi
  73 0040 DBB2     		uxtb	r3, r3
  74 0042 013B     		subs	r3, r3, #1
  75 0044 DAB2     		uxtb	r2, r3
  76 0046 F87B     		ldrb	r0, [r7, #15]	@ zero_extendqisi2
  77 0048 0023     		movs	r3, #0
  78 004a 7968     		ldr	r1, [r7, #4]
  79 004c FFF7FEFF 		bl	I2C_EEPROM_MasterReadBuf
  44:ExtEEPROM.c   ****             
  45:ExtEEPROM.c   ****     //wait until Transfer is complete
  46:ExtEEPROM.c   ****     while((I2C_EEPROM_MasterStatus() & I2C_EEPROM_MSTAT_RD_CMPLT )==0); 
  80              		.loc 1 46 0
  81 0050 00BF     		nop
  82              	.L3:
  83              		.loc 1 46 0 is_stmt 0 discriminator 1
  84 0052 FFF7FEFF 		bl	I2C_EEPROM_MasterStatus
  85 0056 0346     		mov	r3, r0
  86 0058 03F00103 		and	r3, r3, #1
  87 005c 002B     		cmp	r3, #0
  88 005e F8D0     		beq	.L3
  47:ExtEEPROM.c   **** }
  89              		.loc 1 47 0 is_stmt 1
  90 0060 00BF     		nop
  91 0062 1037     		adds	r7, r7, #16
  92              		.cfi_def_cfa_offset 8
  93 0064 BD46     		mov	sp, r7
  94              		.cfi_def_cfa_register 13
  95              		@ sp needed
  96 0066 80BD     		pop	{r7, pc}
  97              		.cfi_endproc
  98              	.LFE64:
  99              		.size	readEEPROM, .-readEEPROM
 100              		.section	.rodata
 101              		.align	2
 102              	.LC0:
 103 0000 25303478 		.ascii	"%04x \000"
 103      2000
 104 0006 0000     		.align	2
 105              	.LC1:
 106 0008 20253032 		.ascii	" %02x\000"
 106      7800
 107 000e 0000     		.align	2
 108              	.LC2:
 109 0010 202000   		.ascii	"  \000"
 110 0013 00       		.align	2
 111              	.LC3:
 112 0014 0A0D00   		.ascii	"\012\015\000"
 113              		.section	.text.dumpEEPROM,"ax",%progbits
 114              		.align	2
 115              		.global	dumpEEPROM
 116              		.thumb
 117              		.thumb_func
 118              		.type	dumpEEPROM, %function
 119              	dumpEEPROM:
 120              	.LFB65:
  48:ExtEEPROM.c   **** 
  49:ExtEEPROM.c   **** void dumpEEPROM(uint8 * eepromBuffer)
ARM GAS  C:\Users\HPz420\AppData\Local\Temp\ccEF7LRu.s 			page 4


  50:ExtEEPROM.c   **** {
 121              		.loc 1 50 0
 122              		.cfi_startproc
 123              		@ args = 0, pretend = 0, frame = 96
 124              		@ frame_needed = 1, uses_anonymous_args = 0
 125 0000 80B5     		push	{r7, lr}
 126              		.cfi_def_cfa_offset 8
 127              		.cfi_offset 7, -8
 128              		.cfi_offset 14, -4
 129 0002 98B0     		sub	sp, sp, #96
 130              		.cfi_def_cfa_offset 104
 131 0004 00AF     		add	r7, sp, #0
 132              		.cfi_def_cfa_register 7
 133 0006 7860     		str	r0, [r7, #4]
  51:ExtEEPROM.c   ****     char lineBuffer[8];
  52:ExtEEPROM.c   ****     lineBuffer[0] = 0;
 134              		.loc 1 52 0
 135 0008 0023     		movs	r3, #0
 136 000a 87F85030 		strb	r3, [r7, #80]
  53:ExtEEPROM.c   ****     uint16 linesLoop = 0;
 137              		.loc 1 53 0
 138 000e 0023     		movs	r3, #0
 139 0010 A7F85E30 		strh	r3, [r7, #94]	@ movhi
  54:ExtEEPROM.c   ****     uint16 charsLoop = 0;
 140              		.loc 1 54 0
 141 0014 0023     		movs	r3, #0
 142 0016 A7F85C30 		strh	r3, [r7, #92]	@ movhi
  55:ExtEEPROM.c   ****     for (linesLoop = 0; linesLoop < 16; linesLoop++)
 143              		.loc 1 55 0
 144 001a 0023     		movs	r3, #0
 145 001c A7F85E30 		strh	r3, [r7, #94]	@ movhi
 146 0020 C3E0     		b	.L5
 147              	.L14:
 148              	.LBB2:
  56:ExtEEPROM.c   ****     {
  57:ExtEEPROM.c   ****         char lineString[65];
  58:ExtEEPROM.c   ****         lineString[0] = 0;
 149              		.loc 1 58 0
 150 0022 0023     		movs	r3, #0
 151 0024 3B73     		strb	r3, [r7, #12]
  59:ExtEEPROM.c   ****         sprintf(lineString,"%04x ",linesLoop<<4);
 152              		.loc 1 59 0
 153 0026 B7F85E30 		ldrh	r3, [r7, #94]
 154 002a 1A01     		lsls	r2, r3, #4
 155 002c 07F10C03 		add	r3, r7, #12
 156 0030 6249     		ldr	r1, .L15
 157 0032 1846     		mov	r0, r3
 158 0034 FFF7FEFF 		bl	sprintf
  60:ExtEEPROM.c   ****         for (charsLoop = 0; charsLoop < 16; charsLoop++)
 159              		.loc 1 60 0
 160 0038 0023     		movs	r3, #0
 161 003a A7F85C30 		strh	r3, [r7, #92]	@ movhi
 162 003e 1DE0     		b	.L6
 163              	.L7:
  61:ExtEEPROM.c   ****         {
  62:ExtEEPROM.c   ****             sprintf(lineBuffer, " %02x",eepromBuffer[(linesLoop<<4)+charsLoop]);
 164              		.loc 1 62 0 discriminator 3
ARM GAS  C:\Users\HPz420\AppData\Local\Temp\ccEF7LRu.s 			page 5


 165 0040 B7F85E30 		ldrh	r3, [r7, #94]
 166 0044 1A01     		lsls	r2, r3, #4
 167 0046 B7F85C30 		ldrh	r3, [r7, #92]
 168 004a 1344     		add	r3, r3, r2
 169 004c 1A46     		mov	r2, r3
 170 004e 7B68     		ldr	r3, [r7, #4]
 171 0050 1344     		add	r3, r3, r2
 172 0052 1B78     		ldrb	r3, [r3]	@ zero_extendqisi2
 173 0054 1A46     		mov	r2, r3
 174 0056 07F15003 		add	r3, r7, #80
 175 005a 5949     		ldr	r1, .L15+4
 176 005c 1846     		mov	r0, r3
 177 005e FFF7FEFF 		bl	sprintf
  63:ExtEEPROM.c   ****             strcat(lineString, lineBuffer);
 178              		.loc 1 63 0 discriminator 3
 179 0062 07F15002 		add	r2, r7, #80
 180 0066 07F10C03 		add	r3, r7, #12
 181 006a 1146     		mov	r1, r2
 182 006c 1846     		mov	r0, r3
 183 006e FFF7FEFF 		bl	strcat
  60:ExtEEPROM.c   ****         for (charsLoop = 0; charsLoop < 16; charsLoop++)
 184              		.loc 1 60 0 discriminator 3
 185 0072 B7F85C30 		ldrh	r3, [r7, #92]
 186 0076 0133     		adds	r3, r3, #1
 187 0078 A7F85C30 		strh	r3, [r7, #92]	@ movhi
 188              	.L6:
  60:ExtEEPROM.c   ****         for (charsLoop = 0; charsLoop < 16; charsLoop++)
 189              		.loc 1 60 0 is_stmt 0 discriminator 1
 190 007c B7F85C30 		ldrh	r3, [r7, #92]
 191 0080 0F2B     		cmp	r3, #15
 192 0082 DDD9     		bls	.L7
  64:ExtEEPROM.c   ****         }
  65:ExtEEPROM.c   ****         strcat(lineString, "  ");
 193              		.loc 1 65 0 is_stmt 1
 194 0084 07F10C03 		add	r3, r7, #12
 195 0088 1846     		mov	r0, r3
 196 008a FFF7FEFF 		bl	strlen
 197 008e 0346     		mov	r3, r0
 198 0090 1A46     		mov	r2, r3
 199 0092 07F10C03 		add	r3, r7, #12
 200 0096 1344     		add	r3, r3, r2
 201 0098 4A4A     		ldr	r2, .L15+8
 202 009a 1188     		ldrh	r1, [r2]	@ unaligned
 203 009c 9278     		ldrb	r2, [r2, #2]
 204 009e 1980     		strh	r1, [r3]	@ unaligned
 205 00a0 9A70     		strb	r2, [r3, #2]
  66:ExtEEPROM.c   ****         USBUART_PutData((uint8 *)lineString, strlen(lineString));
 206              		.loc 1 66 0
 207 00a2 07F10C03 		add	r3, r7, #12
 208 00a6 1846     		mov	r0, r3
 209 00a8 FFF7FEFF 		bl	strlen
 210 00ac 0346     		mov	r3, r0
 211 00ae 9AB2     		uxth	r2, r3
 212 00b0 07F10C03 		add	r3, r7, #12
 213 00b4 1146     		mov	r1, r2
 214 00b6 1846     		mov	r0, r3
 215 00b8 FFF7FEFF 		bl	USBUART_PutData
ARM GAS  C:\Users\HPz420\AppData\Local\Temp\ccEF7LRu.s 			page 6


  67:ExtEEPROM.c   ****         while (0u == USBUART_CDCIsReady());
 216              		.loc 1 67 0
 217 00bc 00BF     		nop
 218              	.L8:
 219              		.loc 1 67 0 is_stmt 0 discriminator 1
 220 00be FFF7FEFF 		bl	USBUART_CDCIsReady
 221 00c2 0346     		mov	r3, r0
 222 00c4 002B     		cmp	r3, #0
 223 00c6 FAD0     		beq	.L8
  68:ExtEEPROM.c   ****         lineString[0] = 0;
 224              		.loc 1 68 0 is_stmt 1
 225 00c8 0023     		movs	r3, #0
 226 00ca 3B73     		strb	r3, [r7, #12]
 227              	.LBB3:
  69:ExtEEPROM.c   ****         // Form a character string for the 
  70:ExtEEPROM.c   ****         for (uint16 charCol = 0; charCol < 16; charCol++)
 228              		.loc 1 70 0
 229 00cc 0023     		movs	r3, #0
 230 00ce A7F85A30 		strh	r3, [r7, #90]	@ movhi
 231 00d2 3FE0     		b	.L9
 232              	.L12:
  71:ExtEEPROM.c   ****         {
  72:ExtEEPROM.c   ****             // print if the char is printable
  73:ExtEEPROM.c   ****             if ((eepromBuffer[(linesLoop<<4)+charCol] >= 0x21) && (eepromBuffer[(linesLoop<<4)+char
 233              		.loc 1 73 0
 234 00d4 B7F85E30 		ldrh	r3, [r7, #94]
 235 00d8 1A01     		lsls	r2, r3, #4
 236 00da B7F85A30 		ldrh	r3, [r7, #90]
 237 00de 1344     		add	r3, r3, r2
 238 00e0 1A46     		mov	r2, r3
 239 00e2 7B68     		ldr	r3, [r7, #4]
 240 00e4 1344     		add	r3, r3, r2
 241 00e6 1B78     		ldrb	r3, [r3]	@ zero_extendqisi2
 242 00e8 202B     		cmp	r3, #32
 243 00ea 1DD9     		bls	.L10
 244              		.loc 1 73 0 is_stmt 0 discriminator 1
 245 00ec B7F85E30 		ldrh	r3, [r7, #94]
 246 00f0 1A01     		lsls	r2, r3, #4
 247 00f2 B7F85A30 		ldrh	r3, [r7, #90]
 248 00f6 1344     		add	r3, r3, r2
 249 00f8 1A46     		mov	r2, r3
 250 00fa 7B68     		ldr	r3, [r7, #4]
 251 00fc 1344     		add	r3, r3, r2
 252 00fe 1B78     		ldrb	r3, [r3]	@ zero_extendqisi2
 253 0100 7E2B     		cmp	r3, #126
 254 0102 11D8     		bhi	.L10
  74:ExtEEPROM.c   ****             {
  75:ExtEEPROM.c   ****                 lineString[charCol] = eepromBuffer[(linesLoop<<4)+charCol];
 255              		.loc 1 75 0 is_stmt 1
 256 0104 B7F85A30 		ldrh	r3, [r7, #90]
 257 0108 B7F85E20 		ldrh	r2, [r7, #94]
 258 010c 1101     		lsls	r1, r2, #4
 259 010e B7F85A20 		ldrh	r2, [r7, #90]
 260 0112 0A44     		add	r2, r2, r1
 261 0114 1146     		mov	r1, r2
 262 0116 7A68     		ldr	r2, [r7, #4]
 263 0118 0A44     		add	r2, r2, r1
ARM GAS  C:\Users\HPz420\AppData\Local\Temp\ccEF7LRu.s 			page 7


 264 011a 1278     		ldrb	r2, [r2]	@ zero_extendqisi2
 265 011c 07F16001 		add	r1, r7, #96
 266 0120 0B44     		add	r3, r3, r1
 267 0122 03F8542C 		strb	r2, [r3, #-84]
 268 0126 07E0     		b	.L11
 269              	.L10:
  76:ExtEEPROM.c   ****             }
  77:ExtEEPROM.c   ****             else
  78:ExtEEPROM.c   ****             {
  79:ExtEEPROM.c   ****                 lineString[charCol] = '.';
 270              		.loc 1 79 0
 271 0128 B7F85A30 		ldrh	r3, [r7, #90]
 272 012c 07F16002 		add	r2, r7, #96
 273 0130 1344     		add	r3, r3, r2
 274 0132 2E22     		movs	r2, #46
 275 0134 03F8542C 		strb	r2, [r3, #-84]
 276              	.L11:
  80:ExtEEPROM.c   ****             }
  81:ExtEEPROM.c   ****             lineString[charCol+1] = 0;
 277              		.loc 1 81 0 discriminator 2
 278 0138 B7F85A30 		ldrh	r3, [r7, #90]
 279 013c 0133     		adds	r3, r3, #1
 280 013e 07F16002 		add	r2, r7, #96
 281 0142 1344     		add	r3, r3, r2
 282 0144 0022     		movs	r2, #0
 283 0146 03F8542C 		strb	r2, [r3, #-84]
  70:ExtEEPROM.c   ****         {
 284              		.loc 1 70 0 discriminator 2
 285 014a B7F85A30 		ldrh	r3, [r7, #90]
 286 014e 0133     		adds	r3, r3, #1
 287 0150 A7F85A30 		strh	r3, [r7, #90]	@ movhi
 288              	.L9:
  70:ExtEEPROM.c   ****         {
 289              		.loc 1 70 0 is_stmt 0 discriminator 1
 290 0154 B7F85A30 		ldrh	r3, [r7, #90]
 291 0158 0F2B     		cmp	r3, #15
 292 015a BBD9     		bls	.L12
 293              	.LBE3:
  82:ExtEEPROM.c   ****         }
  83:ExtEEPROM.c   ****         strcat(lineString, "\n\r");
 294              		.loc 1 83 0 is_stmt 1
 295 015c 07F10C03 		add	r3, r7, #12
 296 0160 1846     		mov	r0, r3
 297 0162 FFF7FEFF 		bl	strlen
 298 0166 0346     		mov	r3, r0
 299 0168 1A46     		mov	r2, r3
 300 016a 07F10C03 		add	r3, r7, #12
 301 016e 1344     		add	r3, r3, r2
 302 0170 154A     		ldr	r2, .L15+12
 303 0172 1188     		ldrh	r1, [r2]	@ unaligned
 304 0174 9278     		ldrb	r2, [r2, #2]
 305 0176 1980     		strh	r1, [r3]	@ unaligned
 306 0178 9A70     		strb	r2, [r3, #2]
  84:ExtEEPROM.c   ****         USBUART_PutData((uint8 *)lineString, strlen(lineString));
 307              		.loc 1 84 0
 308 017a 07F10C03 		add	r3, r7, #12
 309 017e 1846     		mov	r0, r3
ARM GAS  C:\Users\HPz420\AppData\Local\Temp\ccEF7LRu.s 			page 8


 310 0180 FFF7FEFF 		bl	strlen
 311 0184 0346     		mov	r3, r0
 312 0186 9AB2     		uxth	r2, r3
 313 0188 07F10C03 		add	r3, r7, #12
 314 018c 1146     		mov	r1, r2
 315 018e 1846     		mov	r0, r3
 316 0190 FFF7FEFF 		bl	USBUART_PutData
  85:ExtEEPROM.c   ****         while (0u == USBUART_CDCIsReady());
 317              		.loc 1 85 0
 318 0194 00BF     		nop
 319              	.L13:
 320              		.loc 1 85 0 is_stmt 0 discriminator 1
 321 0196 FFF7FEFF 		bl	USBUART_CDCIsReady
 322 019a 0346     		mov	r3, r0
 323 019c 002B     		cmp	r3, #0
 324 019e FAD0     		beq	.L13
 325              	.LBE2:
  55:ExtEEPROM.c   ****     {
 326              		.loc 1 55 0 is_stmt 1 discriminator 2
 327 01a0 B7F85E30 		ldrh	r3, [r7, #94]
 328 01a4 0133     		adds	r3, r3, #1
 329 01a6 A7F85E30 		strh	r3, [r7, #94]	@ movhi
 330              	.L5:
  55:ExtEEPROM.c   ****     {
 331              		.loc 1 55 0 is_stmt 0 discriminator 1
 332 01aa B7F85E30 		ldrh	r3, [r7, #94]
 333 01ae 0F2B     		cmp	r3, #15
 334 01b0 7FF637AF 		bls	.L14
  86:ExtEEPROM.c   ****     }
  87:ExtEEPROM.c   **** }
 335              		.loc 1 87 0 is_stmt 1
 336 01b4 00BF     		nop
 337 01b6 6037     		adds	r7, r7, #96
 338              		.cfi_def_cfa_offset 8
 339 01b8 BD46     		mov	sp, r7
 340              		.cfi_def_cfa_register 13
 341              		@ sp needed
 342 01ba 80BD     		pop	{r7, pc}
 343              	.L16:
 344              		.align	2
 345              	.L15:
 346 01bc 00000000 		.word	.LC0
 347 01c0 08000000 		.word	.LC1
 348 01c4 10000000 		.word	.LC2
 349 01c8 14000000 		.word	.LC3
 350              		.cfi_endproc
 351              	.LFE65:
 352              		.size	dumpEEPROM, .-dumpEEPROM
 353              		.section	.text.writeEEPROM,"ax",%progbits
 354              		.align	2
 355              		.global	writeEEPROM
 356              		.thumb
 357              		.thumb_func
 358              		.type	writeEEPROM, %function
 359              	writeEEPROM:
 360              	.LFB66:
  88:ExtEEPROM.c   **** 
ARM GAS  C:\Users\HPz420\AppData\Local\Temp\ccEF7LRu.s 			page 9


  89:ExtEEPROM.c   **** //////////////////////////////////////////////////////////////////////////////
  90:ExtEEPROM.c   **** // void writeEEPROM() - Take the EEPROM source and move it to a 32-byte buffer
  91:ExtEEPROM.c   **** // Call the routine to write the 32-byte buffers to the EEPROM
  92:ExtEEPROM.c   **** 
  93:ExtEEPROM.c   **** uint8 writeEEPROM(uint16 targetHat)
  94:ExtEEPROM.c   **** {
 361              		.loc 1 94 0
 362              		.cfi_startproc
 363              		@ args = 0, pretend = 0, frame = 64
 364              		@ frame_needed = 1, uses_anonymous_args = 0
 365 0000 80B5     		push	{r7, lr}
 366              		.cfi_def_cfa_offset 8
 367              		.cfi_offset 7, -8
 368              		.cfi_offset 14, -4
 369 0002 90B0     		sub	sp, sp, #64
 370              		.cfi_def_cfa_offset 72
 371 0004 00AF     		add	r7, sp, #0
 372              		.cfi_def_cfa_register 7
 373 0006 0346     		mov	r3, r0
 374 0008 FB80     		strh	r3, [r7, #6]	@ movhi
  95:ExtEEPROM.c   ****     uint8 array32Bytes[34];
  96:ExtEEPROM.c   ****     uint16 srcPointer = 0;
 375              		.loc 1 96 0
 376 000a 0023     		movs	r3, #0
 377 000c FB87     		strh	r3, [r7, #62]	@ movhi
  97:ExtEEPROM.c   ****     uint16 dstPointer;
  98:ExtEEPROM.c   ****     
  99:ExtEEPROM.c   ****     if (targetHat == RPPUIO16)
 378              		.loc 1 99 0
 379 000e FB88     		ldrh	r3, [r7, #6]
 380 0010 012B     		cmp	r3, #1
 381 0012 4BD1     		bne	.L18
 382              	.LBB4:
 100:ExtEEPROM.c   ****     {
 101:ExtEEPROM.c   ****         for (uint16 blockNumber = 0; blockNumber < NUM_32_BYTE_BLOCKS; blockNumber++)
 383              		.loc 1 101 0
 384 0014 0023     		movs	r3, #0
 385 0016 7B87     		strh	r3, [r7, #58]	@ movhi
 386 0018 43E0     		b	.L19
 387              	.L24:
 102:ExtEEPROM.c   ****         {
 103:ExtEEPROM.c   ****             dstPointer = 0;
 388              		.loc 1 103 0
 389 001a 0023     		movs	r3, #0
 390 001c BB87     		strh	r3, [r7, #60]	@ movhi
 104:ExtEEPROM.c   ****             array32Bytes[dstPointer++] = 0;                         // 
 391              		.loc 1 104 0
 392 001e BB8F     		ldrh	r3, [r7, #60]
 393 0020 5A1C     		adds	r2, r3, #1
 394 0022 BA87     		strh	r2, [r7, #60]	@ movhi
 395 0024 07F14002 		add	r2, r7, #64
 396 0028 1344     		add	r3, r3, r2
 397 002a 0022     		movs	r2, #0
 398 002c 03F8342C 		strb	r2, [r3, #-52]
 105:ExtEEPROM.c   ****             array32Bytes[dstPointer++] = (blockNumber<<5) & 0xff;   // Set the starting address
 399              		.loc 1 105 0
 400 0030 BB8F     		ldrh	r3, [r7, #60]
ARM GAS  C:\Users\HPz420\AppData\Local\Temp\ccEF7LRu.s 			page 10


 401 0032 5A1C     		adds	r2, r3, #1
 402 0034 BA87     		strh	r2, [r7, #60]	@ movhi
 403 0036 1946     		mov	r1, r3
 404 0038 7B8F     		ldrh	r3, [r7, #58]
 405 003a 5B01     		lsls	r3, r3, #5
 406 003c DAB2     		uxtb	r2, r3
 407 003e 07F14003 		add	r3, r7, #64
 408 0042 0B44     		add	r3, r3, r1
 409 0044 03F8342C 		strb	r2, [r3, #-52]
 410              	.LBB5:
 106:ExtEEPROM.c   ****             for (uint16 loopCounter = 0; loopCounter< 32; loopCounter++)
 411              		.loc 1 106 0
 412 0048 0023     		movs	r3, #0
 413 004a 3B87     		strh	r3, [r7, #56]	@ movhi
 414 004c 1EE0     		b	.L20
 415              	.L23:
 107:ExtEEPROM.c   ****             {
 108:ExtEEPROM.c   ****                 if (srcPointer < RPP_UIO16_EEPROM_LENGTH)
 416              		.loc 1 108 0
 417 004e FB8F     		ldrh	r3, [r7, #62]
 418 0050 6C2B     		cmp	r3, #108
 419 0052 0CD8     		bhi	.L21
 109:ExtEEPROM.c   ****                     array32Bytes[dstPointer++] = rpp_uio_16_eeprom[srcPointer];
 420              		.loc 1 109 0
 421 0054 BB8F     		ldrh	r3, [r7, #60]
 422 0056 5A1C     		adds	r2, r3, #1
 423 0058 BA87     		strh	r2, [r7, #60]	@ movhi
 424 005a 1946     		mov	r1, r3
 425 005c FB8F     		ldrh	r3, [r7, #62]
 426 005e 654A     		ldr	r2, .L41
 427 0060 D25C     		ldrb	r2, [r2, r3]	@ zero_extendqisi2
 428 0062 07F14003 		add	r3, r7, #64
 429 0066 0B44     		add	r3, r3, r1
 430 0068 03F8342C 		strb	r2, [r3, #-52]
 431 006c 08E0     		b	.L22
 432              	.L21:
 110:ExtEEPROM.c   ****                 else
 111:ExtEEPROM.c   ****                     array32Bytes[dstPointer++] = 0;
 433              		.loc 1 111 0
 434 006e BB8F     		ldrh	r3, [r7, #60]
 435 0070 5A1C     		adds	r2, r3, #1
 436 0072 BA87     		strh	r2, [r7, #60]	@ movhi
 437 0074 07F14002 		add	r2, r7, #64
 438 0078 1344     		add	r3, r3, r2
 439 007a 0022     		movs	r2, #0
 440 007c 03F8342C 		strb	r2, [r3, #-52]
 441              	.L22:
 112:ExtEEPROM.c   ****                 srcPointer++;
 442              		.loc 1 112 0 discriminator 2
 443 0080 FB8F     		ldrh	r3, [r7, #62]
 444 0082 0133     		adds	r3, r3, #1
 445 0084 FB87     		strh	r3, [r7, #62]	@ movhi
 106:ExtEEPROM.c   ****             {
 446              		.loc 1 106 0 discriminator 2
 447 0086 3B8F     		ldrh	r3, [r7, #56]
 448 0088 0133     		adds	r3, r3, #1
 449 008a 3B87     		strh	r3, [r7, #56]	@ movhi
ARM GAS  C:\Users\HPz420\AppData\Local\Temp\ccEF7LRu.s 			page 11


 450              	.L20:
 106:ExtEEPROM.c   ****             {
 451              		.loc 1 106 0 is_stmt 0 discriminator 1
 452 008c 3B8F     		ldrh	r3, [r7, #56]
 453 008e 1F2B     		cmp	r3, #31
 454 0090 DDD9     		bls	.L23
 455              	.LBE5:
 113:ExtEEPROM.c   ****             }
 114:ExtEEPROM.c   ****             writeEEPROMBlock(array32Bytes);
 456              		.loc 1 114 0 is_stmt 1 discriminator 2
 457 0092 07F10C03 		add	r3, r7, #12
 458 0096 1846     		mov	r0, r3
 459 0098 FFF7FEFF 		bl	writeEEPROMBlock
 101:ExtEEPROM.c   ****         {
 460              		.loc 1 101 0 discriminator 2
 461 009c 7B8F     		ldrh	r3, [r7, #58]
 462 009e 0133     		adds	r3, r3, #1
 463 00a0 7B87     		strh	r3, [r7, #58]	@ movhi
 464              	.L19:
 101:ExtEEPROM.c   ****         {
 465              		.loc 1 101 0 is_stmt 0 discriminator 1
 466 00a2 7B8F     		ldrh	r3, [r7, #58]
 467 00a4 032B     		cmp	r3, #3
 468 00a6 B8D9     		bls	.L24
 469              	.LBE4:
 115:ExtEEPROM.c   ****         }
 116:ExtEEPROM.c   ****         return(1);
 470              		.loc 1 116 0 is_stmt 1
 471 00a8 0123     		movs	r3, #1
 472 00aa 9EE0     		b	.L40
 473              	.L18:
 117:ExtEEPROM.c   ****     }
 118:ExtEEPROM.c   ****     else if (targetHat == RPPGVSCFG)
 474              		.loc 1 118 0
 475 00ac FB88     		ldrh	r3, [r7, #6]
 476 00ae 022B     		cmp	r3, #2
 477 00b0 4BD1     		bne	.L26
 478              	.LBB6:
 119:ExtEEPROM.c   ****     {
 120:ExtEEPROM.c   ****         for (uint16 blockNumber = 0; blockNumber < NUM_32_BYTE_BLOCKS; blockNumber++)
 479              		.loc 1 120 0
 480 00b2 0023     		movs	r3, #0
 481 00b4 FB86     		strh	r3, [r7, #54]	@ movhi
 482 00b6 43E0     		b	.L27
 483              	.L32:
 121:ExtEEPROM.c   ****         {
 122:ExtEEPROM.c   ****             dstPointer = 0;
 484              		.loc 1 122 0
 485 00b8 0023     		movs	r3, #0
 486 00ba BB87     		strh	r3, [r7, #60]	@ movhi
 123:ExtEEPROM.c   ****             array32Bytes[dstPointer++] = 0;                         // 
 487              		.loc 1 123 0
 488 00bc BB8F     		ldrh	r3, [r7, #60]
 489 00be 5A1C     		adds	r2, r3, #1
 490 00c0 BA87     		strh	r2, [r7, #60]	@ movhi
 491 00c2 07F14002 		add	r2, r7, #64
 492 00c6 1344     		add	r3, r3, r2
ARM GAS  C:\Users\HPz420\AppData\Local\Temp\ccEF7LRu.s 			page 12


 493 00c8 0022     		movs	r2, #0
 494 00ca 03F8342C 		strb	r2, [r3, #-52]
 124:ExtEEPROM.c   ****             array32Bytes[dstPointer++] = (blockNumber<<5) & 0xff;   // Set the starting address
 495              		.loc 1 124 0
 496 00ce BB8F     		ldrh	r3, [r7, #60]
 497 00d0 5A1C     		adds	r2, r3, #1
 498 00d2 BA87     		strh	r2, [r7, #60]	@ movhi
 499 00d4 1946     		mov	r1, r3
 500 00d6 FB8E     		ldrh	r3, [r7, #54]
 501 00d8 5B01     		lsls	r3, r3, #5
 502 00da DAB2     		uxtb	r2, r3
 503 00dc 07F14003 		add	r3, r7, #64
 504 00e0 0B44     		add	r3, r3, r1
 505 00e2 03F8342C 		strb	r2, [r3, #-52]
 506              	.LBB7:
 125:ExtEEPROM.c   ****             for (uint16 loopCounter = 0; loopCounter< 32; loopCounter++)
 507              		.loc 1 125 0
 508 00e6 0023     		movs	r3, #0
 509 00e8 BB86     		strh	r3, [r7, #52]	@ movhi
 510 00ea 1EE0     		b	.L28
 511              	.L31:
 126:ExtEEPROM.c   ****             {
 127:ExtEEPROM.c   ****                 if (srcPointer < RPPGVSCFG_EEPROM_LENGTH)
 512              		.loc 1 127 0
 513 00ec FB8F     		ldrh	r3, [r7, #62]
 514 00ee 742B     		cmp	r3, #116
 515 00f0 0CD8     		bhi	.L29
 128:ExtEEPROM.c   ****                     array32Bytes[dstPointer++] = raspi_plus_gvs_cfg_eeprom[srcPointer];
 516              		.loc 1 128 0
 517 00f2 BB8F     		ldrh	r3, [r7, #60]
 518 00f4 5A1C     		adds	r2, r3, #1
 519 00f6 BA87     		strh	r2, [r7, #60]	@ movhi
 520 00f8 1946     		mov	r1, r3
 521 00fa FB8F     		ldrh	r3, [r7, #62]
 522 00fc 3E4A     		ldr	r2, .L41+4
 523 00fe D25C     		ldrb	r2, [r2, r3]	@ zero_extendqisi2
 524 0100 07F14003 		add	r3, r7, #64
 525 0104 0B44     		add	r3, r3, r1
 526 0106 03F8342C 		strb	r2, [r3, #-52]
 527 010a 08E0     		b	.L30
 528              	.L29:
 129:ExtEEPROM.c   ****                 else
 130:ExtEEPROM.c   ****                     array32Bytes[dstPointer++] = 0;
 529              		.loc 1 130 0
 530 010c BB8F     		ldrh	r3, [r7, #60]
 531 010e 5A1C     		adds	r2, r3, #1
 532 0110 BA87     		strh	r2, [r7, #60]	@ movhi
 533 0112 07F14002 		add	r2, r7, #64
 534 0116 1344     		add	r3, r3, r2
 535 0118 0022     		movs	r2, #0
 536 011a 03F8342C 		strb	r2, [r3, #-52]
 537              	.L30:
 131:ExtEEPROM.c   ****                 srcPointer++;
 538              		.loc 1 131 0 discriminator 2
 539 011e FB8F     		ldrh	r3, [r7, #62]
 540 0120 0133     		adds	r3, r3, #1
 541 0122 FB87     		strh	r3, [r7, #62]	@ movhi
ARM GAS  C:\Users\HPz420\AppData\Local\Temp\ccEF7LRu.s 			page 13


 125:ExtEEPROM.c   ****             {
 542              		.loc 1 125 0 discriminator 2
 543 0124 BB8E     		ldrh	r3, [r7, #52]
 544 0126 0133     		adds	r3, r3, #1
 545 0128 BB86     		strh	r3, [r7, #52]	@ movhi
 546              	.L28:
 125:ExtEEPROM.c   ****             {
 547              		.loc 1 125 0 is_stmt 0 discriminator 1
 548 012a BB8E     		ldrh	r3, [r7, #52]
 549 012c 1F2B     		cmp	r3, #31
 550 012e DDD9     		bls	.L31
 551              	.LBE7:
 132:ExtEEPROM.c   ****             }
 133:ExtEEPROM.c   ****             writeEEPROMBlock(array32Bytes);
 552              		.loc 1 133 0 is_stmt 1 discriminator 2
 553 0130 07F10C03 		add	r3, r7, #12
 554 0134 1846     		mov	r0, r3
 555 0136 FFF7FEFF 		bl	writeEEPROMBlock
 120:ExtEEPROM.c   ****         {
 556              		.loc 1 120 0 discriminator 2
 557 013a FB8E     		ldrh	r3, [r7, #54]
 558 013c 0133     		adds	r3, r3, #1
 559 013e FB86     		strh	r3, [r7, #54]	@ movhi
 560              	.L27:
 120:ExtEEPROM.c   ****         {
 561              		.loc 1 120 0 is_stmt 0 discriminator 1
 562 0140 FB8E     		ldrh	r3, [r7, #54]
 563 0142 032B     		cmp	r3, #3
 564 0144 B8D9     		bls	.L32
 565              	.LBE6:
 134:ExtEEPROM.c   ****         }
 135:ExtEEPROM.c   ****         return(1);
 566              		.loc 1 135 0 is_stmt 1
 567 0146 0123     		movs	r3, #1
 568 0148 4FE0     		b	.L40
 569              	.L26:
 136:ExtEEPROM.c   ****     }
 137:ExtEEPROM.c   ****     else if (targetHat == RPPSOC)
 570              		.loc 1 137 0
 571 014a FB88     		ldrh	r3, [r7, #6]
 572 014c 032B     		cmp	r3, #3
 573 014e 4BD1     		bne	.L33
 574              	.LBB8:
 138:ExtEEPROM.c   ****     {
 139:ExtEEPROM.c   ****         for (uint16 blockNumber = 0; blockNumber < NUM_32_BYTE_BLOCKS; blockNumber++)
 575              		.loc 1 139 0
 576 0150 0023     		movs	r3, #0
 577 0152 7B86     		strh	r3, [r7, #50]	@ movhi
 578 0154 43E0     		b	.L34
 579              	.L39:
 140:ExtEEPROM.c   ****         {
 141:ExtEEPROM.c   ****             dstPointer = 0;
 580              		.loc 1 141 0
 581 0156 0023     		movs	r3, #0
 582 0158 BB87     		strh	r3, [r7, #60]	@ movhi
 142:ExtEEPROM.c   ****             array32Bytes[dstPointer++] = 0;                         // 
 583              		.loc 1 142 0
ARM GAS  C:\Users\HPz420\AppData\Local\Temp\ccEF7LRu.s 			page 14


 584 015a BB8F     		ldrh	r3, [r7, #60]
 585 015c 5A1C     		adds	r2, r3, #1
 586 015e BA87     		strh	r2, [r7, #60]	@ movhi
 587 0160 07F14002 		add	r2, r7, #64
 588 0164 1344     		add	r3, r3, r2
 589 0166 0022     		movs	r2, #0
 590 0168 03F8342C 		strb	r2, [r3, #-52]
 143:ExtEEPROM.c   ****             array32Bytes[dstPointer++] = (blockNumber<<5) & 0xff;   // Set the starting address
 591              		.loc 1 143 0
 592 016c BB8F     		ldrh	r3, [r7, #60]
 593 016e 5A1C     		adds	r2, r3, #1
 594 0170 BA87     		strh	r2, [r7, #60]	@ movhi
 595 0172 1946     		mov	r1, r3
 596 0174 7B8E     		ldrh	r3, [r7, #50]
 597 0176 5B01     		lsls	r3, r3, #5
 598 0178 DAB2     		uxtb	r2, r3
 599 017a 07F14003 		add	r3, r7, #64
 600 017e 0B44     		add	r3, r3, r1
 601 0180 03F8342C 		strb	r2, [r3, #-52]
 602              	.LBB9:
 144:ExtEEPROM.c   ****             for (uint16 loopCounter = 0; loopCounter< 32; loopCounter++)
 603              		.loc 1 144 0
 604 0184 0023     		movs	r3, #0
 605 0186 3B86     		strh	r3, [r7, #48]	@ movhi
 606 0188 1EE0     		b	.L35
 607              	.L38:
 145:ExtEEPROM.c   ****             {
 146:ExtEEPROM.c   ****                 if (srcPointer < RPPSOC_EEPROM_LENGTH)
 608              		.loc 1 146 0
 609 018a FB8F     		ldrh	r3, [r7, #62]
 610 018c 682B     		cmp	r3, #104
 611 018e 0CD8     		bhi	.L36
 147:ExtEEPROM.c   ****                     array32Bytes[dstPointer++] = rppsoc_eeprom[srcPointer];
 612              		.loc 1 147 0
 613 0190 BB8F     		ldrh	r3, [r7, #60]
 614 0192 5A1C     		adds	r2, r3, #1
 615 0194 BA87     		strh	r2, [r7, #60]	@ movhi
 616 0196 1946     		mov	r1, r3
 617 0198 FB8F     		ldrh	r3, [r7, #62]
 618 019a 184A     		ldr	r2, .L41+8
 619 019c D25C     		ldrb	r2, [r2, r3]	@ zero_extendqisi2
 620 019e 07F14003 		add	r3, r7, #64
 621 01a2 0B44     		add	r3, r3, r1
 622 01a4 03F8342C 		strb	r2, [r3, #-52]
 623 01a8 08E0     		b	.L37
 624              	.L36:
 148:ExtEEPROM.c   ****                 else
 149:ExtEEPROM.c   ****                     array32Bytes[dstPointer++] = 0;
 625              		.loc 1 149 0
 626 01aa BB8F     		ldrh	r3, [r7, #60]
 627 01ac 5A1C     		adds	r2, r3, #1
 628 01ae BA87     		strh	r2, [r7, #60]	@ movhi
 629 01b0 07F14002 		add	r2, r7, #64
 630 01b4 1344     		add	r3, r3, r2
 631 01b6 0022     		movs	r2, #0
 632 01b8 03F8342C 		strb	r2, [r3, #-52]
 633              	.L37:
ARM GAS  C:\Users\HPz420\AppData\Local\Temp\ccEF7LRu.s 			page 15


 150:ExtEEPROM.c   ****                 srcPointer++;
 634              		.loc 1 150 0 discriminator 2
 635 01bc FB8F     		ldrh	r3, [r7, #62]
 636 01be 0133     		adds	r3, r3, #1
 637 01c0 FB87     		strh	r3, [r7, #62]	@ movhi
 144:ExtEEPROM.c   ****             {
 638              		.loc 1 144 0 discriminator 2
 639 01c2 3B8E     		ldrh	r3, [r7, #48]
 640 01c4 0133     		adds	r3, r3, #1
 641 01c6 3B86     		strh	r3, [r7, #48]	@ movhi
 642              	.L35:
 144:ExtEEPROM.c   ****             {
 643              		.loc 1 144 0 is_stmt 0 discriminator 1
 644 01c8 3B8E     		ldrh	r3, [r7, #48]
 645 01ca 1F2B     		cmp	r3, #31
 646 01cc DDD9     		bls	.L38
 647              	.LBE9:
 151:ExtEEPROM.c   ****             }
 152:ExtEEPROM.c   ****             writeEEPROMBlock(array32Bytes);
 648              		.loc 1 152 0 is_stmt 1 discriminator 2
 649 01ce 07F10C03 		add	r3, r7, #12
 650 01d2 1846     		mov	r0, r3
 651 01d4 FFF7FEFF 		bl	writeEEPROMBlock
 139:ExtEEPROM.c   ****         {
 652              		.loc 1 139 0 discriminator 2
 653 01d8 7B8E     		ldrh	r3, [r7, #50]
 654 01da 0133     		adds	r3, r3, #1
 655 01dc 7B86     		strh	r3, [r7, #50]	@ movhi
 656              	.L34:
 139:ExtEEPROM.c   ****         {
 657              		.loc 1 139 0 is_stmt 0 discriminator 1
 658 01de 7B8E     		ldrh	r3, [r7, #50]
 659 01e0 032B     		cmp	r3, #3
 660 01e2 B8D9     		bls	.L39
 661              	.LBE8:
 153:ExtEEPROM.c   ****         }
 154:ExtEEPROM.c   ****         return(1);
 662              		.loc 1 154 0 is_stmt 1
 663 01e4 0123     		movs	r3, #1
 664 01e6 00E0     		b	.L40
 665              	.L33:
 155:ExtEEPROM.c   ****     }
 156:ExtEEPROM.c   ****     return(0);    
 666              		.loc 1 156 0
 667 01e8 0023     		movs	r3, #0
 668              	.L40:
 157:ExtEEPROM.c   **** }
 669              		.loc 1 157 0 discriminator 1
 670 01ea 1846     		mov	r0, r3
 671 01ec 4037     		adds	r7, r7, #64
 672              		.cfi_def_cfa_offset 8
 673 01ee BD46     		mov	sp, r7
 674              		.cfi_def_cfa_register 13
 675              		@ sp needed
 676 01f0 80BD     		pop	{r7, pc}
 677              	.L42:
 678 01f2 00BF     		.align	2
ARM GAS  C:\Users\HPz420\AppData\Local\Temp\ccEF7LRu.s 			page 16


 679              	.L41:
 680 01f4 00000000 		.word	rpp_uio_16_eeprom
 681 01f8 00000000 		.word	raspi_plus_gvs_cfg_eeprom
 682 01fc 00000000 		.word	rppsoc_eeprom
 683              		.cfi_endproc
 684              	.LFE66:
 685              		.size	writeEEPROM, .-writeEEPROM
 686              		.section	.text.writeEEPROMBlock,"ax",%progbits
 687              		.align	2
 688              		.global	writeEEPROMBlock
 689              		.thumb
 690              		.thumb_func
 691              		.type	writeEEPROMBlock, %function
 692              	writeEEPROMBlock:
 693              	.LFB67:
 158:ExtEEPROM.c   **** 
 159:ExtEEPROM.c   **** void writeEEPROMBlock(uint8 * cMessage)
 160:ExtEEPROM.c   **** {
 694              		.loc 1 160 0
 695              		.cfi_startproc
 696              		@ args = 0, pretend = 0, frame = 16
 697              		@ frame_needed = 1, uses_anonymous_args = 0
 698 0000 80B5     		push	{r7, lr}
 699              		.cfi_def_cfa_offset 8
 700              		.cfi_offset 7, -8
 701              		.cfi_offset 14, -4
 702 0002 84B0     		sub	sp, sp, #16
 703              		.cfi_def_cfa_offset 24
 704 0004 00AF     		add	r7, sp, #0
 705              		.cfi_def_cfa_register 7
 706 0006 7860     		str	r0, [r7, #4]
 161:ExtEEPROM.c   ****     //Following API writes the data from PSoC3 RAM buffer to EEPROM
 162:ExtEEPROM.c   ****     //SLAVE_ADDR is the slave address in this API
 163:ExtEEPROM.c   ****     //cMessage is the pointer to array which contains the data to be written to EEPROM.
 164:ExtEEPROM.c   ****     //cLength is the number of bytes which have to be written to EEPROM
 165:ExtEEPROM.c   ****     //I2C_MODE_COMPLETE_XFER, is to send data completly before sending stop command.
 166:ExtEEPROM.c   **** 
 167:ExtEEPROM.c   ****     uint8 SLAVE_ADDR = 0x50;
 707              		.loc 1 167 0
 708 0008 5023     		movs	r3, #80
 709 000a FB73     		strb	r3, [r7, #15]
 168:ExtEEPROM.c   ****     uint8 cLength = 34;         // First two are the address of the block to write
 710              		.loc 1 168 0
 711 000c 2223     		movs	r3, #34
 712 000e BB73     		strb	r3, [r7, #14]
 169:ExtEEPROM.c   ****     
 170:ExtEEPROM.c   ****     I2C_EEPROM_MasterWriteBuf(SLAVE_ADDR, cMessage, cLength, I2C_EEPROM_MODE_COMPLETE_XFER);
 713              		.loc 1 170 0
 714 0010 BA7B     		ldrb	r2, [r7, #14]	@ zero_extendqisi2
 715 0012 F87B     		ldrb	r0, [r7, #15]	@ zero_extendqisi2
 716 0014 0023     		movs	r3, #0
 717 0016 7968     		ldr	r1, [r7, #4]
 718 0018 FFF7FEFF 		bl	I2C_EEPROM_MasterWriteBuf
 171:ExtEEPROM.c   ****     
 172:ExtEEPROM.c   ****     //wait until Transfer is complete
 173:ExtEEPROM.c   ****     while((I2C_EEPROM_MasterStatus() & I2C_EEPROM_MSTAT_WR_CMPLT )==0); 
 719              		.loc 1 173 0
ARM GAS  C:\Users\HPz420\AppData\Local\Temp\ccEF7LRu.s 			page 17


 720 001c 00BF     		nop
 721              	.L44:
 722              		.loc 1 173 0 is_stmt 0 discriminator 1
 723 001e FFF7FEFF 		bl	I2C_EEPROM_MasterStatus
 724 0022 0346     		mov	r3, r0
 725 0024 03F00203 		and	r3, r3, #2
 726 0028 002B     		cmp	r3, #0
 727 002a F8D0     		beq	.L44
 174:ExtEEPROM.c   ****     
 175:ExtEEPROM.c   ****     // 10 mS delay to complete the write operation(twr)
 176:ExtEEPROM.c   ****     CyDelay(10);    
 728              		.loc 1 176 0 is_stmt 1
 729 002c 0A20     		movs	r0, #10
 730 002e FFF7FEFF 		bl	CyDelay
 177:ExtEEPROM.c   **** }
 731              		.loc 1 177 0
 732 0032 00BF     		nop
 733 0034 1037     		adds	r7, r7, #16
 734              		.cfi_def_cfa_offset 8
 735 0036 BD46     		mov	sp, r7
 736              		.cfi_def_cfa_register 13
 737              		@ sp needed
 738 0038 80BD     		pop	{r7, pc}
 739              		.cfi_endproc
 740              	.LFE67:
 741              		.size	writeEEPROMBlock, .-writeEEPROMBlock
 742 003a 00BF     		.text
 743              	.Letext0:
 744              		.file 2 "c:\\program files (x86)\\cypress\\psoc creator\\4.4\\psoc creator\\import\\gnu\\arm\\5.4.
 745              		.file 3 "c:\\program files (x86)\\cypress\\psoc creator\\4.4\\psoc creator\\import\\gnu\\arm\\5.4.
 746              		.file 4 "Generated_Source\\PSoC5/cytypes.h"
 747              		.file 5 "Generated_Source\\PSoC5/core_cm3.h"
 748              		.file 6 "EEPROM_Images.h"
 749              		.file 7 "RPI_PSOC5.h"