ARM GAS  C:\Users\HPz420\AppData\Local\Temp\ccsawaKV.s 			page 1


   1              		.syntax unified
   2              		.cpu cortex-m3
   3              		.fpu softvfp
   4              		.eabi_attribute 20, 1
   5              		.eabi_attribute 21, 1
   6              		.eabi_attribute 23, 3
   7              		.eabi_attribute 24, 1
   8              		.eabi_attribute 25, 1
   9              		.eabi_attribute 26, 1
  10              		.eabi_attribute 30, 6
  11              		.eabi_attribute 34, 1
  12              		.eabi_attribute 18, 4
  13              		.thumb
  14              		.syntax unified
  15              		.file	"I2C1_PM.c"
  16              		.text
  17              	.Ltext0:
  18              		.cfi_sections	.debug_frame
  19              		.global	I2C1_backup
  20              		.bss
  21              		.align	2
  22              		.type	I2C1_backup, %object
  23              		.size	I2C1_backup, 2
  24              	I2C1_backup:
  25 0000 0000     		.space	2
  26              		.section	.text.I2C1_SaveConfig,"ax",%progbits
  27              		.align	2
  28              		.global	I2C1_SaveConfig
  29              		.thumb
  30              		.thumb_func
  31              		.type	I2C1_SaveConfig, %function
  32              	I2C1_SaveConfig:
  33              	.LFB0:
  34              		.file 1 "Generated_Source\\PSoC5\\I2C1_PM.c"
   1:Generated_Source\PSoC5/I2C1_PM.c **** /*******************************************************************************
   2:Generated_Source\PSoC5/I2C1_PM.c **** * File Name: I2C1_PM.c
   3:Generated_Source\PSoC5/I2C1_PM.c **** * Version 3.50
   4:Generated_Source\PSoC5/I2C1_PM.c **** *
   5:Generated_Source\PSoC5/I2C1_PM.c **** * Description:
   6:Generated_Source\PSoC5/I2C1_PM.c **** *  This file provides low power mode APIs for the I2C component.
   7:Generated_Source\PSoC5/I2C1_PM.c **** *
   8:Generated_Source\PSoC5/I2C1_PM.c **** ********************************************************************************
   9:Generated_Source\PSoC5/I2C1_PM.c **** * Copyright 2008-2015, Cypress Semiconductor Corporation. All rights reserved.
  10:Generated_Source\PSoC5/I2C1_PM.c **** * You may use this file only in accordance with the license, terms, conditions,
  11:Generated_Source\PSoC5/I2C1_PM.c **** * disclaimers, and limitations in the end user license agreement accompanying
  12:Generated_Source\PSoC5/I2C1_PM.c **** * the software package with which this file was provided.
  13:Generated_Source\PSoC5/I2C1_PM.c **** *******************************************************************************/
  14:Generated_Source\PSoC5/I2C1_PM.c **** 
  15:Generated_Source\PSoC5/I2C1_PM.c **** #include "I2C1_PVT.h"
  16:Generated_Source\PSoC5/I2C1_PM.c **** 
  17:Generated_Source\PSoC5/I2C1_PM.c **** I2C1_BACKUP_STRUCT I2C1_backup =
  18:Generated_Source\PSoC5/I2C1_PM.c **** {
  19:Generated_Source\PSoC5/I2C1_PM.c ****     I2C1_DISABLE,
  20:Generated_Source\PSoC5/I2C1_PM.c **** 
  21:Generated_Source\PSoC5/I2C1_PM.c **** #if (I2C1_FF_IMPLEMENTED)
  22:Generated_Source\PSoC5/I2C1_PM.c ****     I2C1_DEFAULT_XCFG,
  23:Generated_Source\PSoC5/I2C1_PM.c ****     I2C1_DEFAULT_CFG,
ARM GAS  C:\Users\HPz420\AppData\Local\Temp\ccsawaKV.s 			page 2


  24:Generated_Source\PSoC5/I2C1_PM.c ****     I2C1_DEFAULT_ADDR,
  25:Generated_Source\PSoC5/I2C1_PM.c ****     LO8(I2C1_DEFAULT_DIVIDE_FACTOR),
  26:Generated_Source\PSoC5/I2C1_PM.c ****     HI8(I2C1_DEFAULT_DIVIDE_FACTOR),
  27:Generated_Source\PSoC5/I2C1_PM.c **** #else  /* (I2C1_UDB_IMPLEMENTED) */
  28:Generated_Source\PSoC5/I2C1_PM.c ****     I2C1_DEFAULT_CFG,
  29:Generated_Source\PSoC5/I2C1_PM.c **** #endif /* (I2C1_FF_IMPLEMENTED) */
  30:Generated_Source\PSoC5/I2C1_PM.c **** 
  31:Generated_Source\PSoC5/I2C1_PM.c **** #if (I2C1_TIMEOUT_ENABLED)
  32:Generated_Source\PSoC5/I2C1_PM.c ****     I2C1_DEFAULT_TMOUT_PERIOD,
  33:Generated_Source\PSoC5/I2C1_PM.c ****     I2C1_DEFAULT_TMOUT_INTR_MASK,
  34:Generated_Source\PSoC5/I2C1_PM.c **** #endif /* (I2C1_TIMEOUT_ENABLED) */
  35:Generated_Source\PSoC5/I2C1_PM.c **** };
  36:Generated_Source\PSoC5/I2C1_PM.c **** 
  37:Generated_Source\PSoC5/I2C1_PM.c **** #if ((I2C1_FF_IMPLEMENTED) && (I2C1_WAKEUP_ENABLED))
  38:Generated_Source\PSoC5/I2C1_PM.c ****     volatile uint8 I2C1_wakeupSource;
  39:Generated_Source\PSoC5/I2C1_PM.c **** #endif /* ((I2C1_FF_IMPLEMENTED) && (I2C1_WAKEUP_ENABLED)) */
  40:Generated_Source\PSoC5/I2C1_PM.c **** 
  41:Generated_Source\PSoC5/I2C1_PM.c **** 
  42:Generated_Source\PSoC5/I2C1_PM.c **** /*******************************************************************************
  43:Generated_Source\PSoC5/I2C1_PM.c **** * Function Name: I2C1_SaveConfig
  44:Generated_Source\PSoC5/I2C1_PM.c **** ********************************************************************************
  45:Generated_Source\PSoC5/I2C1_PM.c **** *
  46:Generated_Source\PSoC5/I2C1_PM.c **** * Summary:
  47:Generated_Source\PSoC5/I2C1_PM.c **** *  The Enable wakeup from Sleep Mode selection influences this function
  48:Generated_Source\PSoC5/I2C1_PM.c **** *  implementation:
  49:Generated_Source\PSoC5/I2C1_PM.c **** *   Unchecked: Stores the component non-retention configuration registers.
  50:Generated_Source\PSoC5/I2C1_PM.c **** *   Checked:   Disables the master, if it was enabled before, and enables
  51:Generated_Source\PSoC5/I2C1_PM.c **** *              backup regulator of the I2C hardware. If a transaction intended
  52:Generated_Source\PSoC5/I2C1_PM.c **** *              for component executes during this function call, it waits until
  53:Generated_Source\PSoC5/I2C1_PM.c **** *              the current transaction is completed and I2C hardware is ready
  54:Generated_Source\PSoC5/I2C1_PM.c **** *              to enter sleep mode. All subsequent I2C traffic is NAKed until
  55:Generated_Source\PSoC5/I2C1_PM.c **** *              the device is put into sleep mode.
  56:Generated_Source\PSoC5/I2C1_PM.c **** *
  57:Generated_Source\PSoC5/I2C1_PM.c **** * Parameters:
  58:Generated_Source\PSoC5/I2C1_PM.c **** *  None.
  59:Generated_Source\PSoC5/I2C1_PM.c **** *
  60:Generated_Source\PSoC5/I2C1_PM.c **** * Return:
  61:Generated_Source\PSoC5/I2C1_PM.c **** *  None.
  62:Generated_Source\PSoC5/I2C1_PM.c **** *
  63:Generated_Source\PSoC5/I2C1_PM.c **** * Global Variables:
  64:Generated_Source\PSoC5/I2C1_PM.c **** *  I2C1_backup - The global variable used to save the component
  65:Generated_Source\PSoC5/I2C1_PM.c **** *                            configuration and non-retention registers before
  66:Generated_Source\PSoC5/I2C1_PM.c **** *                            entering the sleep mode.
  67:Generated_Source\PSoC5/I2C1_PM.c **** *
  68:Generated_Source\PSoC5/I2C1_PM.c **** * Reentrant:
  69:Generated_Source\PSoC5/I2C1_PM.c **** *  No.
  70:Generated_Source\PSoC5/I2C1_PM.c **** *
  71:Generated_Source\PSoC5/I2C1_PM.c **** *******************************************************************************/
  72:Generated_Source\PSoC5/I2C1_PM.c **** void I2C1_SaveConfig(void) 
  73:Generated_Source\PSoC5/I2C1_PM.c **** {
  35              		.loc 1 73 0
  36              		.cfi_startproc
  37              		@ args = 0, pretend = 0, frame = 0
  38              		@ frame_needed = 1, uses_anonymous_args = 0
  39              		@ link register save eliminated.
  40 0000 80B4     		push	{r7}
  41              		.cfi_def_cfa_offset 4
ARM GAS  C:\Users\HPz420\AppData\Local\Temp\ccsawaKV.s 			page 3


  42              		.cfi_offset 7, -4
  43 0002 00AF     		add	r7, sp, #0
  44              		.cfi_def_cfa_register 7
  74:Generated_Source\PSoC5/I2C1_PM.c **** #if (I2C1_FF_IMPLEMENTED)
  75:Generated_Source\PSoC5/I2C1_PM.c ****     #if (I2C1_WAKEUP_ENABLED)
  76:Generated_Source\PSoC5/I2C1_PM.c ****         uint8 intState;
  77:Generated_Source\PSoC5/I2C1_PM.c ****     #endif /* (I2C1_WAKEUP_ENABLED) */
  78:Generated_Source\PSoC5/I2C1_PM.c **** 
  79:Generated_Source\PSoC5/I2C1_PM.c ****     /* Store registers before enter low power mode */
  80:Generated_Source\PSoC5/I2C1_PM.c ****     I2C1_backup.cfg     = I2C1_CFG_REG;
  81:Generated_Source\PSoC5/I2C1_PM.c ****     I2C1_backup.xcfg    = I2C1_XCFG_REG;
  82:Generated_Source\PSoC5/I2C1_PM.c ****     I2C1_backup.addr    = I2C1_ADDR_REG;
  83:Generated_Source\PSoC5/I2C1_PM.c ****     I2C1_backup.clkDiv1 = I2C1_CLKDIV1_REG;
  84:Generated_Source\PSoC5/I2C1_PM.c ****     I2C1_backup.clkDiv2 = I2C1_CLKDIV2_REG;
  85:Generated_Source\PSoC5/I2C1_PM.c **** 
  86:Generated_Source\PSoC5/I2C1_PM.c **** #if (I2C1_WAKEUP_ENABLED)
  87:Generated_Source\PSoC5/I2C1_PM.c ****     /* Disable master */
  88:Generated_Source\PSoC5/I2C1_PM.c ****     I2C1_CFG_REG &= (uint8) ~I2C1_ENABLE_MASTER;
  89:Generated_Source\PSoC5/I2C1_PM.c **** 
  90:Generated_Source\PSoC5/I2C1_PM.c ****     /* Enable backup regulator to keep block powered in low power mode */
  91:Generated_Source\PSoC5/I2C1_PM.c ****     intState = CyEnterCriticalSection();
  92:Generated_Source\PSoC5/I2C1_PM.c ****     I2C1_PWRSYS_CR1_REG |= I2C1_PWRSYS_CR1_I2C_REG_BACKUP;
  93:Generated_Source\PSoC5/I2C1_PM.c ****     CyExitCriticalSection(intState);
  94:Generated_Source\PSoC5/I2C1_PM.c **** 
  95:Generated_Source\PSoC5/I2C1_PM.c ****     /* 1) Set force NACK to ignore I2C transactions;
  96:Generated_Source\PSoC5/I2C1_PM.c ****     *  2) Wait unti I2C is ready go to Sleep; !!
  97:Generated_Source\PSoC5/I2C1_PM.c ****     *  3) These bits are cleared on wake up.
  98:Generated_Source\PSoC5/I2C1_PM.c ****     */
  99:Generated_Source\PSoC5/I2C1_PM.c ****     /* Wait when block is ready for sleep */
 100:Generated_Source\PSoC5/I2C1_PM.c ****     I2C1_XCFG_REG |= I2C1_XCFG_FORCE_NACK;
 101:Generated_Source\PSoC5/I2C1_PM.c ****     while (0u == (I2C1_XCFG_REG & I2C1_XCFG_RDY_TO_SLEEP))
 102:Generated_Source\PSoC5/I2C1_PM.c ****     {
 103:Generated_Source\PSoC5/I2C1_PM.c ****     }
 104:Generated_Source\PSoC5/I2C1_PM.c **** 
 105:Generated_Source\PSoC5/I2C1_PM.c ****     /* Setup wakeup interrupt */
 106:Generated_Source\PSoC5/I2C1_PM.c ****     I2C1_DisableInt();
 107:Generated_Source\PSoC5/I2C1_PM.c ****     (void) CyIntSetVector(I2C1_ISR_NUMBER, &I2C1_WAKEUP_ISR);
 108:Generated_Source\PSoC5/I2C1_PM.c ****     I2C1_wakeupSource = 0u;
 109:Generated_Source\PSoC5/I2C1_PM.c ****     I2C1_EnableInt();
 110:Generated_Source\PSoC5/I2C1_PM.c **** #endif /* (I2C1_WAKEUP_ENABLED) */
 111:Generated_Source\PSoC5/I2C1_PM.c **** 
 112:Generated_Source\PSoC5/I2C1_PM.c **** #else
 113:Generated_Source\PSoC5/I2C1_PM.c ****     /* Store only address match bit */
 114:Generated_Source\PSoC5/I2C1_PM.c ****     I2C1_backup.control = (I2C1_CFG_REG & I2C1_CTRL_ANY_ADDRESS_MASK);
  45              		.loc 1 114 0
  46 0004 054B     		ldr	r3, .L2
  47 0006 1B78     		ldrb	r3, [r3]
  48 0008 DBB2     		uxtb	r3, r3
  49 000a 03F00803 		and	r3, r3, #8
  50 000e DAB2     		uxtb	r2, r3
  51 0010 034B     		ldr	r3, .L2+4
  52 0012 5A70     		strb	r2, [r3, #1]
 115:Generated_Source\PSoC5/I2C1_PM.c **** #endif /* (I2C1_FF_IMPLEMENTED) */
 116:Generated_Source\PSoC5/I2C1_PM.c **** 
 117:Generated_Source\PSoC5/I2C1_PM.c **** #if (I2C1_TIMEOUT_ENABLED)
 118:Generated_Source\PSoC5/I2C1_PM.c ****     I2C1_TimeoutSaveConfig();
 119:Generated_Source\PSoC5/I2C1_PM.c **** #endif /* (I2C1_TIMEOUT_ENABLED) */
ARM GAS  C:\Users\HPz420\AppData\Local\Temp\ccsawaKV.s 			page 4


 120:Generated_Source\PSoC5/I2C1_PM.c **** }
  53              		.loc 1 120 0
  54 0014 00BF     		nop
  55 0016 BD46     		mov	sp, r7
  56              		.cfi_def_cfa_register 13
  57              		@ sp needed
  58 0018 80BC     		pop	{r7}
  59              		.cfi_restore 7
  60              		.cfi_def_cfa_offset 0
  61 001a 7047     		bx	lr
  62              	.L3:
  63              		.align	2
  64              	.L2:
  65 001c 77640040 		.word	1073767543
  66 0020 00000000 		.word	I2C1_backup
  67              		.cfi_endproc
  68              	.LFE0:
  69              		.size	I2C1_SaveConfig, .-I2C1_SaveConfig
  70              		.section	.text.I2C1_Sleep,"ax",%progbits
  71              		.align	2
  72              		.global	I2C1_Sleep
  73              		.thumb
  74              		.thumb_func
  75              		.type	I2C1_Sleep, %function
  76              	I2C1_Sleep:
  77              	.LFB1:
 121:Generated_Source\PSoC5/I2C1_PM.c **** 
 122:Generated_Source\PSoC5/I2C1_PM.c **** 
 123:Generated_Source\PSoC5/I2C1_PM.c **** /*******************************************************************************
 124:Generated_Source\PSoC5/I2C1_PM.c **** * Function Name: I2C1_Sleep
 125:Generated_Source\PSoC5/I2C1_PM.c **** ********************************************************************************
 126:Generated_Source\PSoC5/I2C1_PM.c **** *
 127:Generated_Source\PSoC5/I2C1_PM.c **** * Summary:
 128:Generated_Source\PSoC5/I2C1_PM.c **** *  This is the preferred method to prepare the component before device enters
 129:Generated_Source\PSoC5/I2C1_PM.c **** *  sleep mode. The Enable wakeup from Sleep Mode selection influences this
 130:Generated_Source\PSoC5/I2C1_PM.c **** *  function implementation:
 131:Generated_Source\PSoC5/I2C1_PM.c **** *   Unchecked: Checks current I2C component state, saves it, and disables the
 132:Generated_Source\PSoC5/I2C1_PM.c **** *              component by calling I2C_Stop() if it is currently enabled.
 133:Generated_Source\PSoC5/I2C1_PM.c **** *              I2C_SaveConfig() is then called to save the component
 134:Generated_Source\PSoC5/I2C1_PM.c **** *              non-retention configuration registers.
 135:Generated_Source\PSoC5/I2C1_PM.c **** *   Checked:   If a transaction intended for component executes during this
 136:Generated_Source\PSoC5/I2C1_PM.c **** *              function call, it waits until the current transaction is
 137:Generated_Source\PSoC5/I2C1_PM.c **** *              completed. All subsequent I2C traffic intended for component
 138:Generated_Source\PSoC5/I2C1_PM.c **** *              is NAKed until the device is put to sleep mode. The address
 139:Generated_Source\PSoC5/I2C1_PM.c **** *              match event wakes up the device.
 140:Generated_Source\PSoC5/I2C1_PM.c **** *
 141:Generated_Source\PSoC5/I2C1_PM.c **** * Parameters:
 142:Generated_Source\PSoC5/I2C1_PM.c **** *  None.
 143:Generated_Source\PSoC5/I2C1_PM.c **** *
 144:Generated_Source\PSoC5/I2C1_PM.c **** * Return:
 145:Generated_Source\PSoC5/I2C1_PM.c **** *  None.
 146:Generated_Source\PSoC5/I2C1_PM.c **** *
 147:Generated_Source\PSoC5/I2C1_PM.c **** * Reentrant:
 148:Generated_Source\PSoC5/I2C1_PM.c **** *  No.
 149:Generated_Source\PSoC5/I2C1_PM.c **** *
 150:Generated_Source\PSoC5/I2C1_PM.c **** *******************************************************************************/
 151:Generated_Source\PSoC5/I2C1_PM.c **** void I2C1_Sleep(void) 
ARM GAS  C:\Users\HPz420\AppData\Local\Temp\ccsawaKV.s 			page 5


 152:Generated_Source\PSoC5/I2C1_PM.c **** {
  78              		.loc 1 152 0
  79              		.cfi_startproc
  80              		@ args = 0, pretend = 0, frame = 0
  81              		@ frame_needed = 1, uses_anonymous_args = 0
  82 0000 80B5     		push	{r7, lr}
  83              		.cfi_def_cfa_offset 8
  84              		.cfi_offset 7, -8
  85              		.cfi_offset 14, -4
  86 0002 00AF     		add	r7, sp, #0
  87              		.cfi_def_cfa_register 7
 153:Generated_Source\PSoC5/I2C1_PM.c **** #if (I2C1_WAKEUP_ENABLED)
 154:Generated_Source\PSoC5/I2C1_PM.c ****     /* Do not enable block after exit low power mode if it is wakeup source */
 155:Generated_Source\PSoC5/I2C1_PM.c ****     I2C1_backup.enableState = I2C1_DISABLE;
 156:Generated_Source\PSoC5/I2C1_PM.c **** 
 157:Generated_Source\PSoC5/I2C1_PM.c ****     #if (I2C1_TIMEOUT_ENABLED)
 158:Generated_Source\PSoC5/I2C1_PM.c ****         I2C1_TimeoutStop();
 159:Generated_Source\PSoC5/I2C1_PM.c ****     #endif /* (I2C1_TIMEOUT_ENABLED) */
 160:Generated_Source\PSoC5/I2C1_PM.c **** 
 161:Generated_Source\PSoC5/I2C1_PM.c **** #else
 162:Generated_Source\PSoC5/I2C1_PM.c ****     /* Store enable state */
 163:Generated_Source\PSoC5/I2C1_PM.c ****     I2C1_backup.enableState = (uint8) I2C1_IS_ENABLED;
  88              		.loc 1 163 0
  89 0004 0B4B     		ldr	r3, .L6
  90 0006 1B78     		ldrb	r3, [r3]
  91 0008 DBB2     		uxtb	r3, r3
  92 000a 03F00203 		and	r3, r3, #2
  93 000e 002B     		cmp	r3, #0
  94 0010 14BF     		ite	ne
  95 0012 0123     		movne	r3, #1
  96 0014 0023     		moveq	r3, #0
  97 0016 DBB2     		uxtb	r3, r3
  98 0018 1A46     		mov	r2, r3
  99 001a 074B     		ldr	r3, .L6+4
 100 001c 1A70     		strb	r2, [r3]
 164:Generated_Source\PSoC5/I2C1_PM.c **** 
 165:Generated_Source\PSoC5/I2C1_PM.c ****     if (0u != I2C1_backup.enableState)
 101              		.loc 1 165 0
 102 001e 064B     		ldr	r3, .L6+4
 103 0020 1B78     		ldrb	r3, [r3]	@ zero_extendqisi2
 104 0022 002B     		cmp	r3, #0
 105 0024 01D0     		beq	.L5
 166:Generated_Source\PSoC5/I2C1_PM.c ****     {
 167:Generated_Source\PSoC5/I2C1_PM.c ****         I2C1_Stop();
 106              		.loc 1 167 0
 107 0026 FFF7FEFF 		bl	I2C1_Stop
 108              	.L5:
 168:Generated_Source\PSoC5/I2C1_PM.c ****     }
 169:Generated_Source\PSoC5/I2C1_PM.c **** #endif /* (I2C1_WAKEUP_ENABLED) */
 170:Generated_Source\PSoC5/I2C1_PM.c **** 
 171:Generated_Source\PSoC5/I2C1_PM.c ****     I2C1_SaveConfig();
 109              		.loc 1 171 0
 110 002a FFF7FEFF 		bl	I2C1_SaveConfig
 172:Generated_Source\PSoC5/I2C1_PM.c **** }
 111              		.loc 1 172 0
 112 002e 00BF     		nop
 113 0030 80BD     		pop	{r7, pc}
ARM GAS  C:\Users\HPz420\AppData\Local\Temp\ccsawaKV.s 			page 6


 114              	.L7:
 115 0032 00BF     		.align	2
 116              	.L6:
 117 0034 77640040 		.word	1073767543
 118 0038 00000000 		.word	I2C1_backup
 119              		.cfi_endproc
 120              	.LFE1:
 121              		.size	I2C1_Sleep, .-I2C1_Sleep
 122              		.section	.text.I2C1_RestoreConfig,"ax",%progbits
 123              		.align	2
 124              		.global	I2C1_RestoreConfig
 125              		.thumb
 126              		.thumb_func
 127              		.type	I2C1_RestoreConfig, %function
 128              	I2C1_RestoreConfig:
 129              	.LFB2:
 173:Generated_Source\PSoC5/I2C1_PM.c **** 
 174:Generated_Source\PSoC5/I2C1_PM.c **** 
 175:Generated_Source\PSoC5/I2C1_PM.c **** /*******************************************************************************
 176:Generated_Source\PSoC5/I2C1_PM.c **** * Function Name: I2C1_RestoreConfig
 177:Generated_Source\PSoC5/I2C1_PM.c **** ********************************************************************************
 178:Generated_Source\PSoC5/I2C1_PM.c **** *
 179:Generated_Source\PSoC5/I2C1_PM.c **** * Summary:
 180:Generated_Source\PSoC5/I2C1_PM.c **** *  The Enable wakeup from Sleep Mode selection influences this function
 181:Generated_Source\PSoC5/I2C1_PM.c **** *  implementation:
 182:Generated_Source\PSoC5/I2C1_PM.c **** *   Unchecked: Restores the component non-retention configuration registers
 183:Generated_Source\PSoC5/I2C1_PM.c **** *              to the state they were in before I2C_Sleep() or I2C_SaveConfig()
 184:Generated_Source\PSoC5/I2C1_PM.c **** *              was called.
 185:Generated_Source\PSoC5/I2C1_PM.c **** *   Checked:   Disables the backup regulator of the I2C hardware. Sets up the
 186:Generated_Source\PSoC5/I2C1_PM.c **** *              regular component interrupt handler and generates the component
 187:Generated_Source\PSoC5/I2C1_PM.c **** *              interrupt if it was wake up source to release the bus and
 188:Generated_Source\PSoC5/I2C1_PM.c **** *              continue in-coming I2C transaction.
 189:Generated_Source\PSoC5/I2C1_PM.c **** *
 190:Generated_Source\PSoC5/I2C1_PM.c **** * Parameters:
 191:Generated_Source\PSoC5/I2C1_PM.c **** *  None.
 192:Generated_Source\PSoC5/I2C1_PM.c **** *
 193:Generated_Source\PSoC5/I2C1_PM.c **** * Return:
 194:Generated_Source\PSoC5/I2C1_PM.c **** *  None.
 195:Generated_Source\PSoC5/I2C1_PM.c **** *
 196:Generated_Source\PSoC5/I2C1_PM.c **** * Global Variables:
 197:Generated_Source\PSoC5/I2C1_PM.c **** *  I2C1_backup - The global variable used to save the component
 198:Generated_Source\PSoC5/I2C1_PM.c **** *                            configuration and non-retention registers before
 199:Generated_Source\PSoC5/I2C1_PM.c **** *                            exiting the sleep mode.
 200:Generated_Source\PSoC5/I2C1_PM.c **** *
 201:Generated_Source\PSoC5/I2C1_PM.c **** * Reentrant:
 202:Generated_Source\PSoC5/I2C1_PM.c **** *  No.
 203:Generated_Source\PSoC5/I2C1_PM.c **** *
 204:Generated_Source\PSoC5/I2C1_PM.c **** * Side Effects:
 205:Generated_Source\PSoC5/I2C1_PM.c **** *  Calling this function before I2C1_SaveConfig() or
 206:Generated_Source\PSoC5/I2C1_PM.c **** *  I2C1_Sleep() will lead to unpredictable results.
 207:Generated_Source\PSoC5/I2C1_PM.c **** *
 208:Generated_Source\PSoC5/I2C1_PM.c **** *******************************************************************************/
 209:Generated_Source\PSoC5/I2C1_PM.c **** void I2C1_RestoreConfig(void) 
 210:Generated_Source\PSoC5/I2C1_PM.c **** {
 130              		.loc 1 210 0
 131              		.cfi_startproc
 132              		@ args = 0, pretend = 0, frame = 0
ARM GAS  C:\Users\HPz420\AppData\Local\Temp\ccsawaKV.s 			page 7


 133              		@ frame_needed = 1, uses_anonymous_args = 0
 134              		@ link register save eliminated.
 135 0000 80B4     		push	{r7}
 136              		.cfi_def_cfa_offset 4
 137              		.cfi_offset 7, -4
 138 0002 00AF     		add	r7, sp, #0
 139              		.cfi_def_cfa_register 7
 211:Generated_Source\PSoC5/I2C1_PM.c **** #if (I2C1_FF_IMPLEMENTED)
 212:Generated_Source\PSoC5/I2C1_PM.c ****     uint8 intState;
 213:Generated_Source\PSoC5/I2C1_PM.c **** 
 214:Generated_Source\PSoC5/I2C1_PM.c ****     if (I2C1_CHECK_PWRSYS_I2C_BACKUP)
 215:Generated_Source\PSoC5/I2C1_PM.c ****     /* Low power mode was Sleep - backup regulator is enabled */
 216:Generated_Source\PSoC5/I2C1_PM.c ****     {
 217:Generated_Source\PSoC5/I2C1_PM.c ****         /* Enable backup regulator in active mode */
 218:Generated_Source\PSoC5/I2C1_PM.c ****         intState = CyEnterCriticalSection();
 219:Generated_Source\PSoC5/I2C1_PM.c ****         I2C1_PWRSYS_CR1_REG &= (uint8) ~I2C1_PWRSYS_CR1_I2C_REG_BACKUP;
 220:Generated_Source\PSoC5/I2C1_PM.c ****         CyExitCriticalSection(intState);
 221:Generated_Source\PSoC5/I2C1_PM.c **** 
 222:Generated_Source\PSoC5/I2C1_PM.c ****         /* Restore master */
 223:Generated_Source\PSoC5/I2C1_PM.c ****         I2C1_CFG_REG = I2C1_backup.cfg;
 224:Generated_Source\PSoC5/I2C1_PM.c ****     }
 225:Generated_Source\PSoC5/I2C1_PM.c ****     else
 226:Generated_Source\PSoC5/I2C1_PM.c ****     /* Low power mode was Hibernate - backup regulator is disabled. All registers are cleared */
 227:Generated_Source\PSoC5/I2C1_PM.c ****     {
 228:Generated_Source\PSoC5/I2C1_PM.c ****     #if (I2C1_WAKEUP_ENABLED)
 229:Generated_Source\PSoC5/I2C1_PM.c ****         /* Disable power to block before register restore */
 230:Generated_Source\PSoC5/I2C1_PM.c ****         intState = CyEnterCriticalSection();
 231:Generated_Source\PSoC5/I2C1_PM.c ****         I2C1_ACT_PWRMGR_REG  &= (uint8) ~I2C1_ACT_PWR_EN;
 232:Generated_Source\PSoC5/I2C1_PM.c ****         I2C1_STBY_PWRMGR_REG &= (uint8) ~I2C1_STBY_PWR_EN;
 233:Generated_Source\PSoC5/I2C1_PM.c ****         CyExitCriticalSection(intState);
 234:Generated_Source\PSoC5/I2C1_PM.c **** 
 235:Generated_Source\PSoC5/I2C1_PM.c ****         /* Enable component in I2C_Wakeup() after register restore */
 236:Generated_Source\PSoC5/I2C1_PM.c ****         I2C1_backup.enableState = I2C1_ENABLE;
 237:Generated_Source\PSoC5/I2C1_PM.c ****     #endif /* (I2C1_WAKEUP_ENABLED) */
 238:Generated_Source\PSoC5/I2C1_PM.c **** 
 239:Generated_Source\PSoC5/I2C1_PM.c ****         /* Restore component registers after Hibernate */
 240:Generated_Source\PSoC5/I2C1_PM.c ****         I2C1_XCFG_REG    = I2C1_backup.xcfg;
 241:Generated_Source\PSoC5/I2C1_PM.c ****         I2C1_CFG_REG     = I2C1_backup.cfg;
 242:Generated_Source\PSoC5/I2C1_PM.c ****         I2C1_ADDR_REG    = I2C1_backup.addr;
 243:Generated_Source\PSoC5/I2C1_PM.c ****         I2C1_CLKDIV1_REG = I2C1_backup.clkDiv1;
 244:Generated_Source\PSoC5/I2C1_PM.c ****         I2C1_CLKDIV2_REG = I2C1_backup.clkDiv2;
 245:Generated_Source\PSoC5/I2C1_PM.c ****     }
 246:Generated_Source\PSoC5/I2C1_PM.c **** 
 247:Generated_Source\PSoC5/I2C1_PM.c **** #if (I2C1_WAKEUP_ENABLED)
 248:Generated_Source\PSoC5/I2C1_PM.c ****     I2C1_DisableInt();
 249:Generated_Source\PSoC5/I2C1_PM.c ****     (void) CyIntSetVector(I2C1_ISR_NUMBER, &I2C1_ISR);
 250:Generated_Source\PSoC5/I2C1_PM.c ****     if (0u != I2C1_wakeupSource)
 251:Generated_Source\PSoC5/I2C1_PM.c ****     {
 252:Generated_Source\PSoC5/I2C1_PM.c ****         /* Generate interrupt to process incoming transaction */
 253:Generated_Source\PSoC5/I2C1_PM.c ****         I2C1_SetPendingInt();
 254:Generated_Source\PSoC5/I2C1_PM.c ****     }
 255:Generated_Source\PSoC5/I2C1_PM.c ****     I2C1_EnableInt();
 256:Generated_Source\PSoC5/I2C1_PM.c **** #endif /* (I2C1_WAKEUP_ENABLED) */
 257:Generated_Source\PSoC5/I2C1_PM.c **** 
 258:Generated_Source\PSoC5/I2C1_PM.c **** #else
 259:Generated_Source\PSoC5/I2C1_PM.c ****     I2C1_CFG_REG = I2C1_backup.control;
 140              		.loc 1 259 0
ARM GAS  C:\Users\HPz420\AppData\Local\Temp\ccsawaKV.s 			page 8


 141 0004 034B     		ldr	r3, .L9
 142 0006 044A     		ldr	r2, .L9+4
 143 0008 5278     		ldrb	r2, [r2, #1]	@ zero_extendqisi2
 144 000a 1A70     		strb	r2, [r3]
 260:Generated_Source\PSoC5/I2C1_PM.c **** #endif /* (I2C1_FF_IMPLEMENTED) */
 261:Generated_Source\PSoC5/I2C1_PM.c **** 
 262:Generated_Source\PSoC5/I2C1_PM.c **** #if (I2C1_TIMEOUT_ENABLED)
 263:Generated_Source\PSoC5/I2C1_PM.c ****     I2C1_TimeoutRestoreConfig();
 264:Generated_Source\PSoC5/I2C1_PM.c **** #endif /* (I2C1_TIMEOUT_ENABLED) */
 265:Generated_Source\PSoC5/I2C1_PM.c **** }
 145              		.loc 1 265 0
 146 000c 00BF     		nop
 147 000e BD46     		mov	sp, r7
 148              		.cfi_def_cfa_register 13
 149              		@ sp needed
 150 0010 80BC     		pop	{r7}
 151              		.cfi_restore 7
 152              		.cfi_def_cfa_offset 0
 153 0012 7047     		bx	lr
 154              	.L10:
 155              		.align	2
 156              	.L9:
 157 0014 77640040 		.word	1073767543
 158 0018 00000000 		.word	I2C1_backup
 159              		.cfi_endproc
 160              	.LFE2:
 161              		.size	I2C1_RestoreConfig, .-I2C1_RestoreConfig
 162              		.section	.text.I2C1_Wakeup,"ax",%progbits
 163              		.align	2
 164              		.global	I2C1_Wakeup
 165              		.thumb
 166              		.thumb_func
 167              		.type	I2C1_Wakeup, %function
 168              	I2C1_Wakeup:
 169              	.LFB3:
 266:Generated_Source\PSoC5/I2C1_PM.c **** 
 267:Generated_Source\PSoC5/I2C1_PM.c **** 
 268:Generated_Source\PSoC5/I2C1_PM.c **** /*******************************************************************************
 269:Generated_Source\PSoC5/I2C1_PM.c **** * Function Name: I2C1_Wakeup
 270:Generated_Source\PSoC5/I2C1_PM.c **** ********************************************************************************
 271:Generated_Source\PSoC5/I2C1_PM.c **** *
 272:Generated_Source\PSoC5/I2C1_PM.c **** * Summary:
 273:Generated_Source\PSoC5/I2C1_PM.c **** *  This is the preferred method to prepare the component for active mode
 274:Generated_Source\PSoC5/I2C1_PM.c **** *  operation (when device exits sleep mode). The Enable wakeup from Sleep Mode
 275:Generated_Source\PSoC5/I2C1_PM.c **** *  selection influences this function implementation:
 276:Generated_Source\PSoC5/I2C1_PM.c **** *   Unchecked: Restores the component non-retention configuration registers
 277:Generated_Source\PSoC5/I2C1_PM.c **** *              by calling I2C_RestoreConfig(). If the component was enabled
 278:Generated_Source\PSoC5/I2C1_PM.c **** *              before the I2C_Sleep() function was called, I2C_Wakeup()
 279:Generated_Source\PSoC5/I2C1_PM.c **** *              re-enables it.
 280:Generated_Source\PSoC5/I2C1_PM.c **** *   Checked:   Enables  master functionality if it was enabled before sleep,
 281:Generated_Source\PSoC5/I2C1_PM.c **** *              and disables the backup regulator of the I2C hardware.
 282:Generated_Source\PSoC5/I2C1_PM.c **** *              The incoming transaction continues as soon as the regular
 283:Generated_Source\PSoC5/I2C1_PM.c **** *              I2C interrupt handler is set up (global interrupts has to be
 284:Generated_Source\PSoC5/I2C1_PM.c **** *              enabled to service I2C component interrupt).
 285:Generated_Source\PSoC5/I2C1_PM.c **** *
 286:Generated_Source\PSoC5/I2C1_PM.c **** * Parameters:
 287:Generated_Source\PSoC5/I2C1_PM.c **** *  None.
ARM GAS  C:\Users\HPz420\AppData\Local\Temp\ccsawaKV.s 			page 9


 288:Generated_Source\PSoC5/I2C1_PM.c **** *
 289:Generated_Source\PSoC5/I2C1_PM.c **** * Return:
 290:Generated_Source\PSoC5/I2C1_PM.c **** *  None.
 291:Generated_Source\PSoC5/I2C1_PM.c **** *
 292:Generated_Source\PSoC5/I2C1_PM.c **** * Reentrant:
 293:Generated_Source\PSoC5/I2C1_PM.c **** *  No.
 294:Generated_Source\PSoC5/I2C1_PM.c **** *
 295:Generated_Source\PSoC5/I2C1_PM.c **** * Side Effects:
 296:Generated_Source\PSoC5/I2C1_PM.c **** *  Calling this function before I2C1_SaveConfig() or
 297:Generated_Source\PSoC5/I2C1_PM.c **** *  I2C1_Sleep() will lead to unpredictable results.
 298:Generated_Source\PSoC5/I2C1_PM.c **** *
 299:Generated_Source\PSoC5/I2C1_PM.c **** *******************************************************************************/
 300:Generated_Source\PSoC5/I2C1_PM.c **** void I2C1_Wakeup(void) 
 301:Generated_Source\PSoC5/I2C1_PM.c **** {
 170              		.loc 1 301 0
 171              		.cfi_startproc
 172              		@ args = 0, pretend = 0, frame = 0
 173              		@ frame_needed = 1, uses_anonymous_args = 0
 174 0000 80B5     		push	{r7, lr}
 175              		.cfi_def_cfa_offset 8
 176              		.cfi_offset 7, -8
 177              		.cfi_offset 14, -4
 178 0002 00AF     		add	r7, sp, #0
 179              		.cfi_def_cfa_register 7
 302:Generated_Source\PSoC5/I2C1_PM.c ****     I2C1_RestoreConfig();
 180              		.loc 1 302 0
 181 0004 FFF7FEFF 		bl	I2C1_RestoreConfig
 303:Generated_Source\PSoC5/I2C1_PM.c **** 
 304:Generated_Source\PSoC5/I2C1_PM.c ****     /* Restore component enable state */
 305:Generated_Source\PSoC5/I2C1_PM.c ****     if (0u != I2C1_backup.enableState)
 182              		.loc 1 305 0
 183 0008 054B     		ldr	r3, .L14
 184 000a 1B78     		ldrb	r3, [r3]	@ zero_extendqisi2
 185 000c 002B     		cmp	r3, #0
 186 000e 04D0     		beq	.L13
 306:Generated_Source\PSoC5/I2C1_PM.c ****     {
 307:Generated_Source\PSoC5/I2C1_PM.c ****         I2C1_Enable();
 187              		.loc 1 307 0
 188 0010 FFF7FEFF 		bl	I2C1_Enable
 308:Generated_Source\PSoC5/I2C1_PM.c ****         I2C1_EnableInt();
 189              		.loc 1 308 0
 190 0014 034B     		ldr	r3, .L14+4
 191 0016 0122     		movs	r2, #1
 192 0018 1A60     		str	r2, [r3]
 193              	.L13:
 309:Generated_Source\PSoC5/I2C1_PM.c ****     }
 310:Generated_Source\PSoC5/I2C1_PM.c ****     else
 311:Generated_Source\PSoC5/I2C1_PM.c ****     {
 312:Generated_Source\PSoC5/I2C1_PM.c ****     #if (I2C1_TIMEOUT_ENABLED)
 313:Generated_Source\PSoC5/I2C1_PM.c ****         I2C1_TimeoutEnable();
 314:Generated_Source\PSoC5/I2C1_PM.c ****     #endif /* (I2C1_TIMEOUT_ENABLED) */
 315:Generated_Source\PSoC5/I2C1_PM.c ****     }
 316:Generated_Source\PSoC5/I2C1_PM.c **** }
 194              		.loc 1 316 0
 195 001a 00BF     		nop
 196 001c 80BD     		pop	{r7, pc}
 197              	.L15:
ARM GAS  C:\Users\HPz420\AppData\Local\Temp\ccsawaKV.s 			page 10


 198 001e 00BF     		.align	2
 199              	.L14:
 200 0020 00000000 		.word	I2C1_backup
 201 0024 00E100E0 		.word	-536813312
 202              		.cfi_endproc
 203              	.LFE3:
 204              		.size	I2C1_Wakeup, .-I2C1_Wakeup
 205              		.text
 206              	.Letext0:
 207              		.file 2 "Generated_Source\\PSoC5\\cytypes.h"
 208              		.file 3 "Generated_Source\\PSoC5\\I2C1.h"