ARM GAS  C:\Users\HPz420\AppData\Local\Temp\ccpmNshK.s 			page 1


   1              		.syntax unified
   2              		.cpu cortex-m3
   3              		.fpu softvfp
   4              		.eabi_attribute 20, 1
   5              		.eabi_attribute 21, 1
   6              		.eabi_attribute 23, 3
   7              		.eabi_attribute 24, 1
   8              		.eabi_attribute 25, 1
   9              		.eabi_attribute 26, 1
  10              		.eabi_attribute 30, 6
  11              		.eabi_attribute 34, 1
  12              		.eabi_attribute 18, 4
  13              		.thumb
  14              		.syntax unified
  15              		.file	"main.c"
  16              		.text
  17              	.Ltext0:
  18              		.cfi_sections	.debug_frame
  19              		.section	.text.main,"ax",%progbits
  20              		.align	2
  21              		.global	main
  22              		.thumb
  23              		.thumb_func
  24              		.type	main, %function
  25              	main:
  26              	.LFB64:
  27              		.file 1 "main.c"
   1:main.c        **** /*******************************************************************************
   2:main.c        **** * File Name: main.c
   3:main.c        **** *
   4:main.c        **** * Version: 2.0
   5:main.c        **** *
   6:main.c        **** * Description:
   7:main.c        **** *   The is based on the Cypress Virtual Com port code. 
   8:main.c        **** *   Receives data from the serial port, then sends back the received data.
   9:main.c        **** *
  10:main.c        **** * Related Document:
  11:main.c        **** *  Universal Serial Bus Specification Revision 2.0
  12:main.c        **** *  Universal Serial Bus Class Definitions for Communications Devices
  13:main.c        **** *  Revision 1.2
  14:main.c        **** *
  15:main.c        **** *   Test software for Raspberry Pi cards
  16:main.c        **** *   Runs on the the RPI_PSOC5 card
  17:main.c        **** *      http://land-boards.com/blwiki/index.php?title=RPI_PSOC5
  18:main.c        **** *   Tests the following cards
  19:main.c        **** *       RPP-UIO-16 Card
  20:main.c        **** *       RPPSOC Card
  21:main.c        **** *       RASPI-PLUS-GVS-CFG Card
  22:main.c        **** *       RASPI-GVS Card
  23:main.c        **** *       RASPI-PLUS-GVS Card
  24:main.c        **** *       RPI-I2C-HUB Card
  25:main.c        **** *       RPI-SPI8 Card
  26:main.c        **** *
  27:main.c        **** ********************************************************************************
  28:main.c        **** * Copyright 2015, Cypress Semiconductor Corporation. All rights reserved.
  29:main.c        **** * This software is owned by Cypress Semiconductor Corporation and is protected
  30:main.c        **** * by and subject to worldwide patent and copyright laws and treaties.
ARM GAS  C:\Users\HPz420\AppData\Local\Temp\ccpmNshK.s 			page 2


  31:main.c        **** * Therefore, you may use this software only as provided in the license agreement
  32:main.c        **** * accompanying the software package from which you obtained this software.
  33:main.c        **** * CYPRESS AND ITS SUPPLIERS MAKE NO WARRANTY OF ANY KIND, EXPRESS OR IMPLIED,
  34:main.c        **** * WITH REGARD TO THIS SOFTWARE, INCLUDING, BUT NOT LIMITED TO, NONINFRINGEMENT,
  35:main.c        **** * IMPLIED WARRANTIES OF MERCHANTABILITY AND FITNESS FOR A PARTICULAR PURPOSE.
  36:main.c        **** *******************************************************************************/
  37:main.c        **** 
  38:main.c        **** #include <project.h>
  39:main.c        **** #include "stdio.h"
  40:main.c        **** #include "RPI_PSOC5.h"
  41:main.c        **** 
  42:main.c        **** #if defined (__GNUC__)
  43:main.c        ****     /* Add an explicit reference to the floating point printf library */
  44:main.c        ****     /* to allow usage of the floating point conversion specifiers. */
  45:main.c        ****     /* This is not linked in by default with the newlib-nano library. */
  46:main.c        **** //    asm (".global _printf_float");
  47:main.c        **** #endif
  48:main.c        **** 
  49:main.c        **** #define USBFS_DEVICE    (0u)
  50:main.c        **** 
  51:main.c        **** /* The inBuffer size is equal to the maximum packet size of the IN and OUT bulk
  52:main.c        **** * endpoints.
  53:main.c        **** */
  54:main.c        **** #define USBUART_Buffer_SIZE (64u)
  55:main.c        **** 
  56:main.c        **** void putStringToUSB(char * stringToPutOutUSB);
  57:main.c        **** 
  58:main.c        **** /*******************************************************************************
  59:main.c        **** * Function Name: main
  60:main.c        **** ********************************************************************************
  61:main.c        **** *
  62:main.c        **** * Summary:
  63:main.c        **** *  The main function performs the following actions:
  64:main.c        **** *   1. Waits until VBUS becomes valid and starts the USBFS component which is
  65:main.c        **** *      enumerated as virtual Com port.
  66:main.c        **** *   2. Waits until the device is enumerated by the host.
  67:main.c        **** *   3. Waits for data coming from the hyper terminal
  68:main.c        **** *   4. Parse command.
  69:main.c        **** *
  70:main.c        **** * Parameters:
  71:main.c        **** *  None.
  72:main.c        **** *
  73:main.c        **** * Return:
  74:main.c        **** *  None.
  75:main.c        **** *
  76:main.c        **** *******************************************************************************/
  77:main.c        **** int main()
  78:main.c        **** {
  28              		.loc 1 78 0
  29              		.cfi_startproc
  30              		@ args = 0, pretend = 0, frame = 72
  31              		@ frame_needed = 1, uses_anonymous_args = 0
  32 0000 80B5     		push	{r7, lr}
  33              		.cfi_def_cfa_offset 8
  34              		.cfi_offset 7, -8
  35              		.cfi_offset 14, -4
  36 0002 92B0     		sub	sp, sp, #72
ARM GAS  C:\Users\HPz420\AppData\Local\Temp\ccpmNshK.s 			page 3


  37              		.cfi_def_cfa_offset 80
  38 0004 00AF     		add	r7, sp, #0
  39              		.cfi_def_cfa_register 7
  79:main.c        ****     uint16 inCount;
  80:main.c        ****     uint8 inBuffer[USBUART_Buffer_SIZE];
  81:main.c        ****         
  82:main.c        ****     CyGlobalIntEnable;
  40              		.loc 1 82 0
  41              		.syntax unified
  42              	@ 82 "main.c" 1
  43 0006 62B6     		CPSIE   i
  44              	@ 0 "" 2
  83:main.c        **** 
  84:main.c        ****     /* Start USBFS operation with 5-V operation. */
  85:main.c        ****     USBUART_Start(USBFS_DEVICE, USBUART_5V_OPERATION);
  45              		.loc 1 85 0
  46              		.thumb
  47              		.syntax unified
  48 0008 0121     		movs	r1, #1
  49 000a 0020     		movs	r0, #0
  50 000c FFF7FEFF 		bl	USBUART_Start
  86:main.c        **** 
  87:main.c        ****     // enable I2C interrupts
  88:main.c        **** 	I2C_EEPROM_EnableInt();  
  51              		.loc 1 88 0
  52 0010 204B     		ldr	r3, .L7
  53 0012 4FF40042 		mov	r2, #32768
  54 0016 1A60     		str	r2, [r3]
  89:main.c        **** 	//Start I2C
  90:main.c        **** 	I2C_EEPROM_Start();
  55              		.loc 1 90 0
  56 0018 FFF7FEFF 		bl	I2C_EEPROM_Start
  91:main.c        ****     
  92:main.c        ****     // Default to no daughtercard
  93:main.c        ****     cardType = UNSELECTED_CARD;
  57              		.loc 1 93 0
  58 001c 1E4B     		ldr	r3, .L7+4
  59 001e 0022     		movs	r2, #0
  60 0020 1A80     		strh	r2, [r3]	@ movhi
  61              	.L6:
  94:main.c        ****     
  95:main.c        **** //    printMenuOptions();
  96:main.c        ****     
  97:main.c        ****     for(;;)
  98:main.c        ****     {
  99:main.c        ****         /* Host can send double SET_INTERFACE request. */
 100:main.c        ****         if (0u != USBUART_IsConfigurationChanged())
  62              		.loc 1 100 0
  63 0022 FFF7FEFF 		bl	USBUART_IsConfigurationChanged
  64 0026 0346     		mov	r3, r0
  65 0028 002B     		cmp	r3, #0
  66 002a 06D0     		beq	.L2
 101:main.c        ****         {
 102:main.c        ****             /* Initialize IN endpoints when device is configured. */
 103:main.c        ****             if (0u != USBUART_GetConfiguration())
  67              		.loc 1 103 0
  68 002c FFF7FEFF 		bl	USBUART_GetConfiguration
ARM GAS  C:\Users\HPz420\AppData\Local\Temp\ccpmNshK.s 			page 4


  69 0030 0346     		mov	r3, r0
  70 0032 002B     		cmp	r3, #0
  71 0034 01D0     		beq	.L2
 104:main.c        ****             {
 105:main.c        ****                 /* Enumeration is done, enable OUT endpoint to receive data 
 106:main.c        ****                  * from host. */
 107:main.c        ****                 USBUART_CDC_Init();
  72              		.loc 1 107 0
  73 0036 FFF7FEFF 		bl	USBUART_CDC_Init
  74              	.L2:
 108:main.c        ****             }
 109:main.c        ****         }
 110:main.c        **** 
 111:main.c        ****         /* Service USB CDC when device is configured. */
 112:main.c        ****         if (0u != USBUART_GetConfiguration())
  75              		.loc 1 112 0
  76 003a FFF7FEFF 		bl	USBUART_GetConfiguration
  77 003e 0346     		mov	r3, r0
  78 0040 002B     		cmp	r3, #0
  79 0042 EED0     		beq	.L6
 113:main.c        ****         {
 114:main.c        ****             /* Check for input data from host. */
 115:main.c        ****             if (0u != USBUART_DataIsReady())
  80              		.loc 1 115 0
  81 0044 FFF7FEFF 		bl	USBUART_DataIsReady
  82 0048 0346     		mov	r3, r0
  83 004a 002B     		cmp	r3, #0
  84 004c E9D0     		beq	.L6
 116:main.c        ****             {
 117:main.c        ****                 /* Read received data and re-enable OUT endpoint. */
 118:main.c        ****                 inCount = USBUART_GetAll(inBuffer);
  85              		.loc 1 118 0
  86 004e 3B1D     		adds	r3, r7, #4
  87 0050 1846     		mov	r0, r3
  88 0052 FFF7FEFF 		bl	USBUART_GetAll
  89 0056 0346     		mov	r3, r0
  90 0058 A7F84630 		strh	r3, [r7, #70]	@ movhi
 119:main.c        ****                 addToReceiveBuffer(inCount,inBuffer);
  91              		.loc 1 119 0
  92 005c 3A1D     		adds	r2, r7, #4
  93 005e B7F84630 		ldrh	r3, [r7, #70]
  94 0062 1146     		mov	r1, r2
  95 0064 1846     		mov	r0, r3
  96 0066 FFF7FEFF 		bl	addToReceiveBuffer
 120:main.c        **** 				if (gotCRorLF == 1)
  97              		.loc 1 120 0
  98 006a 0C4B     		ldr	r3, .L7+8
  99 006c 1B78     		ldrb	r3, [r3]	@ zero_extendqisi2
 100 006e 012B     		cmp	r3, #1
 101 0070 01D1     		bne	.L4
 121:main.c        **** 				{
 122:main.c        ****                     psocMenu();
 102              		.loc 1 122 0
 103 0072 FFF7FEFF 		bl	psocMenu
 104              	.L4:
 123:main.c        **** 				}
 124:main.c        ****                 if (USBUART_Buffer_SIZE == inCount)
ARM GAS  C:\Users\HPz420\AppData\Local\Temp\ccpmNshK.s 			page 5


 105              		.loc 1 124 0
 106 0076 B7F84630 		ldrh	r3, [r7, #70]
 107 007a 402B     		cmp	r3, #64
 108 007c D1D1     		bne	.L6
 125:main.c        ****                 {
 126:main.c        ****                     
 127:main.c        ****                     while (0u == USBUART_CDCIsReady()); // Wait until component is ready to send da
 109              		.loc 1 127 0
 110 007e 00BF     		nop
 111              	.L5:
 112              		.loc 1 127 0 is_stmt 0 discriminator 1
 113 0080 FFF7FEFF 		bl	USBUART_CDCIsReady
 114 0084 0346     		mov	r3, r0
 115 0086 002B     		cmp	r3, #0
 116 0088 FAD0     		beq	.L5
 128:main.c        ****                     
 129:main.c        ****                     USBUART_PutData(NULL, 0u);          // Send zero-length packet to PC.
 117              		.loc 1 129 0 is_stmt 1
 118 008a 0021     		movs	r1, #0
 119 008c 0020     		movs	r0, #0
 120 008e FFF7FEFF 		bl	USBUART_PutData
 130:main.c        ****                 }
 131:main.c        ****             }
 132:main.c        ****         }
 133:main.c        ****     }
 121              		.loc 1 133 0
 122 0092 C6E7     		b	.L6
 123              	.L8:
 124              		.align	2
 125              	.L7:
 126 0094 00E100E0 		.word	-536813312
 127 0098 00000000 		.word	cardType
 128 009c 00000000 		.word	gotCRorLF
 129              		.cfi_endproc
 130              	.LFE64:
 131              		.size	main, .-main
 132              		.text
 133              	.Letext0:
 134              		.file 2 "c:\\program files (x86)\\cypress\\psoc creator\\4.4\\psoc creator\\import\\gnu\\arm\\5.4.
 135              		.file 3 "c:\\program files (x86)\\cypress\\psoc creator\\4.4\\psoc creator\\import\\gnu\\arm\\5.4.
 136              		.file 4 "Generated_Source\\PSoC5/cytypes.h"
 137              		.file 5 "Generated_Source\\PSoC5/core_cm3.h"
 138              		.file 6 "Test_RPI_I2C_HUB.h"
 139              		.file 7 "PSoC_Menu.h"
 140              		.file 8 "RPI_PSOC5.h"