ARM GAS  C:\Users\HPz420\AppData\Local\Temp\ccrzcHE8.s 			page 1


   1              		.syntax unified
   2              		.cpu cortex-m3
   3              		.fpu softvfp
   4              		.eabi_attribute 20, 1
   5              		.eabi_attribute 21, 1
   6              		.eabi_attribute 23, 3
   7              		.eabi_attribute 24, 1
   8              		.eabi_attribute 25, 1
   9              		.eabi_attribute 26, 1
  10              		.eabi_attribute 30, 6
  11              		.eabi_attribute 34, 1
  12              		.eabi_attribute 18, 4
  13              		.thumb
  14              		.syntax unified
  15              		.file	"Test_RPP-UIO_16.c"
  16              		.text
  17              	.Ltext0:
  18              		.cfi_sections	.debug_frame
  19              		.section	.text.blinkLED,"ax",%progbits
  20              		.align	2
  21              		.global	blinkLED
  22              		.thumb
  23              		.thumb_func
  24              		.type	blinkLED, %function
  25              	blinkLED:
  26              	.LFB63:
  27              		.file 1 "Test_RPP-UIO_16.c"
   1:Test_RPP-UIO_16.c **** /* ========================================
   2:Test_RPP-UIO_16.c ****  *
   3:Test_RPP-UIO_16.c ****  * Copyright LAND BOARDS, LLC, 2019
   4:Test_RPP-UIO_16.c ****  * All Rights Reserved
   5:Test_RPP-UIO_16.c ****  * UNPUBLISHED, LICENSED SOFTWARE.
   6:Test_RPP-UIO_16.c ****  *
   7:Test_RPP-UIO_16.c ****  * CONFIDENTIAL AND PROPRIETARY INFORMATION
   8:Test_RPP-UIO_16.c ****  * WHICH IS THE PROPERTY OF Land Boards.
   9:Test_RPP-UIO_16.c ****  *
  10:Test_RPP-UIO_16.c ****  * Code tests an external RPI_SPI8 card
  11:Test_RPP-UIO_16.c ****  * http://land-boards.com/blwiki/index.php?title=RPI_SPI8
  12:Test_RPP-UIO_16.c ****  *
  13:Test_RPP-UIO_16.c ****  * ========================================
  14:Test_RPP-UIO_16.c **** */
  15:Test_RPP-UIO_16.c **** 
  16:Test_RPP-UIO_16.c **** // Function to blink an LED attached to an output channel
  17:Test_RPP-UIO_16.c **** // Drives line high for a short time and then drives it low.
  18:Test_RPP-UIO_16.c **** // The high level output turns on the LED.
  19:Test_RPP-UIO_16.c **** 
  20:Test_RPP-UIO_16.c **** #include <project.h>
  21:Test_RPP-UIO_16.c **** #include "RPI_PSOC5.h"
  22:Test_RPP-UIO_16.c **** 
  23:Test_RPP-UIO_16.c **** #define LED_ON 1
  24:Test_RPP-UIO_16.c **** #define LED_OFF 0
  25:Test_RPP-UIO_16.c **** 
  26:Test_RPP-UIO_16.c **** void blinkLED(uint8 RPI_Pin)
  27:Test_RPP-UIO_16.c **** {
  28              		.loc 1 27 0
  29              		.cfi_startproc
  30              		@ args = 0, pretend = 0, frame = 8
ARM GAS  C:\Users\HPz420\AppData\Local\Temp\ccrzcHE8.s 			page 2


  31              		@ frame_needed = 1, uses_anonymous_args = 0
  32 0000 80B5     		push	{r7, lr}
  33              		.cfi_def_cfa_offset 8
  34              		.cfi_offset 7, -8
  35              		.cfi_offset 14, -4
  36 0002 82B0     		sub	sp, sp, #8
  37              		.cfi_def_cfa_offset 16
  38 0004 00AF     		add	r7, sp, #0
  39              		.cfi_def_cfa_register 7
  40 0006 0346     		mov	r3, r0
  41 0008 FB71     		strb	r3, [r7, #7]
  28:Test_RPP-UIO_16.c **** 	setRasPiPinValue(RPI_Pin, LED_ON);
  42              		.loc 1 28 0
  43 000a FB79     		ldrb	r3, [r7, #7]	@ zero_extendqisi2
  44 000c 0121     		movs	r1, #1
  45 000e 1846     		mov	r0, r3
  46 0010 FFF7FEFF 		bl	setRasPiPinValue
  29:Test_RPP-UIO_16.c ****     CyDelay(250);
  47              		.loc 1 29 0
  48 0014 FA20     		movs	r0, #250
  49 0016 FFF7FEFF 		bl	CyDelay
  30:Test_RPP-UIO_16.c **** 	setRasPiPinValue(RPI_Pin, LED_OFF);
  50              		.loc 1 30 0
  51 001a FB79     		ldrb	r3, [r7, #7]	@ zero_extendqisi2
  52 001c 0021     		movs	r1, #0
  53 001e 1846     		mov	r0, r3
  54 0020 FFF7FEFF 		bl	setRasPiPinValue
  31:Test_RPP-UIO_16.c **** }
  55              		.loc 1 31 0
  56 0024 00BF     		nop
  57 0026 0837     		adds	r7, r7, #8
  58              		.cfi_def_cfa_offset 8
  59 0028 BD46     		mov	sp, r7
  60              		.cfi_def_cfa_register 13
  61              		@ sp needed
  62 002a 80BD     		pop	{r7, pc}
  63              		.cfi_endproc
  64              	.LFE63:
  65              		.size	blinkLED, .-blinkLED
  66              		.section	.text.testRPPUIO16,"ax",%progbits
  67              		.align	2
  68              		.global	testRPPUIO16
  69              		.thumb
  70              		.thumb_func
  71              		.type	testRPPUIO16, %function
  72              	testRPPUIO16:
  73              	.LFB64:
  32:Test_RPP-UIO_16.c **** 
  33:Test_RPP-UIO_16.c **** void testRPPUIO16(void)
  34:Test_RPP-UIO_16.c **** {
  74              		.loc 1 34 0
  75              		.cfi_startproc
  76              		@ args = 0, pretend = 0, frame = 0
  77              		@ frame_needed = 1, uses_anonymous_args = 0
  78 0000 80B5     		push	{r7, lr}
  79              		.cfi_def_cfa_offset 8
  80              		.cfi_offset 7, -8
ARM GAS  C:\Users\HPz420\AppData\Local\Temp\ccrzcHE8.s 			page 3


  81              		.cfi_offset 14, -4
  82 0002 00AF     		add	r7, sp, #0
  83              		.cfi_def_cfa_register 7
  35:Test_RPP-UIO_16.c **** // Set all of the RPI pins to outputs
  36:Test_RPP-UIO_16.c ****     setRasPiPinValue(IO_2,PIN_DM_STRONG);
  84              		.loc 1 36 0
  85 0004 0C21     		movs	r1, #12
  86 0006 0020     		movs	r0, #0
  87 0008 FFF7FEFF 		bl	setRasPiPinValue
  37:Test_RPP-UIO_16.c ****     setRasPiPinValue(IO_3,PIN_DM_STRONG);
  88              		.loc 1 37 0
  89 000c 0C21     		movs	r1, #12
  90 000e 0120     		movs	r0, #1
  91 0010 FFF7FEFF 		bl	setRasPiPinValue
  38:Test_RPP-UIO_16.c ****     setRasPiPinValue(IO_4,PIN_DM_STRONG);
  92              		.loc 1 38 0
  93 0014 0C21     		movs	r1, #12
  94 0016 0220     		movs	r0, #2
  95 0018 FFF7FEFF 		bl	setRasPiPinValue
  39:Test_RPP-UIO_16.c ****     setRasPiPinValue(IO_14,PIN_DM_STRONG);
  96              		.loc 1 39 0
  97 001c 0C21     		movs	r1, #12
  98 001e 0320     		movs	r0, #3
  99 0020 FFF7FEFF 		bl	setRasPiPinValue
  40:Test_RPP-UIO_16.c ****     setRasPiPinValue(IO_15,PIN_DM_STRONG);
 100              		.loc 1 40 0
 101 0024 0C21     		movs	r1, #12
 102 0026 0420     		movs	r0, #4
 103 0028 FFF7FEFF 		bl	setRasPiPinValue
  41:Test_RPP-UIO_16.c ****     setRasPiPinValue(IO_17,PIN_DM_STRONG);
 104              		.loc 1 41 0
 105 002c 0C21     		movs	r1, #12
 106 002e 0520     		movs	r0, #5
 107 0030 FFF7FEFF 		bl	setRasPiPinValue
  42:Test_RPP-UIO_16.c ****     setRasPiPinValue(IO_18,PIN_DM_STRONG);
 108              		.loc 1 42 0
 109 0034 0C21     		movs	r1, #12
 110 0036 0620     		movs	r0, #6
 111 0038 FFF7FEFF 		bl	setRasPiPinValue
  43:Test_RPP-UIO_16.c ****     setRasPiPinValue(IO_27,PIN_DM_STRONG);
 112              		.loc 1 43 0
 113 003c 0C21     		movs	r1, #12
 114 003e 0720     		movs	r0, #7
 115 0040 FFF7FEFF 		bl	setRasPiPinValue
  44:Test_RPP-UIO_16.c ****     setRasPiPinValue(IO_22,PIN_DM_STRONG);
 116              		.loc 1 44 0
 117 0044 0C21     		movs	r1, #12
 118 0046 0820     		movs	r0, #8
 119 0048 FFF7FEFF 		bl	setRasPiPinValue
  45:Test_RPP-UIO_16.c ****     setRasPiPinValue(IO_23,PIN_DM_STRONG);
 120              		.loc 1 45 0
 121 004c 0C21     		movs	r1, #12
 122 004e 0920     		movs	r0, #9
 123 0050 FFF7FEFF 		bl	setRasPiPinValue
  46:Test_RPP-UIO_16.c ****     setRasPiPinValue(IO_24,PIN_DM_STRONG);
 124              		.loc 1 46 0
 125 0054 0C21     		movs	r1, #12
ARM GAS  C:\Users\HPz420\AppData\Local\Temp\ccrzcHE8.s 			page 4


 126 0056 0A20     		movs	r0, #10
 127 0058 FFF7FEFF 		bl	setRasPiPinValue
  47:Test_RPP-UIO_16.c ****     setRasPiPinValue(IO_10,PIN_DM_STRONG);
 128              		.loc 1 47 0
 129 005c 0C21     		movs	r1, #12
 130 005e 0B20     		movs	r0, #11
 131 0060 FFF7FEFF 		bl	setRasPiPinValue
  48:Test_RPP-UIO_16.c ****     setRasPiPinValue(IO_9,PIN_DM_STRONG);
 132              		.loc 1 48 0
 133 0064 0C21     		movs	r1, #12
 134 0066 0C20     		movs	r0, #12
 135 0068 FFF7FEFF 		bl	setRasPiPinValue
  49:Test_RPP-UIO_16.c ****     setRasPiPinValue(IO_25,PIN_DM_STRONG);
 136              		.loc 1 49 0
 137 006c 0C21     		movs	r1, #12
 138 006e 0D20     		movs	r0, #13
 139 0070 FFF7FEFF 		bl	setRasPiPinValue
  50:Test_RPP-UIO_16.c ****     setRasPiPinValue(IO_11,PIN_DM_STRONG);
 140              		.loc 1 50 0
 141 0074 0C21     		movs	r1, #12
 142 0076 0E20     		movs	r0, #14
 143 0078 FFF7FEFF 		bl	setRasPiPinValue
  51:Test_RPP-UIO_16.c ****     setRasPiPinValue(IO_8,PIN_DM_STRONG);
 144              		.loc 1 51 0
 145 007c 0C21     		movs	r1, #12
 146 007e 0F20     		movs	r0, #15
 147 0080 FFF7FEFF 		bl	setRasPiPinValue
  52:Test_RPP-UIO_16.c ****     setRasPiPinValue(IO_7,PIN_DM_STRONG);
 148              		.loc 1 52 0
 149 0084 0C21     		movs	r1, #12
 150 0086 1020     		movs	r0, #16
 151 0088 FFF7FEFF 		bl	setRasPiPinValue
  53:Test_RPP-UIO_16.c ****     setRasPiPinValue(IO_5,PIN_DM_STRONG);
 152              		.loc 1 53 0
 153 008c 0C21     		movs	r1, #12
 154 008e 1120     		movs	r0, #17
 155 0090 FFF7FEFF 		bl	setRasPiPinValue
  54:Test_RPP-UIO_16.c ****     setRasPiPinValue(IO_6,PIN_DM_STRONG);
 156              		.loc 1 54 0
 157 0094 0C21     		movs	r1, #12
 158 0096 1220     		movs	r0, #18
 159 0098 FFF7FEFF 		bl	setRasPiPinValue
  55:Test_RPP-UIO_16.c ****     setRasPiPinValue(IO_12,PIN_DM_STRONG);
 160              		.loc 1 55 0
 161 009c 0C21     		movs	r1, #12
 162 009e 1320     		movs	r0, #19
 163 00a0 FFF7FEFF 		bl	setRasPiPinValue
  56:Test_RPP-UIO_16.c ****     setRasPiPinValue(IO_13,PIN_DM_STRONG);
 164              		.loc 1 56 0
 165 00a4 0C21     		movs	r1, #12
 166 00a6 1420     		movs	r0, #20
 167 00a8 FFF7FEFF 		bl	setRasPiPinValue
  57:Test_RPP-UIO_16.c ****     setRasPiPinValue(IO_19,PIN_DM_STRONG);
 168              		.loc 1 57 0
 169 00ac 0C21     		movs	r1, #12
 170 00ae 1520     		movs	r0, #21
 171 00b0 FFF7FEFF 		bl	setRasPiPinValue
ARM GAS  C:\Users\HPz420\AppData\Local\Temp\ccrzcHE8.s 			page 5


  58:Test_RPP-UIO_16.c ****     setRasPiPinValue(IO_16,PIN_DM_STRONG);
 172              		.loc 1 58 0
 173 00b4 0C21     		movs	r1, #12
 174 00b6 1620     		movs	r0, #22
 175 00b8 FFF7FEFF 		bl	setRasPiPinValue
  59:Test_RPP-UIO_16.c ****     setRasPiPinValue(IO_26,PIN_DM_STRONG);
 176              		.loc 1 59 0
 177 00bc 0C21     		movs	r1, #12
 178 00be 1720     		movs	r0, #23
 179 00c0 FFF7FEFF 		bl	setRasPiPinValue
  60:Test_RPP-UIO_16.c ****     setRasPiPinValue(IO_20,PIN_DM_STRONG);
 180              		.loc 1 60 0
 181 00c4 0C21     		movs	r1, #12
 182 00c6 1820     		movs	r0, #24
 183 00c8 FFF7FEFF 		bl	setRasPiPinValue
  61:Test_RPP-UIO_16.c ****     setRasPiPinValue(IO_21,PIN_DM_STRONG);
 184              		.loc 1 61 0
 185 00cc 0C21     		movs	r1, #12
 186 00ce 1920     		movs	r0, #25
 187 00d0 FFF7FEFF 		bl	setRasPiPinValue
  62:Test_RPP-UIO_16.c ****     
  63:Test_RPP-UIO_16.c **** // Set all of the RPI pins to low
  64:Test_RPP-UIO_16.c ****     setRasPiPinValue(IO_2,LED_OFF);
 188              		.loc 1 64 0
 189 00d4 0021     		movs	r1, #0
 190 00d6 0020     		movs	r0, #0
 191 00d8 FFF7FEFF 		bl	setRasPiPinValue
  65:Test_RPP-UIO_16.c ****     setRasPiPinValue(IO_3,LED_OFF);
 192              		.loc 1 65 0
 193 00dc 0021     		movs	r1, #0
 194 00de 0120     		movs	r0, #1
 195 00e0 FFF7FEFF 		bl	setRasPiPinValue
  66:Test_RPP-UIO_16.c ****     setRasPiPinValue(IO_4,LED_OFF);
 196              		.loc 1 66 0
 197 00e4 0021     		movs	r1, #0
 198 00e6 0220     		movs	r0, #2
 199 00e8 FFF7FEFF 		bl	setRasPiPinValue
  67:Test_RPP-UIO_16.c ****     setRasPiPinValue(IO_14,LED_OFF);
 200              		.loc 1 67 0
 201 00ec 0021     		movs	r1, #0
 202 00ee 0320     		movs	r0, #3
 203 00f0 FFF7FEFF 		bl	setRasPiPinValue
  68:Test_RPP-UIO_16.c ****     setRasPiPinValue(IO_15,LED_OFF);
 204              		.loc 1 68 0
 205 00f4 0021     		movs	r1, #0
 206 00f6 0420     		movs	r0, #4
 207 00f8 FFF7FEFF 		bl	setRasPiPinValue
  69:Test_RPP-UIO_16.c ****     setRasPiPinValue(IO_17,LED_OFF);
 208              		.loc 1 69 0
 209 00fc 0021     		movs	r1, #0
 210 00fe 0520     		movs	r0, #5
 211 0100 FFF7FEFF 		bl	setRasPiPinValue
  70:Test_RPP-UIO_16.c ****     setRasPiPinValue(IO_18,LED_OFF);
 212              		.loc 1 70 0
 213 0104 0021     		movs	r1, #0
 214 0106 0620     		movs	r0, #6
 215 0108 FFF7FEFF 		bl	setRasPiPinValue
ARM GAS  C:\Users\HPz420\AppData\Local\Temp\ccrzcHE8.s 			page 6


  71:Test_RPP-UIO_16.c ****     setRasPiPinValue(IO_27,LED_OFF);
 216              		.loc 1 71 0
 217 010c 0021     		movs	r1, #0
 218 010e 0720     		movs	r0, #7
 219 0110 FFF7FEFF 		bl	setRasPiPinValue
  72:Test_RPP-UIO_16.c ****     setRasPiPinValue(IO_22,LED_OFF);
 220              		.loc 1 72 0
 221 0114 0021     		movs	r1, #0
 222 0116 0820     		movs	r0, #8
 223 0118 FFF7FEFF 		bl	setRasPiPinValue
  73:Test_RPP-UIO_16.c ****     setRasPiPinValue(IO_23,LED_OFF);
 224              		.loc 1 73 0
 225 011c 0021     		movs	r1, #0
 226 011e 0920     		movs	r0, #9
 227 0120 FFF7FEFF 		bl	setRasPiPinValue
  74:Test_RPP-UIO_16.c ****     setRasPiPinValue(IO_24,LED_OFF);
 228              		.loc 1 74 0
 229 0124 0021     		movs	r1, #0
 230 0126 0A20     		movs	r0, #10
 231 0128 FFF7FEFF 		bl	setRasPiPinValue
  75:Test_RPP-UIO_16.c ****     setRasPiPinValue(IO_10,LED_OFF);
 232              		.loc 1 75 0
 233 012c 0021     		movs	r1, #0
 234 012e 0B20     		movs	r0, #11
 235 0130 FFF7FEFF 		bl	setRasPiPinValue
  76:Test_RPP-UIO_16.c ****     setRasPiPinValue(IO_9,LED_OFF);
 236              		.loc 1 76 0
 237 0134 0021     		movs	r1, #0
 238 0136 0C20     		movs	r0, #12
 239 0138 FFF7FEFF 		bl	setRasPiPinValue
  77:Test_RPP-UIO_16.c ****     setRasPiPinValue(IO_25,LED_OFF);
 240              		.loc 1 77 0
 241 013c 0021     		movs	r1, #0
 242 013e 0D20     		movs	r0, #13
 243 0140 FFF7FEFF 		bl	setRasPiPinValue
  78:Test_RPP-UIO_16.c ****     setRasPiPinValue(IO_11,LED_OFF);
 244              		.loc 1 78 0
 245 0144 0021     		movs	r1, #0
 246 0146 0E20     		movs	r0, #14
 247 0148 FFF7FEFF 		bl	setRasPiPinValue
  79:Test_RPP-UIO_16.c ****     setRasPiPinValue(IO_8,LED_OFF);
 248              		.loc 1 79 0
 249 014c 0021     		movs	r1, #0
 250 014e 0F20     		movs	r0, #15
 251 0150 FFF7FEFF 		bl	setRasPiPinValue
  80:Test_RPP-UIO_16.c ****     setRasPiPinValue(IO_7,LED_OFF);
 252              		.loc 1 80 0
 253 0154 0021     		movs	r1, #0
 254 0156 1020     		movs	r0, #16
 255 0158 FFF7FEFF 		bl	setRasPiPinValue
  81:Test_RPP-UIO_16.c ****     setRasPiPinValue(IO_5,LED_OFF);
 256              		.loc 1 81 0
 257 015c 0021     		movs	r1, #0
 258 015e 1120     		movs	r0, #17
 259 0160 FFF7FEFF 		bl	setRasPiPinValue
  82:Test_RPP-UIO_16.c ****     setRasPiPinValue(IO_6,LED_OFF);
 260              		.loc 1 82 0
ARM GAS  C:\Users\HPz420\AppData\Local\Temp\ccrzcHE8.s 			page 7


 261 0164 0021     		movs	r1, #0
 262 0166 1220     		movs	r0, #18
 263 0168 FFF7FEFF 		bl	setRasPiPinValue
  83:Test_RPP-UIO_16.c ****     setRasPiPinValue(IO_12,LED_OFF);
 264              		.loc 1 83 0
 265 016c 0021     		movs	r1, #0
 266 016e 1320     		movs	r0, #19
 267 0170 FFF7FEFF 		bl	setRasPiPinValue
  84:Test_RPP-UIO_16.c ****     setRasPiPinValue(IO_13,LED_OFF);
 268              		.loc 1 84 0
 269 0174 0021     		movs	r1, #0
 270 0176 1420     		movs	r0, #20
 271 0178 FFF7FEFF 		bl	setRasPiPinValue
  85:Test_RPP-UIO_16.c ****     setRasPiPinValue(IO_19,LED_OFF);
 272              		.loc 1 85 0
 273 017c 0021     		movs	r1, #0
 274 017e 1520     		movs	r0, #21
 275 0180 FFF7FEFF 		bl	setRasPiPinValue
  86:Test_RPP-UIO_16.c ****     setRasPiPinValue(IO_16,LED_OFF);
 276              		.loc 1 86 0
 277 0184 0021     		movs	r1, #0
 278 0186 1620     		movs	r0, #22
 279 0188 FFF7FEFF 		bl	setRasPiPinValue
  87:Test_RPP-UIO_16.c ****     setRasPiPinValue(IO_26,LED_OFF);
 280              		.loc 1 87 0
 281 018c 0021     		movs	r1, #0
 282 018e 1720     		movs	r0, #23
 283 0190 FFF7FEFF 		bl	setRasPiPinValue
  88:Test_RPP-UIO_16.c ****     setRasPiPinValue(IO_20,LED_OFF);
 284              		.loc 1 88 0
 285 0194 0021     		movs	r1, #0
 286 0196 1820     		movs	r0, #24
 287 0198 FFF7FEFF 		bl	setRasPiPinValue
  89:Test_RPP-UIO_16.c ****     setRasPiPinValue(IO_21,LED_OFF);
 288              		.loc 1 89 0
 289 019c 0021     		movs	r1, #0
 290 019e 1920     		movs	r0, #25
 291 01a0 FFF7FEFF 		bl	setRasPiPinValue
  90:Test_RPP-UIO_16.c ****     
  91:Test_RPP-UIO_16.c **** // Blink all of the LEDs one at a time forever
  92:Test_RPP-UIO_16.c **** // CTRL-C to exit which is not a particularly elegant exit strategy, but this is a demo program
  93:Test_RPP-UIO_16.c **** 
  94:Test_RPP-UIO_16.c **** //    while (1)
  95:Test_RPP-UIO_16.c ****     {
  96:Test_RPP-UIO_16.c ****      	blinkLED(IO_21);
 292              		.loc 1 96 0
 293 01a4 1920     		movs	r0, #25
 294 01a6 FFF7FEFF 		bl	blinkLED
  97:Test_RPP-UIO_16.c ****     	blinkLED(IO_7);     // SPICE1
 295              		.loc 1 97 0
 296 01aa 1020     		movs	r0, #16
 297 01ac FFF7FEFF 		bl	blinkLED
  98:Test_RPP-UIO_16.c ****         blinkLED(IO_10);    // SPIMOSI
 298              		.loc 1 98 0
 299 01b0 0B20     		movs	r0, #11
 300 01b2 FFF7FEFF 		bl	blinkLED
  99:Test_RPP-UIO_16.c ****         blinkLED(IO_9);     // SPIMISO
ARM GAS  C:\Users\HPz420\AppData\Local\Temp\ccrzcHE8.s 			page 8


 301              		.loc 1 99 0
 302 01b6 0C20     		movs	r0, #12
 303 01b8 FFF7FEFF 		bl	blinkLED
 100:Test_RPP-UIO_16.c ****         blinkLED(IO_11);    // SPISCK
 304              		.loc 1 100 0
 305 01bc 0E20     		movs	r0, #14
 306 01be FFF7FEFF 		bl	blinkLED
 101:Test_RPP-UIO_16.c ****        	blinkLED(IO_8);     // SPICE0
 307              		.loc 1 101 0
 308 01c2 0F20     		movs	r0, #15
 309 01c4 FFF7FEFF 		bl	blinkLED
 102:Test_RPP-UIO_16.c ****     	blinkLED(IO_2);     // SDA1
 310              		.loc 1 102 0
 311 01c8 0020     		movs	r0, #0
 312 01ca FFF7FEFF 		bl	blinkLED
 103:Test_RPP-UIO_16.c ****     	blinkLED(IO_3);     // SCL1
 313              		.loc 1 103 0
 314 01ce 0120     		movs	r0, #1
 315 01d0 FFF7FEFF 		bl	blinkLED
 104:Test_RPP-UIO_16.c ****     	blinkLED(IO_14);    // TXD0
 316              		.loc 1 104 0
 317 01d4 0320     		movs	r0, #3
 318 01d6 FFF7FEFF 		bl	blinkLED
 105:Test_RPP-UIO_16.c ****     	blinkLED(IO_15);    // RXD0
 319              		.loc 1 105 0
 320 01da 0420     		movs	r0, #4
 321 01dc FFF7FEFF 		bl	blinkLED
 106:Test_RPP-UIO_16.c ****         
 107:Test_RPP-UIO_16.c ****     	blinkLED(IO_4);
 322              		.loc 1 107 0
 323 01e0 0220     		movs	r0, #2
 324 01e2 FFF7FEFF 		bl	blinkLED
 108:Test_RPP-UIO_16.c ****     	blinkLED(IO_18);
 325              		.loc 1 108 0
 326 01e6 0620     		movs	r0, #6
 327 01e8 FFF7FEFF 		bl	blinkLED
 109:Test_RPP-UIO_16.c ****     	blinkLED(IO_17);
 328              		.loc 1 109 0
 329 01ec 0520     		movs	r0, #5
 330 01ee FFF7FEFF 		bl	blinkLED
 110:Test_RPP-UIO_16.c ****     	blinkLED(IO_27);
 331              		.loc 1 110 0
 332 01f2 0720     		movs	r0, #7
 333 01f4 FFF7FEFF 		bl	blinkLED
 111:Test_RPP-UIO_16.c ****     	blinkLED(IO_23);
 334              		.loc 1 111 0
 335 01f8 0920     		movs	r0, #9
 336 01fa FFF7FEFF 		bl	blinkLED
 112:Test_RPP-UIO_16.c ****     	blinkLED(IO_22);
 337              		.loc 1 112 0
 338 01fe 0820     		movs	r0, #8
 339 0200 FFF7FEFF 		bl	blinkLED
 113:Test_RPP-UIO_16.c ****     	blinkLED(IO_24);
 340              		.loc 1 113 0
 341 0204 0A20     		movs	r0, #10
 342 0206 FFF7FEFF 		bl	blinkLED
 114:Test_RPP-UIO_16.c ****     	blinkLED(IO_25);
ARM GAS  C:\Users\HPz420\AppData\Local\Temp\ccrzcHE8.s 			page 9


 343              		.loc 1 114 0
 344 020a 0D20     		movs	r0, #13
 345 020c FFF7FEFF 		bl	blinkLED
 115:Test_RPP-UIO_16.c ****         
 116:Test_RPP-UIO_16.c ****     	blinkLED(IO_5);
 346              		.loc 1 116 0
 347 0210 1120     		movs	r0, #17
 348 0212 FFF7FEFF 		bl	blinkLED
 117:Test_RPP-UIO_16.c ****     	blinkLED(IO_6);
 349              		.loc 1 117 0
 350 0216 1220     		movs	r0, #18
 351 0218 FFF7FEFF 		bl	blinkLED
 118:Test_RPP-UIO_16.c ****     	blinkLED(IO_12);
 352              		.loc 1 118 0
 353 021c 1320     		movs	r0, #19
 354 021e FFF7FEFF 		bl	blinkLED
 119:Test_RPP-UIO_16.c ****     	blinkLED(IO_13);
 355              		.loc 1 119 0
 356 0222 1420     		movs	r0, #20
 357 0224 FFF7FEFF 		bl	blinkLED
 120:Test_RPP-UIO_16.c ****     	blinkLED(IO_19);
 358              		.loc 1 120 0
 359 0228 1520     		movs	r0, #21
 360 022a FFF7FEFF 		bl	blinkLED
 121:Test_RPP-UIO_16.c ****     	blinkLED(IO_16);
 361              		.loc 1 121 0
 362 022e 1620     		movs	r0, #22
 363 0230 FFF7FEFF 		bl	blinkLED
 122:Test_RPP-UIO_16.c ****         blinkLED(IO_26);
 364              		.loc 1 122 0
 365 0234 1720     		movs	r0, #23
 366 0236 FFF7FEFF 		bl	blinkLED
 123:Test_RPP-UIO_16.c ****     	blinkLED(IO_20);
 367              		.loc 1 123 0
 368 023a 1820     		movs	r0, #24
 369 023c FFF7FEFF 		bl	blinkLED
 124:Test_RPP-UIO_16.c ****     }
 125:Test_RPP-UIO_16.c **** }
 370              		.loc 1 125 0
 371 0240 00BF     		nop
 372 0242 80BD     		pop	{r7, pc}
 373              		.cfi_endproc
 374              	.LFE64:
 375              		.size	testRPPUIO16, .-testRPPUIO16
 376              		.text
 377              	.Letext0:
 378              		.file 2 "c:\\program files (x86)\\cypress\\psoc creator\\4.4\\psoc creator\\import\\gnu\\arm\\5.4.
 379              		.file 3 "c:\\program files (x86)\\cypress\\psoc creator\\4.4\\psoc creator\\import\\gnu\\arm\\5.4.
 380              		.file 4 "Generated_Source\\PSoC5/cytypes.h"
 381              		.file 5 "RasPi_Pins.h"
 382              		.file 6 "Generated_Source\\PSoC5/core_cm3.h"