ARM GAS  C:\Users\HPz420\AppData\Local\Temp\ccBoTVQ9.s 			page 1


   1              		.syntax unified
   2              		.cpu cortex-m3
   3              		.fpu softvfp
   4              		.eabi_attribute 20, 1
   5              		.eabi_attribute 21, 1
   6              		.eabi_attribute 23, 3
   7              		.eabi_attribute 24, 1
   8              		.eabi_attribute 25, 1
   9              		.eabi_attribute 26, 1
  10              		.eabi_attribute 30, 6
  11              		.eabi_attribute 34, 1
  12              		.eabi_attribute 18, 4
  13              		.thumb
  14              		.syntax unified
  15              		.file	"Test_RPI_2C_HUB.c"
  16              		.text
  17              	.Ltext0:
  18              		.cfi_sections	.debug_frame
  19              		.section	.text.testRPIHUB,"ax",%progbits
  20              		.align	2
  21              		.global	testRPIHUB
  22              		.thumb
  23              		.thumb_func
  24              		.type	testRPIHUB, %function
  25              	testRPIHUB:
  26              	.LFB63:
  27              		.file 1 "Test_RPI_2C_HUB.c"
   1:Test_RPI_2C_HUB.c **** /* ========================================
   2:Test_RPI_2C_HUB.c ****  *
   3:Test_RPI_2C_HUB.c ****  * Copyright LAND BOARDS, LLC, 2019
   4:Test_RPI_2C_HUB.c ****  * All Rights Reserved
   5:Test_RPI_2C_HUB.c ****  * UNPUBLISHED, LICENSED SOFTWARE.
   6:Test_RPI_2C_HUB.c ****  *
   7:Test_RPI_2C_HUB.c ****  * CONFIDENTIAL AND PROPRIETARY INFORMATION
   8:Test_RPI_2C_HUB.c ****  * WHICH IS THE PROPERTY OF Land Boards.
   9:Test_RPI_2C_HUB.c ****  *
  10:Test_RPI_2C_HUB.c ****  * ========================================
  11:Test_RPI_2C_HUB.c **** */
  12:Test_RPI_2C_HUB.c **** 
  13:Test_RPI_2C_HUB.c **** #include <project.h>
  14:Test_RPI_2C_HUB.c **** #include "RPI_PSOC5.h"
  15:Test_RPI_2C_HUB.c **** 
  16:Test_RPI_2C_HUB.c **** void testRPIHUB(void)
  17:Test_RPI_2C_HUB.c **** {
  28              		.loc 1 17 0
  29              		.cfi_startproc
  30              		@ args = 0, pretend = 0, frame = 8
  31              		@ frame_needed = 1, uses_anonymous_args = 0
  32 0000 80B5     		push	{r7, lr}
  33              		.cfi_def_cfa_offset 8
  34              		.cfi_offset 7, -8
  35              		.cfi_offset 14, -4
  36 0002 82B0     		sub	sp, sp, #8
  37              		.cfi_def_cfa_offset 16
  38 0004 00AF     		add	r7, sp, #0
  39              		.cfi_def_cfa_register 7
  18:Test_RPI_2C_HUB.c ****     I2C1_Start();
ARM GAS  C:\Users\HPz420\AppData\Local\Temp\ccBoTVQ9.s 			page 2


  40              		.loc 1 18 0
  41 0006 FFF7FEFF 		bl	I2C1_Start
  19:Test_RPI_2C_HUB.c ****     uint8 SLAVE_ADDR = 0xE0;
  42              		.loc 1 19 0
  43 000a E023     		movs	r3, #224
  44 000c FB71     		strb	r3, [r7, #7]
  20:Test_RPI_2C_HUB.c ****     uint8 cMessage[2];
  21:Test_RPI_2C_HUB.c ****     //uint16 cLength = 256;
  22:Test_RPI_2C_HUB.c ****     
  23:Test_RPI_2C_HUB.c ****     cMessage[0] = 0x04;
  45              		.loc 1 23 0
  46 000e 0423     		movs	r3, #4
  47 0010 3B71     		strb	r3, [r7, #4]
  24:Test_RPI_2C_HUB.c ****     cMessage[1] = 0;
  48              		.loc 1 24 0
  49 0012 0023     		movs	r3, #0
  50 0014 7B71     		strb	r3, [r7, #5]
  25:Test_RPI_2C_HUB.c ****     
  26:Test_RPI_2C_HUB.c ****     //write a dummy byte to initialize the address word counter of 
  27:Test_RPI_2C_HUB.c ****     //eeprom to start address for read back operation. First location 
  28:Test_RPI_2C_HUB.c ****     //of cMessage array has word address.
  29:Test_RPI_2C_HUB.c ****     
  30:Test_RPI_2C_HUB.c ****     I2C1_MasterWriteBuf(SLAVE_ADDR, cMessage, 1, I2C_EEPROM_MODE_COMPLETE_XFER);
  51              		.loc 1 30 0
  52 0016 391D     		adds	r1, r7, #4
  53 0018 F879     		ldrb	r0, [r7, #7]	@ zero_extendqisi2
  54 001a 0023     		movs	r3, #0
  55 001c 0122     		movs	r2, #1
  56 001e FFF7FEFF 		bl	I2C1_MasterWriteBuf
  31:Test_RPI_2C_HUB.c ****     
  32:Test_RPI_2C_HUB.c **** }
  57              		.loc 1 32 0
  58 0022 00BF     		nop
  59 0024 0837     		adds	r7, r7, #8
  60              		.cfi_def_cfa_offset 8
  61 0026 BD46     		mov	sp, r7
  62              		.cfi_def_cfa_register 13
  63              		@ sp needed
  64 0028 80BD     		pop	{r7, pc}
  65              		.cfi_endproc
  66              	.LFE63:
  67              		.size	testRPIHUB, .-testRPIHUB
  68 002a 00BF     		.text
  69              	.Letext0:
  70              		.file 2 "c:\\program files (x86)\\cypress\\psoc creator\\4.2\\psoc creator\\import\\gnu\\arm\\5.4.
  71              		.file 3 "c:\\program files (x86)\\cypress\\psoc creator\\4.2\\psoc creator\\import\\gnu\\arm\\5.4.
  72              		.file 4 "Generated_Source\\PSoC5/cytypes.h"
  73              		.file 5 "Generated_Source\\PSoC5/core_cm3.h"