ARM GAS  C:\Users\HPz420\AppData\Local\Temp\ccCjUstx.s 			page 1


   1              		.syntax unified
   2              		.cpu cortex-m3
   3              		.fpu softvfp
   4              		.eabi_attribute 20, 1
   5              		.eabi_attribute 21, 1
   6              		.eabi_attribute 23, 3
   7              		.eabi_attribute 24, 1
   8              		.eabi_attribute 25, 1
   9              		.eabi_attribute 26, 1
  10              		.eabi_attribute 30, 6
  11              		.eabi_attribute 34, 1
  12              		.eabi_attribute 18, 4
  13              		.thumb
  14              		.syntax unified
  15              		.file	"Test_RPI_SPI8.c"
  16              		.text
  17              	.Ltext0:
  18              		.cfi_sections	.debug_frame
  19              		.section	.rodata
  20              		.align	2
  21              	.LC0:
  22 0000 74657374 		.ascii	"testRPISPI8() - Reached function\012\015\000"
  22      52504953 
  22      50493828 
  22      29202D20 
  22      52656163 
  23 0023 00       		.align	2
  24              	.LC1:
  25 0024 74657374 		.ascii	"testRPISPI8() - Set SPI Channel\012\015\000"
  25      52504953 
  25      50493828 
  25      29202D20 
  25      53657420 
  26 0046 0000     		.align	2
  27              	.LC2:
  28 0048 74657374 		.ascii	"testRPISPI8() - Start SPI\012\015\000"
  28      52504953 
  28      50493828 
  28      29202D20 
  28      53746172 
  29              		.align	2
  30              	.LC3:
  31 0064 74657374 		.ascii	"testRPISPI8() - Started SPI\012\015\000"
  31      52504953 
  31      50493828 
  31      29202D20 
  31      53746172 
  32              		.section	.text.testRPISPI8,"ax",%progbits
  33              		.align	2
  34              		.global	testRPISPI8
  35              		.thumb
  36              		.thumb_func
  37              		.type	testRPISPI8, %function
  38              	testRPISPI8:
  39              	.LFB63:
  40              		.file 1 "Test_RPI_SPI8.c"
   1:Test_RPI_SPI8.c **** /* ========================================
ARM GAS  C:\Users\HPz420\AppData\Local\Temp\ccCjUstx.s 			page 2


   2:Test_RPI_SPI8.c ****  *
   3:Test_RPI_SPI8.c ****  * Copyright LAND BOARDS, LLC, 2019
   4:Test_RPI_SPI8.c ****  * All Rights Reserved
   5:Test_RPI_SPI8.c ****  * UNPUBLISHED, LICENSED SOFTWARE.
   6:Test_RPI_SPI8.c ****  *
   7:Test_RPI_SPI8.c ****  * CONFIDENTIAL AND PROPRIETARY INFORMATION
   8:Test_RPI_SPI8.c ****  * WHICH IS THE PROPERTY OF Land Boards.
   9:Test_RPI_SPI8.c ****  *
  10:Test_RPI_SPI8.c ****  * ========================================
  11:Test_RPI_SPI8.c **** */
  12:Test_RPI_SPI8.c **** 
  13:Test_RPI_SPI8.c **** #include <project.h>
  14:Test_RPI_SPI8.c **** #include "RPI_PSOC5.h"
  15:Test_RPI_SPI8.c **** 
  16:Test_RPI_SPI8.c **** void setSPIChannel(uint8);
  17:Test_RPI_SPI8.c **** 
  18:Test_RPI_SPI8.c **** void testRPISPI8(void)
  19:Test_RPI_SPI8.c **** {
  41              		.loc 1 19 0
  42              		.cfi_startproc
  43              		@ args = 0, pretend = 0, frame = 8
  44              		@ frame_needed = 1, uses_anonymous_args = 0
  45 0000 80B5     		push	{r7, lr}
  46              		.cfi_def_cfa_offset 8
  47              		.cfi_offset 7, -8
  48              		.cfi_offset 14, -4
  49 0002 82B0     		sub	sp, sp, #8
  50              		.cfi_def_cfa_offset 16
  51 0004 00AF     		add	r7, sp, #0
  52              		.cfi_def_cfa_register 7
  20:Test_RPI_SPI8.c ****     uint16 txValue;
  21:Test_RPI_SPI8.c ****     uint8 chNum;
  22:Test_RPI_SPI8.c ****     putStringToUSB("testRPISPI8() - Reached function\n\r");
  53              		.loc 1 22 0
  54 0006 1E48     		ldr	r0, .L12
  55 0008 FFF7FEFF 		bl	putStringToUSB
  23:Test_RPI_SPI8.c ****     // Flush input buffer
  24:Test_RPI_SPI8.c ****     clearReceiveBuffer();
  56              		.loc 1 24 0
  57 000c FFF7FEFF 		bl	clearReceiveBuffer
  25:Test_RPI_SPI8.c ****     putStringToUSB("testRPISPI8() - Set SPI Channel\n\r");
  58              		.loc 1 25 0
  59 0010 1C48     		ldr	r0, .L12+4
  60 0012 FFF7FEFF 		bl	putStringToUSB
  26:Test_RPI_SPI8.c ****     putStringToUSB("testRPISPI8() - Start SPI\n\r");
  61              		.loc 1 26 0
  62 0016 1C48     		ldr	r0, .L12+8
  63 0018 FFF7FEFF 		bl	putStringToUSB
  27:Test_RPI_SPI8.c ****     SPIM_1_Start();
  64              		.loc 1 27 0
  65 001c FFF7FEFF 		bl	SPIM_1_Start
  28:Test_RPI_SPI8.c ****     putStringToUSB("testRPISPI8() - Started SPI\n\r");
  66              		.loc 1 28 0
  67 0020 1A48     		ldr	r0, .L12+12
  68 0022 FFF7FEFF 		bl	putStringToUSB
  69              	.L9:
  29:Test_RPI_SPI8.c ****     // Blink all of the LEDs one at a time forever
ARM GAS  C:\Users\HPz420\AppData\Local\Temp\ccCjUstx.s 			page 3


  30:Test_RPI_SPI8.c ****     // Hit ENTER to exit
  31:Test_RPI_SPI8.c ****     while (1)
  32:Test_RPI_SPI8.c ****     {
  33:Test_RPI_SPI8.c ****         for (chNum = 0; chNum < 8; chNum++)
  70              		.loc 1 33 0
  71 0026 0023     		movs	r3, #0
  72 0028 7B71     		strb	r3, [r7, #5]
  73 002a 1BE0     		b	.L2
  74              	.L6:
  34:Test_RPI_SPI8.c ****         {
  35:Test_RPI_SPI8.c ****             setSPIChannel(chNum);
  75              		.loc 1 35 0
  76 002c 7B79     		ldrb	r3, [r7, #5]	@ zero_extendqisi2
  77 002e 1846     		mov	r0, r3
  78 0030 FFF7FEFF 		bl	setSPIChannel
  36:Test_RPI_SPI8.c ****             for (txValue = 0; txValue < 0x80; txValue++)
  79              		.loc 1 36 0
  80 0034 0023     		movs	r3, #0
  81 0036 FB80     		strh	r3, [r7, #6]	@ movhi
  82 0038 0EE0     		b	.L3
  83              	.L5:
  37:Test_RPI_SPI8.c ****             {
  38:Test_RPI_SPI8.c ****                 //putStringToUSB("testRPISPI8() - Writing data\n\r");
  39:Test_RPI_SPI8.c ****                 SPIM_1_WriteTxData(txValue);
  84              		.loc 1 39 0
  85 003a FB88     		ldrh	r3, [r7, #6]
  86 003c 1846     		mov	r0, r3
  87 003e FFF7FEFF 		bl	SPIM_1_WriteTxData
  40:Test_RPI_SPI8.c ****                 //putStringToUSB("testRPISPI8() - Wait while Tx Full\n\r");
  41:Test_RPI_SPI8.c ****                 while ((SPIM_1_TX_STATUS_REG & 0x1) != 0x01);
  88              		.loc 1 41 0
  89 0042 00BF     		nop
  90              	.L4:
  91              		.loc 1 41 0 is_stmt 0 discriminator 1
  92 0044 124B     		ldr	r3, .L12+16
  93 0046 1B78     		ldrb	r3, [r3]
  94 0048 DBB2     		uxtb	r3, r3
  95 004a 03F00103 		and	r3, r3, #1
  96 004e 002B     		cmp	r3, #0
  97 0050 F8D0     		beq	.L4
  36:Test_RPI_SPI8.c ****             {
  98              		.loc 1 36 0 is_stmt 1 discriminator 2
  99 0052 FB88     		ldrh	r3, [r7, #6]
 100 0054 0133     		adds	r3, r3, #1
 101 0056 FB80     		strh	r3, [r7, #6]	@ movhi
 102              	.L3:
  36:Test_RPI_SPI8.c ****             {
 103              		.loc 1 36 0 is_stmt 0 discriminator 1
 104 0058 FB88     		ldrh	r3, [r7, #6]
 105 005a 7F2B     		cmp	r3, #127
 106 005c EDD9     		bls	.L5
  33:Test_RPI_SPI8.c ****         {
 107              		.loc 1 33 0 is_stmt 1 discriminator 2
 108 005e 7B79     		ldrb	r3, [r7, #5]	@ zero_extendqisi2
 109 0060 0133     		adds	r3, r3, #1
 110 0062 7B71     		strb	r3, [r7, #5]
 111              	.L2:
ARM GAS  C:\Users\HPz420\AppData\Local\Temp\ccCjUstx.s 			page 4


  33:Test_RPI_SPI8.c ****         {
 112              		.loc 1 33 0 is_stmt 0 discriminator 1
 113 0064 7B79     		ldrb	r3, [r7, #5]	@ zero_extendqisi2
 114 0066 072B     		cmp	r3, #7
 115 0068 E0D9     		bls	.L6
  42:Test_RPI_SPI8.c ****                 //putStringToUSB("testRPISPI8() - Finished waiting while Tx is not empty\n\r");
  43:Test_RPI_SPI8.c ****             }
  44:Test_RPI_SPI8.c ****         }
  45:Test_RPI_SPI8.c ****         // Check if ENTER is hit
  46:Test_RPI_SPI8.c ****         if (USBUART_DataIsReady() != 0)
 116              		.loc 1 46 0 is_stmt 1
 117 006a FFF7FEFF 		bl	USBUART_DataIsReady
 118 006e 0346     		mov	r3, r0
 119 0070 002B     		cmp	r3, #0
 120 0072 00D1     		bne	.L11
  47:Test_RPI_SPI8.c ****             return;
  48:Test_RPI_SPI8.c ****     }
 121              		.loc 1 48 0
 122 0074 D7E7     		b	.L9
 123              	.L11:
  47:Test_RPI_SPI8.c ****             return;
 124              		.loc 1 47 0
 125 0076 00BF     		nop
  49:Test_RPI_SPI8.c **** }
 126              		.loc 1 49 0
 127 0078 0837     		adds	r7, r7, #8
 128              		.cfi_def_cfa_offset 8
 129 007a BD46     		mov	sp, r7
 130              		.cfi_def_cfa_register 13
 131              		@ sp needed
 132 007c 80BD     		pop	{r7, pc}
 133              	.L13:
 134 007e 00BF     		.align	2
 135              	.L12:
 136 0080 00000000 		.word	.LC0
 137 0084 24000000 		.word	.LC1
 138 0088 48000000 		.word	.LC2
 139 008c 64000000 		.word	.LC3
 140 0090 6B640040 		.word	1073767531
 141              		.cfi_endproc
 142              	.LFE63:
 143              		.size	testRPISPI8, .-testRPISPI8
 144              		.section	.text.setSPIChannel,"ax",%progbits
 145              		.align	2
 146              		.global	setSPIChannel
 147              		.thumb
 148              		.thumb_func
 149              		.type	setSPIChannel, %function
 150              	setSPIChannel:
 151              	.LFB64:
  50:Test_RPI_SPI8.c **** 
  51:Test_RPI_SPI8.c **** void setSPIChannel(uint8 channelNum)
  52:Test_RPI_SPI8.c **** {
 152              		.loc 1 52 0
 153              		.cfi_startproc
 154              		@ args = 0, pretend = 0, frame = 8
 155              		@ frame_needed = 1, uses_anonymous_args = 0
ARM GAS  C:\Users\HPz420\AppData\Local\Temp\ccCjUstx.s 			page 5


 156 0000 80B5     		push	{r7, lr}
 157              		.cfi_def_cfa_offset 8
 158              		.cfi_offset 7, -8
 159              		.cfi_offset 14, -4
 160 0002 82B0     		sub	sp, sp, #8
 161              		.cfi_def_cfa_offset 16
 162 0004 00AF     		add	r7, sp, #0
 163              		.cfi_def_cfa_register 7
 164 0006 0346     		mov	r3, r0
 165 0008 FB71     		strb	r3, [r7, #7]
  53:Test_RPI_SPI8.c ****     SPI_ADDR_Write(channelNum);
 166              		.loc 1 53 0
 167 000a FB79     		ldrb	r3, [r7, #7]	@ zero_extendqisi2
 168 000c 1846     		mov	r0, r3
 169 000e FFF7FEFF 		bl	SPI_ADDR_Write
  54:Test_RPI_SPI8.c **** }
 170              		.loc 1 54 0
 171 0012 00BF     		nop
 172 0014 0837     		adds	r7, r7, #8
 173              		.cfi_def_cfa_offset 8
 174 0016 BD46     		mov	sp, r7
 175              		.cfi_def_cfa_register 13
 176              		@ sp needed
 177 0018 80BD     		pop	{r7, pc}
 178              		.cfi_endproc
 179              	.LFE64:
 180              		.size	setSPIChannel, .-setSPIChannel
 181 001a 00BF     		.section	.text.debugRPISPI8,"ax",%progbits
 182              		.align	2
 183              		.global	debugRPISPI8
 184              		.thumb
 185              		.thumb_func
 186              		.type	debugRPISPI8, %function
 187              	debugRPISPI8:
 188              	.LFB65:
  55:Test_RPI_SPI8.c **** 
  56:Test_RPI_SPI8.c **** void debugRPISPI8(void)
  57:Test_RPI_SPI8.c **** {
 189              		.loc 1 57 0
 190              		.cfi_startproc
 191              		@ args = 0, pretend = 0, frame = 0
 192              		@ frame_needed = 1, uses_anonymous_args = 0
 193              		@ link register save eliminated.
 194 0000 80B4     		push	{r7}
 195              		.cfi_def_cfa_offset 4
 196              		.cfi_offset 7, -4
 197 0002 00AF     		add	r7, sp, #0
 198              		.cfi_def_cfa_register 7
  58:Test_RPI_SPI8.c **** 
  59:Test_RPI_SPI8.c **** }
 199              		.loc 1 59 0
 200 0004 00BF     		nop
 201 0006 BD46     		mov	sp, r7
 202              		.cfi_def_cfa_register 13
 203              		@ sp needed
 204 0008 80BC     		pop	{r7}
 205              		.cfi_restore 7
ARM GAS  C:\Users\HPz420\AppData\Local\Temp\ccCjUstx.s 			page 6


 206              		.cfi_def_cfa_offset 0
 207 000a 7047     		bx	lr
 208              		.cfi_endproc
 209              	.LFE65:
 210              		.size	debugRPISPI8, .-debugRPISPI8
 211              		.text
 212              	.Letext0:
 213              		.file 2 "c:\\program files (x86)\\cypress\\psoc creator\\4.4\\psoc creator\\import\\gnu\\arm\\5.4.
 214              		.file 3 "c:\\program files (x86)\\cypress\\psoc creator\\4.4\\psoc creator\\import\\gnu\\arm\\5.4.
 215              		.file 4 "Generated_Source\\PSoC5/cytypes.h"
 216              		.file 5 "Generated_Source\\PSoC5/core_cm3.h"